CONTEXT   0 123   0   3  90
ÄÄÄÄÄÄÄÄÄÄÄÄÄÄÄÄÄÄÄÄÄÄÄÄÄÄÄÄÄÄÄÄÄÄÄÄÄÄÄÄÄÄÄÄÄÄÄÄÄÄÄÄÄÄÄÄÄÄÄÄÄÄÄÄÄÄÄÄÄÄÄÄÄÄÄÄÄÄÄÄÄÄÄÄÄÄÄÄÄÄÄÄÄÄÄÄÄÄÄÄ
      Zavadˆ‡ IO.SYS                                       - # -


; start modulu IO.SYS - po startu syst‚mu zavede zavadˆ‡ opera‡n¡ho
; syst‚mu prvn¡ 3 sektory se souboru IO.SYS do pamˆti od adresy
; 0070:0000H a p©ed  na tuto adresu ©¡zen¡.

segment 0000:
                                                 ; vlastn¡ tabulka diskov˜ch parametr–
0522                 db     0
0523                 db     0
0524                 db     0
0525                 db     0
0526                 db     0
0527                 db     0
0528                 db     0
0529                 db     0
052A                 db     0
052B                 db     0
052C                 db     0




0000  E9B500         JMP    00B8
  
0003   04 00 00 00 00 00 00 00 00 00 00 00 00 00 00 00   ................
0013   00 00 00 00 00 00 00 00 00 00 00 00 00 00 00 00   ................
0023   00 00 00 00 00 00 00 00 00 00 00 00 00 00 00 00   ................
0033   00 00 00 00 00 00 00 00 00 00 00 00 00 00 00 00   ................
0043   00 00 00 00 00 00 00 00 00 00 00 00 00 00 00 00   ................
0053   00 00 00 00 00 00 00 00 00 00 00 00 00 00 00 00   ................
0063   00 00 00 00 00 00 00 00 00 00 00 00 00 00 00 00   ................
0073   00 00 00 00 00 00 00 00 00 00 00 00 00 00 00 00   ................
0083   00 00

                                                 ; od t‚to adresy n¡‘e je z sobn¡k

0085                 dw     0                    ; po‡et hlav na disk
0087                 dw     0                    ; d‚lka bloku v bajtech

0089                 dw     0                    ; rel. ‡¡slo zav dˆn‚ho sektoru - LOW
008b                 dw     0                    ; rel. ‡¡slo zav dˆn‚ho sektoru - HIGH
008d                 dw     0

0091                 dw     0ffffh

0093   00 00 00 00 00 00 00 00 00 00 00 00 00 00 00 00   ................

0095                 dw     0                    ; po‡et sektor– v jedn‚ FAT
0097                 dw     0                    ; po‡et skryt˜ch sektor–
0099                 dw     0                    ; (z adr. 0:7c1eh)
009b                 dw     0                    ; d‚lka sektoru (bajt–)
009d                 dw     0                    ; po‡et rezervovan˜ch sektor– p©ed FAT

00a3                 dw     0                    ; ni‘¨¡ slovo rel. ‡¡sla sektoru
00a5                 dw     0                    ; vy¨¨¡ slovo rel. ‡¡sla sektoru
00a7                 dw     0                    ; celkov˜ po‡et sektor– na m‚diu
00a9                 dw     0                    ; (z adr. 0:7c22)
00ab                 dw     0                    ; po‡et sektor– na stopu
00ad                 db     0                    ; ‡¡slo aktivn¡ho disku
00ae                 db     0                    ; 01h
00af                 db     0                    ; typ disku (popisova‡ m‚dia)
00b0                 db     0
00b1                 dw     0                    ; polo‘ka DOS.SYS v adres ©i + 11
00b3                 dw     0                    ; £schova DS
00b5                 dw     0                    ; segment pro ulo‘en¡ sektoru na konec pamˆti
00b7                 db     0                    ; velikost bloku v sektorech


  
                                                 ; start modulu IO.SYS
                                                 ; (CS=0070H, DS=0000H)

00B8  2E891EA300     MOV    CS:[00A3],BX         ; ni‘¨¡ slovo rel. ‡¡sla sektoru
00BD  2E882EAF00     MOV    CS:[00AF],CH         ; typ disku (popisova‡ m‚dia)
00C2  2E8816AD00     MOV    CS:[00AD],DL         ; ‡¡slo aktivn¡ho disku
00C7  2E8936B100     MOV    CS:[00B1],SI         ; polo‘ka souboru DOS.SYS + 11
00CC  1E             PUSH   DS                   ; 0000h
00CD  2E8F06B300     POP    CS:[00B3]            ; £schova DS
00D2  33C9           XOR    CX,CX
00D4  8ED9           MOV    DS,CX                ; DS <- 0000h
00D6  06             PUSH   ES                   ; £schova ES
00D7  8EC1           MOV    ES,CX                ; ES <- 0000h
00D9  8B367800       MOV    SI,[0078]            ; ukazatel disketov˜ch parametr– INT 1EH
00DD  8E1E7A00       MOV    DS,[007A]
00E1  BF2205         MOV    DI,0522              ; vlastn¡ tabulka diskov˜ch parametr–
00E4  B90B00         MOV    CX,000B              ; d‚lka tabulky
00E7  FC             CLD                         ; smˆr p©enosu nahoru
00E8  F3A4           REP    MOVSB                ; p©enos tabulky (na adr. 0000:0522h)
00EA  06             PUSH   ES                   ; 0000h
00EB  1F             POP    DS                   ; DS <- 0000h
00EC  C70678002205   MOV    [0078],0522          ; nastaven¡ adresy vlastn¡ tabulky
00F2  8C1E7A00       MOV    [007A],DS
00F6  07             POP    ES                   ; n vrat ES
00F7  8B0E0B7C       MOV    CX,[7C0B]            ; d‚lka sektoru (bajt–)
00FB  2E890E9B00     MOV    CS:[009B],CX
0100  8A0E0D7C       MOV    CL,[7C0D]            ; velikost bloku (po‡et sektor–)
0104  2E880EB700     MOV    CS:[00B7],CL
0109  8B0E187C       MOV    CX,[7C18]            ; po‡et sektor– na stopu
010D  2E890EAB00     MOV    CS:[00AB],CX
0112  8B0E1A7C       MOV    CX,[7C1A]            ; po‡et hlav na disk
0116  2E890E8500     MOV    CS:[0085],CX
011B  8B0E167C       MOV    CX,[7C16]            ; po‡et sektor– v jedn‚ FAT
011F  2E890E9500     MOV    CS:[0095],CX
0124  8B0E0E7C       MOV    CX,[7C0E]            ; po‡et rezervovan˜ch sektor– p©ed FAT
0128  2E890E9D00     MOV    CS:[009D],CX
012D  8B0E1C7C       MOV    CX,[7C1C]            ; po‡et skryt˜ch sektor–
0131  2E890E9700     MOV    CS:[0097],CX
0136  8B0E137C       MOV    CX,[7C13]            ; celkov˜ po‡et sektor– na m‚diu
013A  2E890EA700     MOV    CS:[00A7],CX
013F  803E267C29     CMP    [7C26],29            ; 29h test disku
0144  751E           JNZ    0164                 ;
0146  2EA3A500       MOV    CS:[00A5],AX         ; vy¨¨¡ slovo rel. ‡¡sla sektoru
014A  A11E7C         MOV    AX,[7C1E]            ; =0
014D  2EA39900       MOV    CS:[0099],AX
0151  83F900         CMP    CX,0000              ; po‡et sektor– na m‚diu
0154  750E           JNZ    0164
0156  A1207C         MOV    AX,[7C20]            ; =0
0159  2EA3A700       MOV    CS:[00A7],AX         ; celkov˜ po‡et sektor– na m‚diu
015D  A1227C         MOV    AX,[7C22]
0160  2EA3A900       MOV    CS:[00A9],AX
0164  FC             CLD
0165  33F6           XOR    SI,SI
0167  8BFE           MOV    DI,SI
0169  CD12           INT    12                   ; hl ¨en¡ o velikosti pamˆti
016B  B106           MOV    CL,06
016D  D3E0           SHL    AX,CL                ; AX*64=po‡et odstavc– pamˆti v syst‚mu
016F  B104           MOV    CL,04
0171  2E8B169B00     MOV    DX,CS:[009B]         ; d‚lka sektoru
0176  D3EA           SHR    DX,CL                ; po‡et odstavc– pro na‡ten¡ sektoru
0178  42             INC    DX                   ; zaokrouhlen¡
0179  2BC2           SUB    AX,DX
017B  2EA3B500       MOV    CS:[00B5],AX         ; segment pro ulo‘en¡ sektoru na konec pamˆti
017F  BADF04         MOV    DX,04DF              ; d‚lka zavadˆ‡e IO.SYS
0182  D3EA           SHR    DX,CL
0184  42             INC    DX                   ; po‡et segment– pro zavadˆ‡ IO.SYS
0185  2BC2           SUB    AX,DX                ; segment pro ulo‘en¡ zavadˆ‡e IO.SYS
0187  8EC0           MOV    ES,AX
0189  0E             PUSH   CS
018A  1F             POP    DS
018B  B9DF04         MOV    CX,04DF              ; d‚lka zavadˆ‡e IO.SYS
018E  F3A4           REP    MOVSB                ; p©enos zavadˆ‡e IO.SYS na konec pamˆti
0190  06             PUSH   ES                   ; segment zavadˆ‡e IO.SYS
0191  B89601         MOV    AX,0196              ; adresa pro pokra‡ov n¡ zavadˆ‡e IO.SYS
0194  50             PUSH   AX
0195  CB             RET    Far                  ; skok do kopie zavadˆ‡e na konci pamˆti

                                                 ; na t‚to adrese pokra‡uje zavadˆ‡
                                                 ; IO.SYS po p©enosu na konec pamˆti
0196  8CC8           MOV    AX,CS                ; aktu ln¡ segment programu
0198  8ED0           MOV    SS,AX                ; nastavej¡ segmentu z sobn¡ku
019A  BC8500         MOV    SP,0085              ; vlastn¡ z sobn¡k
019D  33C0           XOR    AX,AX
019F  8ED8           MOV    DS,AX                ; DS <- 0000h
01A1  A10B7C         MOV    AX,[7C0B]            ; d‚lka sektoru (bajt–)
01A4  33DB           XOR    BX,BX
01A6  8A1E0D7C       MOV    BL,[7C0D]            ; po‡et sektor– na blok
01AA  F7E3           MUL    BX                   ; v˜po‡et d‚lky bloku v bajtech
01AC  2EA38700       MOV    CS:[0087],AX         ; d‚lka bloku (bajt–)
01B0  2EC606AE0001   MOV    CS:[00AE],01
01B6  2E8B16A900     MOV    DX,CS:[00A9]         ; 0
01BB  2EA1A700       MOV    AX,CS:[00A7]         ; celkov˜ po‡et sektor– na m‚diu
01BF  2E2B069D00     SUB    AX,CS:[009D]         ; po‡et rezervovan˜ch sektor– p©ed FAT
01C4  83DA00         SBB    DX,0000
01C7  2E8B1E9500     MOV    BX,CS:[0095]         ; po‡et sektor– v jedn‚ FAT
01CC  D1E3           SHL    BX,1                 ; *2 - po‡et sektor– na obˆ tabulky FAT
01CE  2BC3           SUB    AX,BX                ; po‡ te‡n¡ sektor adres ©e
01D0  83DA00         SBB    DX,0000
01D3  8B1E117C       MOV    BX,[7C11]            ; max. po‡et polo‘ek z kl. adres ©e
01D7  B104           MOV    CL,04
01D9  D3EB           SHR    BX,CL                ; /16 = po‡et sektor– na adres ©
01DB  2BC3           SUB    AX,BX                ; po‡ te‡n¡ sektor dat
01DD  83DA00         SBB    DX,0000
01E0  33C9           XOR    CX,CX
01E2  8A0E0D7C       MOV    CL,[7C0D]            ; velikost bloku v sektorech
01E6  50             PUSH   AX                   ; po‡ te‡n¡ sektor dat
01E7  8BC2           MOV    AX,DX
01E9  33D2           XOR    DX,DX
01EB  F7F1           DIV    CX                   ; DX * velikost bloku
01ED  2EA38D00       MOV    CS:[008D],AX
01F1  58             POP    AX                   ; po‡ te‡n¡ sektor dat
01F2  F7F1           DIV    CX                   ; po‡ te‡n¡ blok dat
01F4  3DF60F         CMP    AX,0FF6
01F7  7206           JC     01FF
01F9  2EC606AE0004   MOV    CS:[00AE],04
01FF  B80300         MOV    AX,0003              ; po‡et sektor–
0202  2EF636B700     DIV    B/CS:[00B7]          ; /velikost bloku
0207  80FC00         CMP    AH,00
020A  7444           JZ     0250
020C  32E4           XOR    AH,AH
020E  50             PUSH   AX
020F  2E8B0EA300     MOV    CX,CS:[00A3]         ; ni‘¨¡ slovo rel. ‡¡sla sektoru
0214  2E890E8900     MOV    CS:[0089],CX         ; rel. ‡¡slo zav dˆn‚ho sektoru - LOW
0219  2E8B0EA500     MOV    CX,CS:[00A5]         ; vy¨¨¡ slovo rel. ‡¡sla sektoru
021E  2E890E8B00     MOV    CS:[008B],CX         ; rel. ‡¡slo zav dˆn‚ho sektoru - HIGH
0223  2EF626B700     MUL    B/CS:[00B7]          ; * velikost bloku v sektorech
0228  2E01068900     ADD    CS:[0089],AX         ; rel. ‡¡slo zav dˆn‚ho sektoru - LOW
022D  2E83168B0000   ADC    CS:[008B],0000       ; rel. ‡¡slo zav dˆn‚ho sektoru - HIGH
0233  58             POP    AX
0234  50             PUSH   AX
0235  BF0007         MOV    DI,0700
0238  2EF7268700     MUL    W/CS:[0087]          ; d‚lka bloku v bajtech
023D  03F8           ADD    DI,AX
023F  33C0           XOR    AX,AX
0241  8EC0           MOV    ES,AX                ; ES <- 0000h
0243  2EA0B700       MOV    AL,CS:[00B7]         ; velikost bloku v sektorech
0247  2EA39300       MOV    CS:[0093],AX
024B  E8AA00         CALL   02F8                 ; zaveden¡ dat z disku do pamˆti
024E  58             POP    AX
024F  40             INC    AX
0250  40             INC    AX
0251  2EA39F00       MOV    CS:[009F],AX
0255  1E             PUSH   DS
0256  2EA19F00       MOV    AX,CS:[009F]
025A  2D0100         SUB    AX,0001
025D  2EF7268700     MUL    W/CS:[0087]          ; d‚lka bloku v bajtech
0262  2DDF04         SUB    AX,04DF
0265  90             NOP
0266  8BC8           MOV    CX,AX
0268  B87000         MOV    AX,0070
026B  8ED8           MOV    DS,AX                ; DS <- 0070h
026D  8EC0           MOV    ES,AX                ; ES <- 0070h
026F  BEDF04         MOV    SI,04DF              ; data ze zavadˆ‡e IO.SYS
0272  BF0000         MOV    DI,0000
0275  F3A4           REP    MOVSB                ; p©enos dat
0277  2E893EA100     MOV    CS:[00A1],DI
027C  1F             POP    DS

027D  32E4         * XOR    AH,AH
027F  2EA0B700       MOV    AL,CS:[00B7]         ; velikost bloku v sektorech
0283  2EA39300       MOV    CS:[0093],AX
0287  2EFF369300     PUSH   CS:[0093]
028C  E81801         CALL   03A7                 ;
028F  2E8F069300     POP    CS:[0093]
0294  2EA39F00       MOV    CS:[009F],AX
0298  2E803EB000FF   CMP    CS:[00B0],FF
029E  7440           JZ     02E0                 ; opakovan˜ start zavadˆ‡e IO.SYS
02A0  33D2           XOR    DX,DX
02A2  2D0200         SUB    AX,0002
02A5  32ED           XOR    CH,CH
02A7  2E8A0EB700     MOV    CL,CS:[00B7]         ; velikost bloku v sektorech
02AC  F7E1           MUL    CX
02AE  2E0306A300     ADD    AX,CS:[00A3]         ; ni‘¨¡ slovo rel. ‡¡sla sektoru
02B3  2E1316A500     ADC    DX,CS:[00A5]         ; vy¨¨¡ slovo rel. ‡¡sla sektoru
02B8  2EA38900       MOV    CS:[0089],AX         ; rel. ‡¡slo zav dˆn‚ho sektoru - LOW
02BC  2E89168B00     MOV    CS:[008B],DX         ; rel. ‡¡slo zav dˆn‚ho sektoru - HIGH
02C1  2E8B3EA100     MOV    DI,CS:[00A1]
02C6  2EFF369300     PUSH   CS:[0093]
02CB  B87000         MOV    AX,0070
02CE  8EC0           MOV    ES,AX
02D0  E82500         CALL   02F8                 ; zaveden¡ dat z disku do pamˆti
02D3  58             POP    AX
02D4  2EF7269B00     MUL    W/CS:[009B]          ; d‚lka sektoru (bajt–)
02D9  2E0106A100     ADD    CS:[00A1],AX
02DE  EB9D           JMP    027D
                                                 ; opakovan˜ start zavadˆ‡e IO.SYS
02E0  2E8A2EAF00   * MOV    CH,CS:[00AF]         ; typ disku (popisova‡ m‚dia)
02E5  2E8A16AD00     MOV    DL,CS:[00AD]         ; ‡¡slo aktivn¡ho disku
02EA  2E8B1EA300     MOV    BX,CS:[00A3]         ; ni‘¨¡ slovo rel. ‡¡sla sektoru
02EF  2EA1A500       MOV    AX,CS:[00A5]         ; vy¨¨¡ slovo rel. ‡¡sla sektoru
02F3  EA00007000     JMP    0070:0000            ; skok do zavadˆ‡e IO.SYS

                                                 ; zaveden¡ dat z disku do pamˆti
02F8  B90500       * MOV    CX,0005              ; po‡et pokus– o zaveden¡ syst‚mu
02FB  51             PUSH   CX                   ; ‡¡ta‡ pokus–
02FC  2EA18900       MOV    AX,CS:[0089]         ; rel. ‡¡slo zav dˆn‚ho sektoru - LOW
0300  2E8B168B00     MOV    DX,CS:[008B]         ; rel. ‡¡slo zav dˆn‚ho sektoru - HIGH
0305  50             PUSH   AX
0306  8BC2           MOV    AX,DX
0308  33D2           XOR    DX,DX
030A  2EF736AB00     DIV    W/CS:[00AB]          ; po‡et sektor– na stopu
030F  2EA38D00       MOV    CS:[008D],AX
0313  58             POP    AX
0314  2EF736AB00     DIV    W/CS:[00AB]          ; po‡et sektor– na stopu
0319  2E8B1EAB00     MOV    BX,CS:[00AB]         ; po‡et sektor– na stopu
031E  2BDA           SUB    BX,DX
0320  8BF3           MOV    SI,BX
0322  2E39369300     CMP    CS:[0093],SI
0327  7305           JNC    032E
0329  2E8B369300     MOV    SI,CS:[0093]
032E  FEC2           INC    DL
0330  8ADA           MOV    BL,DL
0332  2E8B168D00     MOV    DX,CS:[008D]
0337  50             PUSH   AX
0338  8BC2           MOV    AX,DX
033A  33D2           XOR    DX,DX
033C  2EF7368500     DIV    W/CS:[0085]          ; po‡et hlav na disk
0341  2EA38D00       MOV    CS:[008D],AX
0345  58             POP    AX
0346  2EF7368500     DIV    W/CS:[0085]          ; /o‡et hlav na disk
034B  8AF2           MOV    DH,DL                ; ‡¡slo hlavy
034D  B106           MOV    CL,06
034F  D2E4           SHL    AH,CL
0351  0AE3           OR     AH,BL
0353  8AE8           MOV    CH,AL                ; ‡¡slo v lce
0355  8ACC           MOV    CL,AH                ; po‡ te‡n¡ ‡¡slo sektoru
0357  8BDF           MOV    BX,DI                ; adresa pro ‡ten¡ sektoru
0359  2E8A16AD00     MOV    DL,CS:[00AD]         ; ‡¡slo aktivn¡ho disku
035E  8BC6           MOV    AX,SI                ; po‡et sektor– ke ‡ten¡ ze stopy
0360  B402           MOV    AH,02                ; funkce ‡ten¡ sektor–
0362  50             PUSH   AX                   ; po‡et sektor– k na‡ten¡
0363  57             PUSH   DI                   ; ukl dac¡ adresa pro na‡ten¡ sektoru
0364  CD13           INT    13                   ; ‡ten¡ sektor– do pamˆti
0366  5F             POP    DI                   ; ukl dac¡ adresa pro na‡ten¡ sektoru
0367  58             POP    AX                   ; po‡et sektor– k na‡ten¡
0368  59             POP    CX
0369  7318           JNC    0383                 ; ‡ten¡ probˆhlo OK
036B  8BDF           MOV    BX,DI                ; ukl dac¡ adresa pro na‡ten¡ sektoru
036D  32E4           XOR    AH,AH                ; funkce resetov n¡ disku
036F  51             PUSH   CX                   ; ‡¡ta‡ pokus– o zaveden¡ syst‚mu
0370  2E8A16AD00     MOV    DL,CS:[00AD]         ; ‡¡slo aktivn¡ho disku
0375  57             PUSH   DI                   ; ukl dac¡ adresa pro na‡ten¡ sektoru
0376  CD13           INT    13                   ; reset disku
0378  5F             POP    DI                   ; ukl dac¡ adresa pro na‡ten¡ sektoru
0379  59             POP    CX                   ; ‡¡ta‡ pokus– o zaveden¡ syst‚mu
037A  49             DEC    CX                   ; sn¡‘en¡ ‡¡ta‡e pokus–
037B  7403           JZ     0380                 ; chyba
037D  E97BFF         JMP    02FB                 ; dal¨¡ pokus o na‡ten¡ syst‚mu
0380  E9E800       * JMP    046B
                                                 ; zavedena data z jedn‚ stopy
0383  32E4           XOR    AH,AH
0385  2E29069300     SUB    CS:[0093],AX         ; sn¡‘en¡ ‡¡ta‡e sektor–
038A  741A           JZ     03A6                 ; je konec zav dˆn¡
038C  2E01068900     ADD    CS:[0089],AX         ; zv˜¨en¡ uakzatele sektor–
0391  2E83168B0000   ADC    CS:[008B],0000       ; rel. ‡¡slo zav dˆn‚ho sektoru - HIGH
0397  33DB           XOR    BX,BX
0399  8AD8           MOV    BL,AL
039B  2EA19B00       MOV    AX,CS:[009B]         ; d‚lka sektoru (bajt–)
039F  F7E3           MUL    BX
03A1  03F8           ADD    DI,AX
03A3  E952FF         JMP    02F8                 ; zav dˆn¡ z dal¨¡ stopy
03A6  C3             RET


03A7  06           * PUSH   ES
03A8  2EA1B500       MOV    AX,CS:[00B5]         ; segment pro ulo‘en¡ sektoru na konec pamˆti
03AC  8EC0           MOV    ES,AX
03AE  2EC606B000FF   MOV    CS:[00B0],FF
03B4  2EA19F00       MOV    AX,CS:[009F]
03B8  2E803EAE0001   CMP    CS:[00AE],01
03BE  7540           JNZ    0400
03C0  8BF0           MOV    SI,AX
03C2  D1E8           SHR    AX,1
03C4  03F0           ADD    SI,AX
03C6  E84E00         CALL   0417
03C9  7519           JNZ    03E4
03CB  268A07         MOV    AL,ES:[BX]
03CE  2EA28F00       MOV    CS:[008F],AL
03D2  46             INC    SI
03D3  E84100         CALL   0417
03D6  26A00000       MOV    AL,ES:[0000]
03DA  2EA29000       MOV    CS:[0090],AL
03DE  2EA18F00       MOV    AX,CS:[008F]
03E2  EB03           JMP    03E7
03E4  268B07         MOV    AX,ES:[BX]
03E7  2EF7069F000100 TEST   CS:[009F],0001
03EE  7505           JNZ    03F5
03F0  25FF0F         AND    AX,0FFF
03F3  EB04           JMP    03F9
03F5  B104           MOV    CL,04
03F7  D3E8           SHR    AX,CL
03F9  3DF80F         CMP    AX,0FF8
03FC  7317           JNC    0415
03FE  EB0F           JMP    040F
0400  D1E0           SHL    AX,1
0402  8BF0           MOV    SI,AX
0404  E81000         CALL   0417
0407  268B07         MOV    AX,ES:[BX]
040A  3DF8FF         CMP    AX,FFF8
040D  7306           JNC    0415
040F  2EC606B00000   MOV    CS:[00B0],00
0415  07             POP    ES
0416  C3             RET

0417  50             PUSH   AX
0418  56             PUSH   SI
0419  57             PUSH   DI
041A  52             PUSH   DX
041B  33D2           XOR    DX,DX
041D  8BC6           MOV    AX,SI
041F  2E8B0E9B00     MOV    CX,CS:[009B]         ; d‚lka sektoru (bajt–)
0424  F7F1           DIV    CX
0426  2E3B069100     CMP    AX,CS:[0091]
042B  7434           JZ     0461
042D  2EA39100       MOV    CS:[0091],AX
0431  52             PUSH   DX
0432  33D2           XOR    DX,DX
0434  2E03069700     ADD    AX,CS:[0097]         ; po‡et skryt˜ch sektor–
0439  2E13169900     ADC    DX,CS:[0099]
043E  2E03069D00     ADD    AX,CS:[009D]         ; po‡et rezervovan˜ch sektor– p©ed FAT
0443  83D200         ADC    DX,0000
0446  2EA38900       MOV    CS:[0089],AX         ; rel. ‡¡slo zav dˆn‚ho sektoru - LOW
044A  2E89168B00     MOV    CS:[008B],DX         ; rel. ‡¡slo zav dˆn‚ho sektoru - HIGH
044F  2EC70693000100 MOV    CS:[0093],0001
0456  33FF           XOR    DI,DI
0458  E89DFE         CALL   02F8                 ; zaveden¡ dat z disku do pamˆti
045B  5A             POP    DX
045C  2E8B0E9B00     MOV    CX,CS:[009B]         ; d‚lka sektoru (bajt–)
0461  49             DEC    CX
0462  3BD1           CMP    DX,CX
0464  8BDA           MOV    BX,DX
0466  5A             POP    DX
0467  5F             POP    DI
0468  5E             POP    SI
0469  58             POP    AX
046A  C3             RET
                                                 ; chyba p©i na‡ten¡ syst‚mu z diskety
046B  0E             PUSH   CS
046C  1F             POP    DS
046D  BE9704         MOV    SI,0497              ; text chybov‚ho hl ¨en¡
0470  E81600         CALL   0489                 ; zobrazen¡ chybov‚ho hl ¨en¡
0473  32E4           XOR    AH,AH
0475  CD16           INT    16                   ; ‡ek n¡ na p©¡chod znaku z konzoly
0477  33DB           XOR    BX,BX
0479  8EDB           MOV    DS,BX                ; DS <- 0000h
047B  C41EB100       LES    BX,[00B1]            ; syst‚mov˜ ukazatel disketov˜ch parametr–
047F  BE7800         MOV    SI,0078              ; ukazatel disketov˜ch parametr–
0482  891C           MOV    [SI],BX              ; n vrat ukazatele disketov˜ch parametr–
0484  8C4402         MOV    [SI+02],ES
0487  CD19           INT    19                   ; skok do zavadˆ‡e opera‡n¡ho syst‚mu

                                                 ; tisk chybov‚ho hl ¨en¡
0489  AC           * LODSB                       ; znak k tisku
048A  0AC0           OR     AL,AL
048C  7408           JZ     0496                 ; je konec textu
048E  B40E           MOV    AH,0E                ; funkce v˜stupu znaku na displej
0490  B307           MOV    BL,07                ; barva pro zobrazen¡ znaku
0492  CD10           INT    10                   ; z pis znaku v m¢du TTY
0494  EBF3           JMP    0489                 ; dal¨¡ znak k v˜stupu
0496  C3           * RET

0497   0D 0A 4E 6F 6E 2D 53 79 73 74 65 6D 20 64 69 73   ..Non-System dis
04A7   6B 20 6F 72 20 64 69 73 6B 20 65 72 72 6F 72 0D   k or disk error.
04B7   0A 52 65 70 6C 61 63 65 20 61 6E 64 20 70 72 65   .Replace and pre
04C7   73 73 20 61 6E 79 20 6B 65 79 20 77 68 65 6E 20   ss any key when
04D7   72 65 61 64 79 0D 0A 00                           ready...

04df   E9 17 32 18 25 1F 97 0A                           ..2.%...
04E7   47 0B E0 06 3E 0E DC 06 F7 06 F7 06 2C 0E 23 0E   G...>.......,.#.
04F7   F7 06 F7 06 E0 06 34 21 3D 21 E9 0D F7 06 F7 06   ......4!=!......
0507   F7 06 1F 16 F7 06 F7 06 F7 06 A8 1A CC 1A 00 0A   ................
0517   F7 06 F7 06 F7 06 E0 06 24 07 6C 07 F7 06 D0 07   ........$.l.....



0527   E8 07 E8 07 F7 06 00 0A F7 06 F7 06 F7 06 E0 06   ................
0537   FC 07 27 08 F7 06 65 08 6E 08 6E 08 4A 08 00 09   ..'...e.n.n.J...
0547   F7 06 F7 06 F7 06 E0 06 0E 0A DC 06 F7 06 F7 06   ................
0557   6F 09 6F 09 00 18 F7 06 F7 06 F7 06 E0 06 EE 06   o.o.............
0567   DC 06 F7 06 F7 06 92 08 92 08 B4 08 F7 06 F7 06   ................
0577   F7 06 F7 06 F7 06 DD 08 F7 06 F7 06 23 09 F7 06   ............#...
0587   F7 06 F7 06 E0 06 E0 06 35 39 38 36 32 31 00 00   ........598621..
0597   00 00 00 00 00 00 00 00 00 00 00 00 00 00 00 00   ................
05A7   00 00 00 00 00 00 00 00 00 00 00 00 00 00 00 00   ................
05B7   00 00 00 00 00 00 00 00 00 00 00 00 00 00 00 00   ................
05C7   00 00 00 00 00 00 00 00 00 00 00 00 00 00 00 00   ................
05D7   00 00 00 00 00 00 00 00 00 00 00 00 00 00 00 00   ................
05E7   00 00 00 00 00 00 00 00 00 00 00 00 00 00 00 00   ................
05F7   00 00 00 00 00 00 00 00 00 00 00 00 00 00 00 00   ................
