CONTEXT   0 168   0   3  72



; 2. ‡ st IO.SYS je adresov na od segmentu 0458h, startuje se na adrese 07f2h


0000  00 00 00 00 00 00 00 00-00 00 00 00 08 00 48 00  ..............H.
0010  48 00 00 00 00 00 50 06-B8 00 F0 8E C0 26 80 3E  H.....P.8.p.@&.>

000c  0800           or     [bx+si],al
000e  48             dec    ax
000f  004800         add    [bx+si+00],cl
0012  0000           add    [bx+si],al
0014  0000           add    [bx+si],al
0016  50             push   ax
0017  06             push   es
0018  b800f0         mov    ax,f000
001b  8ec0           mov    es,ax
001d  26803efefff9   cmp    byte ptr es:[fffe],f9
0023  07             pop    es
0024  750c           jnz    0032
0026  e462           in     al,62                         ;'b'
0028  a880           test   al,80
002a  7406           jz     0032
002c  58             pop    ax
002d  2eff2e1200     jmp    far cs:[0012]
0032  55             push   bp
0033  06             push   es
0034  2e8e060a00     mov    es,cs:[000a]
0039  2e8b2e1000     mov    bp,cs:[0010]
003e  b001           mov    al,01
0040  26864600       xchg   al,es:[bp+00]
0044  3c00           cmp    al,00
0046  7542           jnz    008a
0048  2e832e100008   sub    word ptr cs:[0010],+08
004e  26896602       mov    es:[bp+02],sp
0052  268c5604       mov    es:[bp+04],ss
0056  8bc5           mov    ax,bp
0058  268b6e06       mov    bp,es:[bp+06]
005c  26394600       cmp    es:[bp+00],ax
0060  7535           jnz    0097
0062  8cc0           mov    ax,es
0064  8ed0           mov    ss,ax
0066  8be5           mov    sp,bp
0068  9c             pushf
0069  2eff1e1200     call   far cs:[0012]
006e  8bec           mov    bp,sp
0070  268b6e00       mov    bp,es:[bp+00]
0074  268e5604       mov    ss,es:[bp+04]
0078  268b6602       mov    sp,es:[bp+02]
007c  26c6460000     mov    byte ptr es:[bp+00],00
0081  2e892e1000     mov    cs:[0010],bp
0086  07             pop    es
0087  5d             pop    bp
0088  58             pop    ax
0089  cf             iret
008a  3c01           cmp    al,01
008c  7404           jz     0092
008e  26864600       xchg   al,es:[bp+00]
0092  e8d506         call   076a
0095  ebb7           jmp    004e
0097  2e3b2e0c00     cmp    bp,cs:[000c]
009c  72f4           jb     0092
009e  8be8           mov    bp,ax
00a0  26c6460003     mov    byte ptr es:[bp+00],03
00a5  ebeb           jmp    0092
00a7  0000           add    [bx+si],al
00a9  0000           add    [bx+si],al
00ab  50             push   ax
00ac  55             push   bp
00ad  06             push   es
00ae  2e8e060a00     mov    es,cs:[000a]
00b3  2e8b2e1000     mov    bp,cs:[0010]
00b8  b001           mov    al,01
00ba  26864600       xchg   al,es:[bp+00]
00be  3c00           cmp    al,00
00c0  7542           jnz    0104
00c2  2e832e100008   sub    word ptr cs:[0010],+08
00c8  26896602       mov    es:[bp+02],sp
00cc  268c5604       mov    es:[bp+04],ss
00d0  8bc5           mov    ax,bp
00d2  268b6e06       mov    bp,es:[bp+06]
00d6  26394600       cmp    es:[bp+00],ax
00da  7535           jnz    0111
00dc  8cc0           mov    ax,es
00de  8ed0           mov    ss,ax
00e0  8be5           mov    sp,bp
00e2  9c             pushf
00e3  2eff1ea700     call   far cs:[00a7]
00e8  8bec           mov    bp,sp
00ea  268b6e00       mov    bp,es:[bp+00]
00ee  268e5604       mov    ss,es:[bp+04]
00f2  268b6602       mov    sp,es:[bp+02]
00f6  26c6460000     mov    byte ptr es:[bp+00],00
00fb  2e892e1000     mov    cs:[0010],bp
0100  07             pop    es
0101  5d             pop    bp
0102  58             pop    ax
0103  cf             iret
0104  3c01           cmp    al,01
0106  7404           jz     010c
0108  26864600       xchg   al,es:[bp+00]
010c  e85b06         call   076a
010f  ebb7           jmp    00c8
0111  2e3b2e0c00     cmp    bp,cs:[000c]
0116  72f4           jb     010c
0118  8be8           mov    bp,ax
011a  26c6460003     mov    byte ptr es:[bp+00],03
011f  ebeb           jmp    010c
0121  0000           add    [bx+si],al
0123  0000           add    [bx+si],al
0125  eb03           jmp    012a
0127  90             nop
0128  90             nop
0129  005055         add    [bx+si+55],dl
012c  06             push   es
012d  2e8e060a00     mov    es,cs:[000a]
0132  2e8b2e1000     mov    bp,cs:[0010]
0137  b001           mov    al,01
0139  26864600       xchg   al,es:[bp+00]
013d  3c00           cmp    al,00
013f  7542           jnz    0183
0141  2e832e100008   sub    word ptr cs:[0010],+08
0147  26896602       mov    es:[bp+02],sp
014b  268c5604       mov    es:[bp+04],ss
014f  8bc5           mov    ax,bp
0151  268b6e06       mov    bp,es:[bp+06]
0155  26394600       cmp    es:[bp+00],ax
0159  7535           jnz    0190
015b  8cc0           mov    ax,es
015d  8ed0           mov    ss,ax
015f  8be5           mov    sp,bp
0161  9c             pushf
0162  2eff1e2101     call   far cs:[0121]
0167  8bec           mov    bp,sp
0169  268b6e00       mov    bp,es:[bp+00]
016d  268e5604       mov    ss,es:[bp+04]
0171  268b6602       mov    sp,es:[bp+02]
0175  26c6460000     mov    byte ptr es:[bp+00],00
017a  2e892e1000     mov    cs:[0010],bp
017f  07             pop    es
0180  5d             pop    bp
0181  58             pop    ax
0182  cf             iret
0183  3c01           cmp    al,01
0185  7404           jz     018b
0187  26864600       xchg   al,es:[bp+00]
018b  e8dc05         call   076a
018e  ebb7           jmp    0147
0190  2e3b2e0c00     cmp    bp,cs:[000c]
0195  72f4           jb     018b
0197  8be8           mov    bp,ax
0199  26c6460003     mov    byte ptr es:[bp+00],03
019e  ebeb           jmp    018b
01a0  0000           add    [bx+si],al
01a2  0000           add    [bx+si],al
01a4  50             push   ax
01a5  55             push   bp
01a6  06             push   es
01a7  2e8e060a00     mov    es,cs:[000a]
01ac  2e8b2e1000     mov    bp,cs:[0010]
01b1  b001           mov    al,01
01b3  26864600       xchg   al,es:[bp+00]
01b7  3c00           cmp    al,00
01b9  7542           jnz    01fd
01bb  2e832e100008   sub    word ptr cs:[0010],+08
01c1  26896602       mov    es:[bp+02],sp
01c5  268c5604       mov    es:[bp+04],ss
01c9  8bc5           mov    ax,bp
01cb  268b6e06       mov    bp,es:[bp+06]
01cf  26394600       cmp    es:[bp+00],ax
01d3  7535           jnz    020a
01d5  8cc0           mov    ax,es
01d7  8ed0           mov    ss,ax
01d9  8be5           mov    sp,bp
01db  9c             pushf
01dc  2eff1ea001     call   far cs:[01a0]
01e1  8bec           mov    bp,sp
01e3  268b6e00       mov    bp,es:[bp+00]
01e7  268e5604       mov    ss,es:[bp+04]
01eb  268b6602       mov    sp,es:[bp+02]
01ef  26c6460000     mov    byte ptr es:[bp+00],00
01f4  2e892e1000     mov    cs:[0010],bp
01f9  07             pop    es
01fa  5d             pop    bp
01fb  58             pop    ax
01fc  cf             iret
01fd  3c01           cmp    al,01
01ff  7404           jz     0205
0201  26864600       xchg   al,es:[bp+00]
0205  e86205         call   076a
0208  ebb7           jmp    01c1
020a  2e3b2e0c00     cmp    bp,cs:[000c]
020f  72f4           jb     0205
0211  8be8           mov    bp,ax
0213  26c6460003     mov    byte ptr es:[bp+00],03
0218  ebeb           jmp    0205
021a  eb10           jmp    022c
021c  0000           add    [bx+si],al
021e  0000           add    [bx+si],al
0220  4b             dec    bx
0221  42             inc    dx
0222  00eb           add    bl,ch
0224  5f             pop    di
0225  0000           add    [bx+si],al
0227  0000           add    [bx+si],al
0229  0000           add    [bx+si],al
022b  005055         add    [bx+si+55],dl
022e  06             push   es
022f  2e8e060a00     mov    es,cs:[000a]
0234  2e8b2e1000     mov    bp,cs:[0010]
0239  b001           mov    al,01
023b  26864600       xchg   al,es:[bp+00]
023f  3c00           cmp    al,00
0241  7542           jnz    0285
0243  2e832e100008   sub    word ptr cs:[0010],+08
0249  26896602       mov    es:[bp+02],sp
024d  268c5604       mov    es:[bp+04],ss
0251  8bc5           mov    ax,bp
0253  268b6e06       mov    bp,es:[bp+06]
0257  26394600       cmp    es:[bp+00],ax
025b  7535           jnz    0292
025d  8cc0           mov    ax,es
025f  8ed0           mov    ss,ax
0261  8be5           mov    sp,bp
0263  9c             pushf
0264  2eff1e1c02     call   far cs:[021c]
0269  8bec           mov    bp,sp
026b  268b6e00       mov    bp,es:[bp+00]
026f  268e5604       mov    ss,es:[bp+04]
0273  268b6602       mov    sp,es:[bp+02]
0277  26c6460000     mov    byte ptr es:[bp+00],00
027c  2e892e1000     mov    cs:[0010],bp
0281  07             pop    es
0282  5d             pop    bp
0283  58             pop    ax
0284  cf             iret
0285  3c01           cmp    al,01
0287  7404           jz     028d
0289  26864600       xchg   al,es:[bp+00]
028d  e8da04         call   076a
0290  ebb7           jmp    0249
0292  2e3b2e0c00     cmp    bp,cs:[000c]
0297  72f4           jb     028d
0299  8be8           mov    bp,ax
029b  26c6460003     mov    byte ptr es:[bp+00],03
02a0  ebeb           jmp    028d
02a2  eb10           jmp    02b4
02a4  0000           add    [bx+si],al
02a6  0000           add    [bx+si],al
02a8  4b             dec    bx
02a9  42             inc    dx
02aa  00eb           add    bl,ch
02ac  5f             pop    di
02ad  0000           add    [bx+si],al
02af  0000           add    [bx+si],al
02b1  0000           add    [bx+si],al
02b3  005055         add    [bx+si+55],dl
02b6  06             push   es
02b7  2e8e060a00     mov    es,cs:[000a]
02bc  2e8b2e1000     mov    bp,cs:[0010]
02c1  b001           mov    al,01
02c3  26864600       xchg   al,es:[bp+00]
02c7  3c00           cmp    al,00
02c9  7542           jnz    030d
02cb  2e832e100008   sub    word ptr cs:[0010],+08
02d1  26896602       mov    es:[bp+02],sp
02d5  268c5604       mov    es:[bp+04],ss
02d9  8bc5           mov    ax,bp
02db  268b6e06       mov    bp,es:[bp+06]
02df  26394600       cmp    es:[bp+00],ax
02e3  7535           jnz    031a
02e5  8cc0           mov    ax,es
02e7  8ed0           mov    ss,ax
02e9  8be5           mov    sp,bp
02eb  9c             pushf
02ec  2eff1ea402     call   far cs:[02a4]
02f1  8bec           mov    bp,sp
02f3  268b6e00       mov    bp,es:[bp+00]
02f7  268e5604       mov    ss,es:[bp+04]
02fb  268b6602       mov    sp,es:[bp+02]
02ff  26c6460000     mov    byte ptr es:[bp+00],00
0304  2e892e1000     mov    cs:[0010],bp
0309  07             pop    es
030a  5d             pop    bp
030b  58             pop    ax
030c  cf             iret
030d  3c01           cmp    al,01
030f  7404           jz     0315
0311  26864600       xchg   al,es:[bp+00]
0315  e85204         call   076a
0318  ebb7           jmp    02d1
031a  2e3b2e0c00     cmp    bp,cs:[000c]
031f  72f4           jb     0315
0321  8be8           mov    bp,ax
0323  26c6460003     mov    byte ptr es:[bp+00],03
0328  ebeb           jmp    0315
032a  eb10           jmp    033c
032c  0000           add    [bx+si],al
032e  0000           add    [bx+si],al
0330  4b             dec    bx
0331  42             inc    dx
0332  00eb           add    bl,ch
0334  5f             pop    di
0335  0000           add    [bx+si],al
0337  0000           add    [bx+si],al
0339  0000           add    [bx+si],al
033b  005055         add    [bx+si+55],dl
033e  06             push   es
033f  2e8e060a00     mov    es,cs:[000a]
0344  2e8b2e1000     mov    bp,cs:[0010]
0349  b001           mov    al,01
034b  26864600       xchg   al,es:[bp+00]
034f  3c00           cmp    al,00
0351  7542           jnz    0395
0353  2e832e100008   sub    word ptr cs:[0010],+08
0359  26896602       mov    es:[bp+02],sp
035d  268c5604       mov    es:[bp+04],ss
0361  8bc5           mov    ax,bp
0363  268b6e06       mov    bp,es:[bp+06]
0367  26394600       cmp    es:[bp+00],ax
036b  7535           jnz    03a2
036d  8cc0           mov    ax,es
036f  8ed0           mov    ss,ax
0371  8be5           mov    sp,bp
0373  9c             pushf
0374  2eff1e2c03     call   far cs:[032c]
0379  8bec           mov    bp,sp
037b  268b6e00       mov    bp,es:[bp+00]
037f  268e5604       mov    ss,es:[bp+04]
0383  268b6602       mov    sp,es:[bp+02]
0387  26c6460000     mov    byte ptr es:[bp+00],00
038c  2e892e1000     mov    cs:[0010],bp
0391  07             pop    es
0392  5d             pop    bp
0393  58             pop    ax
0394  cf             iret
0395  3c01           cmp    al,01
0397  7404           jz     039d
0399  26864600       xchg   al,es:[bp+00]
039d  e8ca03         call   076a
03a0  ebb7           jmp    0359
03a2  2e3b2e0c00     cmp    bp,cs:[000c]
03a7  72f4           jb     039d
03a9  8be8           mov    bp,ax
03ab  26c6460003     mov    byte ptr es:[bp+00],03
03b0  ebeb           jmp    039d
03b2  eb10           jmp    03c4
03b4  0000           add    [bx+si],al
03b6  0000           add    [bx+si],al
03b8  4b             dec    bx
03b9  42             inc    dx
03ba  00eb           add    bl,ch
03bc  5f             pop    di
03bd  0000           add    [bx+si],al
03bf  0000           add    [bx+si],al
03c1  0000           add    [bx+si],al
03c3  005055         add    [bx+si+55],dl
03c6  06             push   es
03c7  2e8e060a00     mov    es,cs:[000a]
03cc  2e8b2e1000     mov    bp,cs:[0010]
03d1  b001           mov    al,01
03d3  26864600       xchg   al,es:[bp+00]
03d7  3c00           cmp    al,00
03d9  7542           jnz    041d
03db  2e832e100008   sub    word ptr cs:[0010],+08
03e1  26896602       mov    es:[bp+02],sp
03e5  268c5604       mov    es:[bp+04],ss
03e9  8bc5           mov    ax,bp
03eb  268b6e06       mov    bp,es:[bp+06]
03ef  26394600       cmp    es:[bp+00],ax
03f3  7535           jnz    042a
03f5  8cc0           mov    ax,es
03f7  8ed0           mov    ss,ax
03f9  8be5           mov    sp,bp
03fb  9c             pushf
03fc  2eff1eb403     call   far cs:[03b4]
0401  8bec           mov    bp,sp
0403  268b6e00       mov    bp,es:[bp+00]
0407  268e5604       mov    ss,es:[bp+04]
040b  268b6602       mov    sp,es:[bp+02]
040f  26c6460000     mov    byte ptr es:[bp+00],00
0414  2e892e1000     mov    cs:[0010],bp
0419  07             pop    es
041a  5d             pop    bp
041b  58             pop    ax
041c  cf             iret
041d  3c01           cmp    al,01
041f  7404           jz     0425
0421  26864600       xchg   al,es:[bp+00]
0425  e84203         call   076a
0428  ebb7           jmp    03e1
042a  2e3b2e0c00     cmp    bp,cs:[000c]
042f  72f4           jb     0425
0431  8be8           mov    bp,ax
0433  26c6460003     mov    byte ptr es:[bp+00],03
0438  ebeb           jmp    0425
043a  eb10           jmp    044c
043c  0000           add    [bx+si],al
043e  0000           add    [bx+si],al
0440  4b             dec    bx
0441  42             inc    dx
0442  00eb           add    bl,ch
0444  5f             pop    di
0445  0000           add    [bx+si],al
0447  0000           add    [bx+si],al
0449  0000           add    [bx+si],al
044b  005055         add    [bx+si+55],dl
044e  06             push   es
044f  2e8e060a00     mov    es,cs:[000a]
0454  2e8b2e1000     mov    bp,cs:[0010]
0459  b001           mov    al,01
045b  26864600       xchg   al,es:[bp+00]
045f  3c00           cmp    al,00
0461  7542           jnz    04a5
0463  2e832e100008   sub    word ptr cs:[0010],+08
0469  26896602       mov    es:[bp+02],sp
046d  268c5604       mov    es:[bp+04],ss
0471  8bc5           mov    ax,bp
0473  268b6e06       mov    bp,es:[bp+06]
0477  26394600       cmp    es:[bp+00],ax
047b  7535           jnz    04b2
047d  8cc0           mov    ax,es
047f  8ed0           mov    ss,ax
0481  8be5           mov    sp,bp
0483  9c             pushf
0484  2eff1e3c04     call   far cs:[043c]
0489  8bec           mov    bp,sp
048b  268b6e00       mov    bp,es:[bp+00]
048f  268e5604       mov    ss,es:[bp+04]
0493  268b6602       mov    sp,es:[bp+02]
0497  26c6460000     mov    byte ptr es:[bp+00],00
049c  2e892e1000     mov    cs:[0010],bp
04a1  07             pop    es
04a2  5d             pop    bp
04a3  58             pop    ax
04a4  cf             iret
04a5  3c01           cmp    al,01
04a7  7404           jz     04ad
04a9  26864600       xchg   al,es:[bp+00]
04ad  e8ba02         call   076a
04b0  ebb7           jmp    0469
04b2  2e3b2e0c00     cmp    bp,cs:[000c]
04b7  72f4           jb     04ad
04b9  8be8           mov    bp,ax
04bb  26c6460003     mov    byte ptr es:[bp+00],03
04c0  ebeb           jmp    04ad
04c2  eb10           jmp    04d4
04c4  0000           add    [bx+si],al
04c6  0000           add    [bx+si],al
04c8  4b             dec    bx
04c9  42             inc    dx
04ca  00eb           add    bl,ch
04cc  5f             pop    di
04cd  0000           add    [bx+si],al
04cf  0000           add    [bx+si],al
04d1  0000           add    [bx+si],al
04d3  005055         add    [bx+si+55],dl
04d6  06             push   es
04d7  2e8e060a00     mov    es,cs:[000a]
04dc  2e8b2e1000     mov    bp,cs:[0010]
04e1  b001           mov    al,01
04e3  26864600       xchg   al,es:[bp+00]
04e7  3c00           cmp    al,00
04e9  7542           jnz    052d
04eb  2e832e100008   sub    word ptr cs:[0010],+08
04f1  26896602       mov    es:[bp+02],sp
04f5  268c5604       mov    es:[bp+04],ss
04f9  8bc5           mov    ax,bp
04fb  268b6e06       mov    bp,es:[bp+06]
04ff  26394600       cmp    es:[bp+00],ax
0503  7535           jnz    053a
0505  8cc0           mov    ax,es
0507  8ed0           mov    ss,ax
0509  8be5           mov    sp,bp
050b  9c             pushf
050c  2eff1ec404     call   far cs:[04c4]
0511  8bec           mov    bp,sp
0513  268b6e00       mov    bp,es:[bp+00]
0517  268e5604       mov    ss,es:[bp+04]
051b  268b6602       mov    sp,es:[bp+02]
051f  26c6460000     mov    byte ptr es:[bp+00],00
0524  2e892e1000     mov    cs:[0010],bp
0529  07             pop    es
052a  5d             pop    bp
052b  58             pop    ax
052c  cf             iret
052d  3c01           cmp    al,01
052f  7404           jz     0535
0531  26864600       xchg   al,es:[bp+00]
0535  e83202         call   076a
0538  ebb7           jmp    04f1
053a  2e3b2e0c00     cmp    bp,cs:[000c]
053f  72f4           jb     0535
0541  8be8           mov    bp,ax


0542                                             ; obsluha "BUFFERS"

0543  26c6460003     mov    byte ptr es:[bp+00],03
0548  ebeb           jmp    0535
054a  eb10           jmp    055c
054c  0000           add    [bx+si],al
054e  0000           add    [bx+si],al
0550  4b             dec    bx
0551  42             inc    dx
0552  00eb           add    bl,ch
0554  5f             pop    di
0555  0000           add    [bx+si],al
0557  0000           add    [bx+si],al
0559  0000           add    [bx+si],al
055b  005055         add    [bx+si+55],dl
055e  06             push   es
055f  2e8e060a00     mov    es,cs:[000a]
0564  2e8b2e1000     mov    bp,cs:[0010]
0569  b001           mov    al,01
056b  26864600       xchg   al,es:[bp+00]
056f  3c00           cmp    al,00
0571  7542           jnz    05b5
0573  2e832e100008   sub    word ptr cs:[0010],+08
0579  26896602       mov    es:[bp+02],sp
057d  268c5604       mov    es:[bp+04],ss
0581  8bc5           mov    ax,bp
0583  268b6e06       mov    bp,es:[bp+06]
0587  26394600       cmp    es:[bp+00],ax
058b  7535           jnz    05c2
058d  8cc0           mov    ax,es
058f  8ed0           mov    ss,ax
0591  8be5           mov    sp,bp
0593  9c             pushf
0594  2eff1e4c05     call   far cs:[054c]
0599  8bec           mov    bp,sp
059b  268b6e00       mov    bp,es:[bp+00]
059f  268e5604       mov    ss,es:[bp+04]
05a3  268b6602       mov    sp,es:[bp+02]
05a7  26c6460000     mov    byte ptr es:[bp+00],00
05ac  2e892e1000     mov    cs:[0010],bp
05b1  07             pop    es
05b2  5d             pop    bp
05b3  58             pop    ax
05b4  cf             iret
05b5  3c01           cmp    al,01
05b7  7404           jz     05bd
05b9  26864600       xchg   al,es:[bp+00]
05bd  e8aa01         call   076a
05c0  ebb7           jmp    0579
05c2  2e3b2e0c00     cmp    bp,cs:[000c]
05c7  72f4           jb     05bd
05c9  8be8           mov    bp,ax
05cb  26c6460003     mov    byte ptr es:[bp+00],03
05d0  ebeb           jmp    05bd
05d2  eb10           jmp    05e4
05d4  0000           add    [bx+si],al
05d6  0000           add    [bx+si],al
05d8  4b             dec    bx
05d9  42             inc    dx
05da  00eb           add    bl,ch
05dc  5f             pop    di
05dd  0000           add    [bx+si],al
05df  0000           add    [bx+si],al
05e1  0000           add    [bx+si],al
05e3  005055         add    [bx+si+55],dl
05e6  06             push   es
05e7  2e8e060a00     mov    es,cs:[000a]
05ec  2e8b2e1000     mov    bp,cs:[0010]
05f1  b001           mov    al,01
05f3  26864600       xchg   al,es:[bp+00]
05f7  3c00           cmp    al,00
05f9  7542           jnz    063d
05fb  2e832e100008   sub    word ptr cs:[0010],+08
0601  26896602       mov    es:[bp+02],sp
0605  268c5604       mov    es:[bp+04],ss
0609  8bc5           mov    ax,bp
060b  268b6e06       mov    bp,es:[bp+06]
060f  26394600       cmp    es:[bp+00],ax
0613  7535           jnz    064a
0615  8cc0           mov    ax,es
0617  8ed0           mov    ss,ax
0619  8be5           mov    sp,bp
061b  9c             pushf
061c  2eff1ed405     call   far cs:[05d4]
0621  8bec           mov    bp,sp
0623  268b6e00       mov    bp,es:[bp+00]
0627  268e5604       mov    ss,es:[bp+04]
062b  268b6602       mov    sp,es:[bp+02]
062f  26c6460000     mov    byte ptr es:[bp+00],00
0634  2e892e1000     mov    cs:[0010],bp
0639  07             pop    es
063a  5d             pop    bp
063b  58             pop    ax
063c  cf             iret
063d  3c01           cmp    al,01
063f  7404           jz     0645
0641  26864600       xchg   al,es:[bp+00]
0645  e82201         call   076a
0648  ebb7           jmp    0601
064a  2e3b2e0c00     cmp    bp,cs:[000c]
064f  72f4           jb     0645
0651  8be8           mov    bp,ax
0653  26c6460003     mov    byte ptr es:[bp+00],03
0658  ebeb           jmp    0645
065a  eb10           jmp    066c
065c  0000           add    [bx+si],al
065e  0000           add    [bx+si],al
0660  4b             dec    bx
0661  42             inc    dx
0662  00eb           add    bl,ch
0664  5f             pop    di
0665  0000           add    [bx+si],al
0667  0000           add    [bx+si],al
0669  0000           add    [bx+si],al
066b  005055         add    [bx+si+55],dl
066e  06             push   es
066f  2e8e060a00     mov    es,cs:[000a]
0674  2e8b2e1000     mov    bp,cs:[0010]
0679  b001           mov    al,01
067b  26864600       xchg   al,es:[bp+00]
067f  3c00           cmp    al,00
0681  7542           jnz    06c5
0683  2e832e100008   sub    word ptr cs:[0010],+08
0689  26896602       mov    es:[bp+02],sp
068d  268c5604       mov    es:[bp+04],ss
0691  8bc5           mov    ax,bp
0693  268b6e06       mov    bp,es:[bp+06]
0697  26394600       cmp    es:[bp+00],ax
069b  7535           jnz    06d2
069d  8cc0           mov    ax,es
069f  8ed0           mov    ss,ax
06a1  8be5           mov    sp,bp
06a3  9c             pushf
06a4  2eff1e5c06     call   far cs:[065c]
06a9  8bec           mov    bp,sp
06ab  268b6e00       mov    bp,es:[bp+00]
06af  268e5604       mov    ss,es:[bp+04]
06b3  268b6602       mov    sp,es:[bp+02]
06b7  26c6460000     mov    byte ptr es:[bp+00],00
06bc  2e892e1000     mov    cs:[0010],bp
06c1  07             pop    es
06c2  5d             pop    bp
06c3  58             pop    ax
06c4  cf             iret
06c5  3c01           cmp    al,01
06c7  7404           jz     06cd
06c9  26864600       xchg   al,es:[bp+00]
06cd  e89a00         call   076a
06d0  ebb7           jmp    0689
06d2  2e3b2e0c00     cmp    bp,cs:[000c]
06d7  72f4           jb     06cd
06d9  8be8           mov    bp,ax
06db  26c6460003     mov    byte ptr es:[bp+00],03
06e0  ebeb           jmp    06cd
06e2  eb10           jmp    06f4
06e4  0000           add    [bx+si],al
06e6  0000           add    [bx+si],al
06e8  4b             dec    bx
06e9  42             inc    dx
06ea  00eb           add    bl,ch
06ec  5f             pop    di
06ed  0000           add    [bx+si],al
06ef  0000           add    [bx+si],al
06f1  0000           add    [bx+si],al
06f3  005055         add    [bx+si+55],dl
06f6  06             push   es
06f7  2e8e060a00     mov    es,cs:[000a]
06fc  2e8b2e1000     mov    bp,cs:[0010]
0701  b001           mov    al,01
0703  26864600       xchg   al,es:[bp+00]
0707  3c00           cmp    al,00
0709  7542           jnz    074d
070b  2e832e100008   sub    word ptr cs:[0010],+08
0711  26896602       mov    es:[bp+02],sp
0715  268c5604       mov    es:[bp+04],ss
0719  8bc5           mov    ax,bp
071b  268b6e06       mov    bp,es:[bp+06]
071f  26394600       cmp    es:[bp+00],ax
0723  7535           jnz    075a
0725  8cc0           mov    ax,es
0727  8ed0           mov    ss,ax
0729  8be5           mov    sp,bp
072b  9c             pushf
072c  2eff1ee406     call   far cs:[06e4]
0731  8bec           mov    bp,sp
0733  268b6e00       mov    bp,es:[bp+00]
0737  268e5604       mov    ss,es:[bp+04]
073b  268b6602       mov    sp,es:[bp+02]
073f  26c6460000     mov    byte ptr es:[bp+00],00
0744  2e892e1000     mov    cs:[0010],bp
0749  07             pop    es
074a  5d             pop    bp
074b  58             pop    ax
074c  cf             iret
074d  3c01           cmp    al,01
074f  7404           jz     0755
0751  26864600       xchg   al,es:[bp+00]
0755  e81200         call   076a
0758  ebb7           jmp    0711
075a  2e3b2e0c00     cmp    bp,cs:[000c]
075f  72f4           jb     0755
0761  8be8           mov    bp,ax
0763  26c6460003     mov    byte ptr es:[bp+00],03
0768  ebeb           jmp    0755
076a  2e8b2e0e00     mov    bp,cs:[000e]
076f  26807e0000     cmp    byte ptr es:[bp+00],00
0774  7512           jnz    0788
0776  b001           mov    al,01
0778  26864600       xchg   al,es:[bp+00]
077c  3c00           cmp    al,00
077e  7414           jz     0794
0780  3c01           cmp    al,01
0782  7404           jz     0788
0784  26884600       mov    es:[bp+00],al
0788  2e3b2e0c00     cmp    bp,cs:[000c]
078d  7406           jz     0795
078f  83ed08         sub    bp,+08
0792  ebdb           jmp    076f
0794  c3             ret
0795  1e             push   ds
0796  b800f0         mov    ax,f000
0799  8ed8           mov    ds,ax
079b  803efefff9     cmp    byte ptr [fffe],f9
07a0  1f             pop    ds
07a1  7504           jnz    07a7
07a3  b007           mov    al,07
07a5  e672           out    72,al                         ;'r'
07a7  fa             cli
07a8  b0ff           mov    al,ff
07aa  e621           out    21,al                         ;'!'
07ac  e6a1           out    a1,al
07ae  8cce           mov    si,cs
07b0  8ede           mov    ds,si
07b2  bec407         mov    si,07c4
07b5  ac             lodsb
07b6  3c24           cmp    al,24                         ;'$'
07b8  7408           jz     07c2
07ba  b307           mov    bl,07
07bc  b40e           mov    ah,0e
07be  cd10           int    10
07c0  ebf3           jmp    07b5
07c2  ebfe           jmp    07c2

07C0  EB F3 EB FE 0D 0A 07 0D-0A 49 6E 74 65 72 6E 61  ksk~.....Interna
07D0  6C 20 73 74 61 63 6B 20-6F 76 65 72 66 6C 6F 77  l stack overflow
07E0  0D 0A 53 79 73 74 65 6D-20 68 61 6C 74 65 64 0D  ..System halted.
07F0  0A 24 E9 19 04 00 00 00-00 00 00 00 00 00 00 00  .$i.............

07f2  e91904         jmp    0c0e                 ; start 2. ‡ sti IO.SYS


07f7                 dw     0                    ; nov  hodnota pro datov˜ segment DS
07f9                 dd     0
07fd                 dd     0

0800  00 00 00 00 00 00 00 09-00 80 00 00 00 00 00 01  ................


0805                 db     0                    ; p©¡znak - nen¡ ‘ dn  disket. mechanika

080f                 dw     1
0811                 db     0                    ; disk, z kter‚ho je zav dˆn syst‚m

0810  00 00 FF FF 00 00 00 00-00 00 00 00 00 00 0F 0F  ................
0820  00 00 00 00 00 00 00 00-00 00 00 00 00 00 00 00  ................
0830  00 00 00 00 00 00 00 08-04 00 05 00 00 00 00 41  ...............A
0840  3A 5C 00 02 00 50 00 00-00 00 00 00 00 00 00 00  :\...P..........

0844                 db     0                    ; oddˆlovac¡ znak parametr– p©¡kazov‚ho © dku

0850  00 00 00 00 00 00 00 00-00 00 00 00 00 00 00 00  ................
0860  00 00 00 00 00 00 00 20-20 20 20 20 0D 0A 24 00  .......     ..$.
0870  00 FF 00 00 00 00 00 00-00 00 00 00 00 00 00 00  ................

0871                 db     0ffh                 ; ‡¡slo syst‚mov‚ho modelu po‡¡ta‡e
0872                 db     0                    ; ‡¡slo sub-modelu po‡¡ta‡e


0880  00 00 00 00 00 00 00 00-00 00 00 00 00 00 00 00  ................
0890  00 00 00 00 00 00 00 00-00 00 00 00 00 00 00 00  ................
08A0  00 00 00 00 00 00 00 00-00 00 00 00 00 00 00 00  ................
08B0  00 00 00 00 00 00 00 00-00 00 00 00 00 00 00 00  ................
08C0  00 00 00 00 00 00 00 00-00 00 00 00 00 00 00 00  ................
08D0  00 00 00 00 00 00 00 00-00 00 00 00 00 00 00 00  ................
08E0  00 00 00 00 00 00 00 00-00 00 00 00 00 00 00 00  ................
08F0  00 00 00 00 00 00 00 00-00 00 00 00 00 00 00 00  ................
0900  00 00 00 00 00 00 00 00-00 00 00 00 00 00 00 00  ................
0910  00 00 00 00 00 00 00 00-00 00 00 00 00 00 00 00  ................
0920  00 00 00 00 00 00 00 00-00 00 00 00 00 00 00 00  ................
0930  00 00 00 00 00 00 00 00-00 00 00 00 00 00 00 00  ................
0940  00 00 00 00 00 00 00 00-00 00 00 00 00 00 00 00  ................
0950  00 00 00 00 00 00 00 00-00 00 00 00 00 00 00 00  ................
0960  00 00 00 00 00 00 00 00-00 00 00 00 00 00 00 00  ................
0970  00 00 00 00 00 00 00 00-00 00 00 00 00 00 00 00  ................
0980  00 00 00 00 00 00 00 00-00 00 00 00 00 00 00 00  ................
0990  00 00 00 00 00 00 00 00-00 00 00 00 00 00 00 00  ................
09A0  00 00 00 00 00 00 00 00-00 00 00 00 00 00 00 00  ................
09B0  00 00 00 00 00 00 00 00-00 00 00 00 00 00 00 00  ................
09C0  00 00 00 00 00 00 00 00-00 00 00 00 00 00 00 00  ................
09D0  00 00 00 00 00 00 00 00-00 00 00 00 00 00 00 00  ................
09E0  00 00 00 00 00 00 00 00-00 00 00 00 00 00 00 00  ................
09F0  00 00 00 00 00 00 00 00-00 00 00 00 00 00 00 00  ................
0A00  00 00 00 00 00 00 00 00-00 00 00 00 00 00 00 00  ................
0A10  00 00 00 00 00 00 00 00-00 00 00 00 00 00 00 00  ................
0A20  00 00 00 00 00 00 00 00-00 00 00 00 00 00 00 00  ................
0A30  00 00 00 00 00 00 00 00-00 00 00 00 00 00 00 00  ................
0A40  00 00 00 00 00 00 00 00-00 00 00 00 00 00 00 00  ................
0A50  00 00 00 00 00 00 00 00-00 00 00 00 00 00 00 00  ................
0A60  00 00 00 00 00 00 00 00-00 00 00 00 00 00 00 00  ................
0A70  00 00 00 00 00 00 00 00-42 55 46 46 45 52 53 20  ........BUFFERS
0A80  00 00 00 00 00 00 00 00-00 00 00 00 00 00 43 08  ..............C.
0A90  58 04 11 08 58 04 63 08-58 04 00 00 00 00 00 00  X...X.c.X.......
0AA0  00 00 00 00 00 00 00 00-00 20 20 20 20 20 20 20  .........
0AB0  20 20 20 20 20 20 20 20-20 20 20 20 20 00 20 00               . .
0AC0  00 00 00 00 00 00 00 00-00 00 00 00 00 00 00 00  ................
0AD0  00 00 00 00 00 00 00 00-00 00 00 00 00 00 00 00  ................
0AE0  00 00 00 00 00 00 00 00-00 00 00 00 00 00 00 00  ................
0AF0  00 00 00 00 00 00 00 00-00 00 00 00 00 00 00 00  ................
0B00  00 00 00 00 00 00 00 00-00 00 00 00 00 00 00 00  ................
0B10  00 BD 0A 58 04 A9 0A 58-04 A9 0A 58 04 00 00 1C  .=.X.).X.).X....
0B20  00 01 00 00 00 00 00 00-00 00 00 00 00 00 00 00  ................
0B30  00 00 00 00 00 00 00 00-00 00 00 00 00 00 00 00  ................
0B40  00 00 00 00 00 00 00 00-00 00 00 00 00 00 00 00  ................
0B50  00 00 00 00 00 00 00 00-00 00 00 00 00 00 00 00  ................

0b5c                 db     0                    ; po‡et znak– za p©¡kazem "COMMENT"
0b5d                 db     0                    ; prvn¡ znak za p©¡kazem "COMMENT"
0b5e                 db     0                    ; druh˜ znak za p©¡kazem "COMMENT"
0b5f                 db     0                    ; identifik tor p©¡kazu CONFIG.SYS

0B60  00 00 00 00 00 00 00 00-00 00 00 00 00 00 00 00  ................

0b61                 dw     0                    ; velikost souboru CONFIG.SYS

0b6f                 dw     0                    ; segment za‡ tku voln‚ pamˆti

0B70  00 00 00 00 00 18 00 00-00 00 00 00 00 00 00 00  ................

0b73                 dw     0                    ; segment za‡ tku voln‚ pamˆti

0B80  00 00 00 00 00 00 00 00-00 00 00 00 00 00 00 00  ................
0B90  00 00 00 00 00 00 00 00-00 00 00 00 00 00 00 00  ................
0BA0  00 00 00 00 00 00 00 00-00 00 00 00 00 00 00 00  ................
0BB0  00 00 00 00 00 00 00 00-00 00 00 00 00 00 00 00  ................
0BC0  00 00 00 00 00 00 00 00-00 00 00 00 00 00 00 00  ................
0BD0  00 00 00 00 00 00 00 00-00 00 00 00 00 00 00 00  ................
0BE0  00 00 00 00 00 00 00 00-00 00 00 00 00 00 00 00  ................
0BF0  00 00 00 00 00 00 00 00-00 00 00 00 00 00 00 00  ................
0C00  00 00 00 00 00 00 00 00-00 00 00 00 00 00 B4 C0  ..............4@
0C10  CD 15 72 17 80 FC 00 75-12 26 8A 47 02 2E A2 71  M.r..|.u.&.G.."q


                                                 ; start 2. ‡ sti IO.SYS

0c0e  b4c0         * mov    ah,c0                ; funkce poskytnut¡ syst‚mov‚ konfigurace
0c10  cd15           int    15                   ; poskytnut¡ syst‚mov‚ konfigurace
0c12  7217           jb     0c2b                 ; funkce nepodporov na
0c14  80fc00         cmp    ah,00                ; je funkce podporov na OK ?
0c17  7512           jnz    0c2b                 ; funkce nen¡ podporov na
0c19  268a4702       mov    al,es:[bx+02]        ; ‡¡slo syst‚mov‚ho modelu po‡¡ta‡e
0c1d  2ea27108       mov    cs:[0871],al         ; ‡¡slo syst‚mov‚ho modelu po‡¡ta‡e
0c21  268a4703       mov    al,es:[bx+03]        ; ‡¡slo sub-modelu po‡¡ta‡e
0c25  2ea27208       mov    cs:[0872],al         ; ‡¡slo sub-modelu po‡¡ta‡e
0c29  eb19           jmp    0c44                 ; p©esko‡en¡ rozpozn n¡ podle ROM
0c2b  b800f0       * mov    ax,f000              ; segment ROM s BIOS
0c2e  8ed8           mov    ds,ax                ; DS <- F000h - ROM s modulem BIOS
0c30  a0feff         mov    al,[fffe]            ; identifik tor syst‚mov‚ho modelu po‡¡ta‡e
0c33  2ea27108       mov    cs:[0871],al         ; ‡¡slo syst‚mov‚ho modelu po‡¡ta‡e
0c37  cd11           int    11                   ; ‡ten¡ tabulky vybaven¡ po‡¡ta‡e
0c39  a90100         test   ax,0001              ; je nainstalov na nˆjak  mechanika ?
0c3c  7506           jnz    0c44                 ; je nainstalov na disketov  mechanika
0c3e  2ec606050801   mov    byte ptr cs:[0805],01 ; p©¡znak - nen¡ ‘ dn  disket. mechanika
0c44  fc           * cld                         ; smˆr p©enosu dat nahoru
0c45  33f6           xor    si,si                ; SI <- 0000
0c47  8bfe           mov    di,si                ; DI <- 0000
0c49  2e8b0e0f08     mov    cx,cs:[080f]         ;
0c4e  8cc8           mov    ax,cs                ; AX <- CS
0c50  8ed8           mov    ds,ax                ; DS <- CS
0c52  b8da3e         mov    ax,3eda              ; d‚lka ‡ sti 2 IO.SYS
0c55  e83b08         call   1493                 ; p©epo‡et na odstavce
0c58  2bc8           sub    cx,ax                ; v˜po‡et segmentu za‡ tku 2. ‡ sti IO.SYS
0c5a  8ec1           mov    es,cx                ; segment za‡ tku 2. ‡ sti IO.SYS
0c5c  b9db3e         mov    cx,3edb              ; d‚lka 2. ‡ sti IO.SYS
0c5f  d1e9           shr    cx,1                 ; d‚lka / 2
0c61  f3a5           repz   movsw                ; p©enos 2. ‡ sti IO.SYS na novou adresu
0c63  06             push   es                   ; segment pro skok do 2. ‡ sti IO.SYS
0c64  b8690c         mov    ax,0c69              ; nov  adresa, kde se bude pokra‡ovat
0c67  50             push   ax                   ; ulo‘en¡ nov‚ adresy programu
0c68  cb             retf                        ; skok do p©enesen‚ 2. ‡ sti IO.SYS

                                                 ; zde program pokra‡uje po p©enosu do jin‚ ‡ sti

0c69  26a1f707       mov    ax,es:[07f7]         ; nov  hodnota pro datov˜ segment DS
0c6d  8ed8           mov    ds,ax                ; nastaven¡ registru DS
0c6f  26a1fb07       mov    ax,es:[07fb]         ; nov  hodnota pro segment ES
0c73  8ec0           mov    es,ax                ; nastaven¡ registru ES
0c75  33f6           xor    si,si                ; SI <- 0000
0c77  8bfe           mov    di,si                ; DI <- 0000
0c79  b90050         mov    cx,5000              ; d‚lka/2
0c7c  f3a5           repz   movsw                ; p©enos
0c7e  2ec536fd07     lds    si,cs:[07fd]
0c83  2e8b160f08     mov    dx,cs:[080f]
0c88  fa             cli                         ; z kaz p©eru¨en¡
0c89  8cc8           mov    ax,cs                ; AX <- CS
0c8b  8ed0           mov    ss,ax                ; SS <- CS
0c8d  bc910c         mov    sp,0c91              ; nov  hodnota ukazatele z sobn¡ku
0c90  fb             sti                         ; povolen¡ p©eru¨en¡
0c91  36ff1ef907     call   far ss:[07f9]
0c96  268b05         mov    ax,es:[di]
0c99  36a3f507       mov    ss:[07f5],ax
0c9d  268b4502       mov    ax,es:[di+02]
0ca1  36a3f707       mov    ss:[07f7],ax
0ca5  268b4504       mov    ax,es:[di+04]
0ca9  36a30108       mov    ss:[0801],ax
0cad  268b4506       mov    ax,es:[di+06]
0cb1  36a30308       mov    ss:[0803],ax
0cb5  36c43ef507     les    di,ss:[07f5]
0cba  f8             clc
0cbb  b488           mov    ah,88                ; funkce dotazu na velikost roz¨i©uj¡c¡ pamˆti
0cbd  cd15           int    15                   ; dotaz na velikost roz¨i©uj¡c¡ pamˆti
0cbf  7204           jb     0cc5                 ; chyba
0cc1  26894545       mov    es:[di+45],ax        ; po‡et 1KB blok– nad 1MB pamˆti
0cc5  26c7453bffff   mov    word ptr es:[di+3b],ffff
0ccb  26c7453dffff   mov    word ptr es:[di+3d],ffff
0cd1  268b4510       mov    ax,es:[di+10]
0cd5  051400         add    ax,0014
0cd8  36a31c08       mov    ss:[081c],ax
0cdc  36a01108       mov    al,ss:[0811]         ; disk, z kter‚ho je zav dˆn syst‚m
0ce0  26884543       mov    es:[di+43],al
                                                 ; test procesoru
0ce4  9c             pushf
0ce5  53             push   bx
0ce6  33db           xor    bx,bx
0ce8  33c0           xor    ax,ax
0cea  50             push   ax
0ceb  9d             popf
0cec  9c             pushf
0ced  58             pop    ax
0cee  2500f0         and    ax,f000
0cf1  3d00f0         cmp    ax,f000
0cf4  740e           jz     0d04
0cf6  b800f0         mov    ax,f000
0cf9  50             push   ax
0cfa  9d             popf
0cfb  9c             pushf
0cfc  58             pop    ax
0cfd  2500f0         and    ax,f000
0d00  7401           jz     0d03
0d02  43             inc    bx
0d03  43             inc    bx
0d04  8bc3           mov    ax,bx
0d06  5b             pop    bx
0d07  9d             popf

0d08  3d0200         cmp    ax,0002              ; je procesor 80386 ?
0d0b  7505           jnz    0d12                 ; nen¡ 80386
0d0d  26c6454401     mov    byte ptr es:[di+44],01 ; p©¡znak - je procesor 80386
0d12  268a4520     * mov    al,es:[di+20]
0d16  36a28b0b       mov    ss:[0b8b],al
0d1a  8cc8           mov    ax,cs                ; AX <- CS
0d1c  2d1100         sub    ax,0011
0d1f  368b0e1c08     mov    cx,ss:[081c]
0d24  d1e9           shr    cx,1
0d26  d1e9           shr    cx,1
0d28  d1e9           shr    cx,1
0d2a  d1e9           shr    cx,1
0d2c  41             inc    cx
0d2d  2bc1           sub    ax,cx
0d2f  36a33b08       mov    ss:[083b],ax
0d33  06             push   es
0d34  57             push   di
0d35  26c47d12       les    di,es:[di+12]
0d39  26c43d         les    di,es:[di]
0d3c  26c745020000   mov    word ptr es:[di+02],0000
0d42  26894504       mov    es:[di+04],ax
0d46  8ec0           mov    es,ax
0d48  33c0           xor    ax,ax
0d4a  8bf8           mov    di,ax
0d4c  268905         mov    es:[di],ax
0d4f  26894502       mov    es:[di+02],ax
0d53  26c74504ff00   mov    word ptr es:[di+04],00ff
0d59  26c745060000   mov    word ptr es:[di+06],0000
0d5f  26c745080000   mov    word ptr es:[di+08],0000
0d65  5f             pop    di
0d66  07             pop    es
0d67  1e             push   ds
0d68  0e             push   cs
0d69  1f             pop    ds
0d6a  e84501         call   0eb2
0d6d  1f             pop    ds
0d6e  9aba1f7000     call   0070:1fba
0d73  fb             sti
0d74  fc             cld
0d75  8ccb           mov    bx,cs
0d77  83eb10         sub    bx,+10
0d7a  8ec3           mov    es,bx
0d7c  33f6           xor    si,si
0d7e  8bfe           mov    di,si
0d80  b98000         mov    cx,0080
0d83  f3             repz
0d84  a5             movsw
0d85  268c063600     mov    es:[0036],es
0d8a  b450           mov    ah,50                         ; ???
0d8c  cd21           int    21
0d8e  1e             push   ds
0d8f  0e             push   cs
0d90  1f             pop    ds                   ; DS <- CS
0d91  ba7f39         mov    dx,397f              ; adresa obsluhy INT 24h
0d94  b82425         mov    ax,2524              ; funkce nastaven¡ adresy INT 24h
0d97  cd21           int    21                   ; nastaven¡ adresy INT 24h
0d99  bbffff         mov    bx,ffff              ; pokus o maxim ln¡ p©idˆlen¡ pamˆti
0d9c  b448           mov    ah,48                ; funkce p©idˆlen¡ pamˆti
0d9e  cd21           int    21                   ; p©idˆlen¡ pamˆti
0da0  b448           mov    ah,48                ; funkce p©idˆlen¡ pamˆti
0da2  cd21           int    21                   ; p©idˆlen¡ maxim ln¡ voln‚ pamˆti
0da4  a3730b         mov    [0b73],ax            ; segment za‡ tku voln‚ pamˆti
0da7  a36f0b         mov    [0b6f],ax            ; segment za‡ tku voln‚ pamˆti
0daa  1f             pop    ds
0dab  368a161108     mov    dl,ss:[0811]         ; disk, z kter‚ho je zav dˆn syst‚m
0db0  0ad2           or     dl,dl                ; je disk ji‘ aktivn¡ ?
0db2  7406           jz     0dba                 ; je aktivn¡ disk
0db4  feca           dec    dl                   ; nastaven¡ ‡¡sla disku
0db6  b40e           mov    ah,0e                ; funkce v˜bˆru aktivn¡ho disku
0db8  cd21           int    21                   ; v˜bˆr aktivn¡ho disku
þ0dba  e8f318       * call   26b0
0dbd  2efe069a0a     inc    byte ptr cs:[0a9a]
0dc2  e8ce19         call   2793
0dc5  2efe069a0a     inc    byte ptr cs:[0a9a]
0dca  e8c619         call   2793
0dcd  e87601         call   0f46
0dd0  36f7069b0a0100 test   word ptr ss:[0a9b],0001
0dd7  7408           jz     0de1
0dd9  2efe069a0a     inc    byte ptr cs:[0a9a]
0dde  e8b219         call   2793
0de1  e8ff0d         call   1be3
0de4  2ec606600b01   mov    byte ptr cs:[0b60],01
0dea  368b0e730b     mov    cx,ss:[0b73]         ; segment za‡ tku voln‚ pamˆti
0def  8ec1           mov    es,cx
0df1  b449           mov    ah,49                         ;'i'
0df3  cd21           int    21
0df5  2ef7069b0a0200 test   word ptr cs:[0a9b],0002
0dfc  741f           jz     0e1d
0dfe  06             push   es
0dff  53             push   bx
0e00  2ea1690b       mov    ax,cs:[0b69]
0e04  8ec0           mov    es,ax
0e06  2e8b1e6b0b     mov    bx,cs:[0b6b]
0e0b  b44a           mov    ah,4a                         ;'j'
0e0d  cd21           int    21
0e0f  8cc0           mov    ax,es
0e11  48             dec    ax
0e12  8ec0           mov    es,ax
0e14  26c70601000800 mov    word ptr es:[0001],0008
0e1b  5b             pop    bx
0e1c  07             pop    es
0e1d  0e             push   cs
0e1e  1f             pop    ds
0e1f  be4408         mov    si,0844              ; oddˆlovac¡ znak parametr– p©¡kaz. © dku
0e22  1e             push   ds
0e23  07             pop    es
0e24  8bfe           mov    di,si
0e26  b1ff           mov    cl,ff
0e28  fec1           inc    cl
0e2a  ac             lodsb
0e2b  aa             stosb
0e2c  0ac0           or     al,al
0e2e  75f8           jnz    0e28
0e30  4f             dec    di
0e31  b00d           mov    al,0d
0e33  aa             stosb
0e34  880e4308       mov    [0843],cl
0e38  ba4a3a         mov    dx,3a4a
0e3b  52             push   dx
0e3c  bbffff         mov    bx,ffff
0e3f  b448           mov    ah,48                         ;'h'
0e41  cd21           int    21
0e43  b448           mov    ah,48                         ;'h'
0e45  cd21           int    21
0e47  7244           jb     0e8d
0e49  8ec0           mov    es,ax
0e4b  b449           mov    ah,49                         ;'i'
0e4d  cd21           int    21
0e4f  8beb           mov    bp,bx
0e51  8b1e0f08       mov    bx,[080f]
0e55  8cc8           mov    ax,cs
0e57  2bd8           sub    bx,ax
0e59  83c311         add    bx,+11
0e5c  2beb           sub    bp,bx
0e5e  722d           jb     0e8d
0e60  b8003d         mov    ax,3d00
0e63  f9             stc
0e64  cd21           int    21
0e66  7242           jb     0eaa
0e68  8bd8           mov    bx,ax
0e6a  33c9           xor    cx,cx
0e6c  33d2           xor    dx,dx
0e6e  b80242         mov    ax,4202
0e71  f9             stc
0e72  cd21           int    21
0e74  7234           jb     0eaa
0e76  050f00         add    ax,000f
0e79  83d200         adc    dx,+00
0e7c  b104           mov    cl,04
0e7e  d3e8           shr    ax,cl
0e80  b10c           mov    cl,0c
0e82  d3e2           shl    dx,cl
0e84  0bc2           or     ax,dx
0e86  051000         add    ax,0010
0e89  3bc5           cmp    ax,bp
0e8b  7203           jb     0e90
0e8d  e93828         jmp    36c8
0e90  b43e           mov    ah,3e                         ;'>'
0e92  cd21           int    21
0e94  5a             pop    dx
0e95  0e             push   cs
0e96  07             pop    es
0e97  bb8c0a         mov    bx,0a8c
0e9a  8c4f04         mov    [bx+04],cs
0e9d  8c4f08         mov    [bx+08],cs
0ea0  8c4f0c         mov    [bx+0c],cs
0ea3  33c0           xor    ax,ax
0ea5  b44b           mov    ah,4b                         ;'k'
0ea7  f9             stc
0ea8  cd21           int    21
0eaa  ba853d         mov    dx,3d85              ; text "Command Interpreter"
0ead  e8772a         call   3927
0eb0  ebfe         * jmp    0eb0


0eb2  c43ef507       les    di,[07f5]
0eb6  268a4d20       mov    cl,es:[di+20]
0eba  32ed           xor    ch,ch
0ebc  26884d21       mov    es:[di+21],cl
0ec0  8ac1           mov    al,cl
0ec2  b458           mov    ah,58                         ;'x'
0ec4  f6e4           mul    ah
0ec6  e8ca05         call   1493                 ; p©epo‡et offsetu na odstavce
0ec9  8b363b08       mov    si,[083b]
0ecd  2bf0           sub    si,ax
0ecf  89363d08       mov    [083d],si
0ed3  26897518       mov    es:[di+18],si
0ed7  8bc6           mov    ax,si
0ed9  26c745160000   mov    word ptr es:[di+16],0000
0edf  26c535         lds    si,es:[di]
0ee2  8ec0           mov    es,ax
0ee4  33ff           xor    di,di
0ee6  36a13f08     * mov    ax,ss:[083f]
0eea  ab             stosw
0eeb  36a14108       mov    ax,ss:[0841]
0eef  ab             stosw
0ef0  36fe063f08     inc    byte ptr ss:[083f]
0ef5  33c0           xor    ax,ax
0ef7  51             push   cx
0ef8  b93f00         mov    cx,003f
0efb  f3             repz
0efc  aa             stosb
0efd  83feff         cmp    si,-01
0f00  740d           jz     0f0f
0f02  2e803e050801   cmp    byte ptr cs:[0805],01 ; p©¡znak - nen¡ ‘ dn  disket. mechanika
0f08  750e           jnz    0f18
0f0a  803c02         cmp    byte ptr [si],02
0f0d  7309           jnb    0f18
0f0f  33c0           xor    ax,ax
0f11  b103           mov    cl,03
0f13  f3             repz
0f14  ab             stosw
0f15  59             pop    cx
0f16  eb14           jmp    0f2c
0f18  59             pop    cx
0f19  807c0800       cmp    byte ptr [si+08],00
0f1d  7403           jz     0f22
0f1f  b80040         mov    ax,4000
0f22  ab             stosw
0f23  8bc6           mov    ax,si
0f25  ab             stosw
0f26  8cd8           mov    ax,ds
0f28  ab             stosw
0f29  c57419         lds    si,[si+19]
0f2c  b8ffff         mov    ax,ffff
0f2f  ab             stosw
0f30  ab             stosw
0f31  ab             stosw
0f32  b80200         mov    ax,0002
0f35  ab             stosw
0f36  b80000         mov    ax,0000
0f39  ab             stosw
0f3a  ab             stosw
0f3b  ab             stosw
0f3c  aa             stosb
0f3d  e2a7           loop   0ee6
0f3f  36c6063f0841   mov    byte ptr ss:[083f],41         ;'a'
0f45  c3             ret


0f46  1e             push   ds
0f47  b87000         mov    ax,0070
0f4a  8ed8           mov    ds,ax
0f4c  833e8f0a00     cmp    word ptr [0a8f],+00
0f51  7506           jnz    0f59
0f53  810e8f0a8000   or     word ptr [0a8f],0080
0f59  1f             pop    ds
0f5a  36a13b08       mov    ax,ss:[083b]
0f5e  36a33d08       mov    ss:[083d],ax
0f62  0e             push   cs
0f63  1f             pop    ds
0f64  e81f27         call   3686
0f67  36a03708       mov    al,ss:[0837]
0f6b  2c05           sub    al,05
0f6d  7652           jbe    0fc1
0f6f  50             push   ax
0f70  b046           mov    al,46                         ;'f'
0f72  e84e0c         call   1bc3
0f75  58             pop    ax
0f76  32e4           xor    ah,ah
0f78  368b1e6d0b     mov    bx,ss:[0b6d]
0f7d  368b166f0b     mov    dx,ss:[0b6f]         ; segment za‡ tku voln‚ pamˆti
0f82  36c53ef507     lds    di,ss:[07f5]
0f87  c57d04         lds    di,[di+04]
0f8a  891d           mov    [di],bx
0f8c  895502         mov    [di+02],dx
0f8f  0e             push   cs
0f90  1f             pop    ds
0f91  36c43e6d0b     les    di,ss:[0b6d]
0f96  26c705ffff     mov    word ptr es:[di],ffff
0f9b  26894504       mov    es:[di+04],ax
0f9f  b33b           mov    bl,3b                         ;';'
0fa1  f6e3           mul    bl
0fa3  8bc8           mov    cx,ax
0fa5  3601066d0b     add    ss:[0b6d],ax
0faa  b80600         mov    ax,0006
0fad  3601066d0b     add    ss:[0b6d],ax
0fb2  36800e431c02   or     byte ptr ss:[1c43],02
0fb8  e8cb26         call   3686
0fbb  03f8           add    di,ax
0fbd  33c0           xor    ax,ax
0fbf  f3             repz
0fc0  aa             stosb
0fc1  0e             push   cs
0fc2  1f             pop    ds
0fc3  e8c026         call   3686
0fc6  b058           mov    al,58                         ;'x'
0fc8  e8f80b         call   1bc3
0fcb  36a03808       mov    al,ss:[0838]
0fcf  32e4           xor    ah,ah
0fd1  368b1e6d0b     mov    bx,ss:[0b6d]
0fd6  368b166f0b     mov    dx,ss:[0b6f]         ; segment za‡ tku voln‚ pamˆti
0fdb  36c53ef507     lds    di,ss:[07f5]
0fe0  895d1a         mov    [di+1a],bx
0fe3  89551c         mov    [di+1c],dx
0fe6  2e8a1e3908     mov    bl,cs:[0839]
0feb  32ff           xor    bh,bh
0fed  895d1e         mov    [di+1e],bx
0ff0  0e             push   cs
0ff1  1f             pop    ds
0ff2  c43e6d0b       les    di,[0b6d]
0ff6  26c705ffff     mov    word ptr es:[di],ffff
0ffb  26894504       mov    es:[di+04],ax
0fff  b33b           mov    bl,3b                         ;';'
1001  8bc8           mov    cx,ax
1003  f6e3           mul    bl
1005  01066d0b       add    [0b6d],ax
1009  b80600         mov    ax,0006
100c  01066d0b       add    [0b6d],ax
1010  800e431c02     or     byte ptr [1c43],02
1015  e86e26         call   3686
1018  03f8           add    di,ax
101a  b041           mov    al,41                         ;'a'
101c  51             push   cx
101d  b93b00         mov    cx,003b
1020  fc             cld
1021  f3             repz
1022  aa             stosb
1023  26c745c50000   mov    word ptr es:[di-3b],0000
1029  26c745da0000   mov    word ptr es:[di-26],0000
102f  26c745dc0000   mov    word ptr es:[di-24],0000
1035  59             pop    cx
1036  e2e4           loop   101c
1038  833e1208ff     cmp    word ptr [0812],-01
103d  740f           jz     104e
103f  803e730801     cmp    byte ptr [0873],01
1044  7505           jnz    104b
1046  e8d704         call   1520
1049  7203           jb     104e
104b  e99800         jmp    10e6
104e  c70614080000   mov    word ptr [0814],0000
1054  c70612080200   mov    word ptr [0812],0002
105a  50             push   ax
105b  1e             push   ds
105c  2ec42ef507     les    bp,cs:[07f5]
1061  26c46e00       les    bp,es:[bp+00]
1065  0e             push   cs
1066  1f             pop    ds
1067  268a5e00       mov    bl,es:[bp+00]
106b  fec3           inc    bl
106d  b80844         mov    ax,4408
1070  cd21           int    21
1072  0bc0           or     ax,ax
1074  7537           jnz    10ad
1076  33db           xor    bx,bx
1078  268a5e00       mov    bl,es:[bp+00]
107c  fec3           inc    bl
107e  ba643b         mov    dx,3b64
1081  b80d44         mov    ax,440d
1084  b96008         mov    cx,0860
1087  cd21           int    21
1089  7222           jb     10ad
108b  8b1e733b       mov    bx,[3b73]
108f  a16b3b         mov    ax,[3b6b]
1092  33d2           xor    dx,dx
1094  b90002         mov    cx,0200
1097  f7f1           div    cx
1099  f7e3           mul    bx
109b  0bd2           or     dx,dx
109d  7505           jnz    10a4
109f  3dd002         cmp    ax,02d0
10a2  7609           jbe    10ad
10a4  c70612080300   mov    word ptr [0812],0003
10aa  eb0e           jmp    10ba
10ac  90             nop
10ad  26837e19ff     cmp    word ptr es:[bp+19],-01
10b2  7406           jz     10ba
10b4  26c46e19       les    bp,es:[bp+19]
10b8  ebad           jmp    1067
10ba  813e0f080020   cmp    word ptr [080f],2000
10c0  7622           jbe    10e4
10c2  c70612080500   mov    word ptr [0812],0005
10c8  813e0f080040   cmp    word ptr [080f],4000
10ce  7614           jbe    10e4
10d0  c70612080a00   mov    word ptr [0812],000a
10d6  813e0f080080   cmp    word ptr [080f],8000
10dc  7606           jbe    10e4
10de  c70612080f00   mov    word ptr [0812],000f
10e4  1f             pop    ds
10e5  58             pop    ax
10e6  2ec51ef507     lds    bx,cs:[07f5]
10eb  36a11208       mov    ax,ss:[0812]
10ef  89473f         mov    [bx+3f],ax
10f2  36a11408       mov    ax,ss:[0814]
10f6  894741         mov    [bx+41],ax
10f9  c55f12         lds    bx,[bx+12]
10fc  807f17ff       cmp    byte ptr [bx+17],ff
1100  7403           jz     1105
1102  eb6d           jmp    1171
1104  90             nop
1105  33d2           xor    dx,dx
1107  36a11208       mov    ax,ss:[0812]
110b  3c1e           cmp    al,1e
110d  7318           jnb    1127
110f  36c70618080100 mov    word ptr ss:[0818],0001
1116  c747040100     mov    word ptr [bx+04],0001
111b  36a21e08       mov    ss:[081e],al
111f  36c606200801   mov    byte ptr ss:[0820],01
1125  eb48           jmp    116f
1127  b10f           mov    cl,0f
1129  f6f1           div    cl
112b  50             push   ax
112c  32e4           xor    ah,ah
112e  36a31808       mov    ss:[0818],ax
1132  894704         mov    [bx+04],ax
1135  58             pop    ax
1136  0ae4           or     ah,ah
1138  7506           jnz    1140
113a  36a22008       mov    ss:[0820],al
113e  eb2f           jmp    116f
1140  8ac8           mov    cl,al
1142  8ac4           mov    al,ah
1144  32e4           xor    ah,ah
1146  f6f1           div    cl
1148  0ae4           or     ah,ah
114a  750f           jnz    115b
114c  3600061e08     add    ss:[081e],al
1151  36a11808       mov    ax,ss:[0818]
1155  36a22008       mov    ss:[0820],al
1159  eb14           jmp    116f
115b  3688262008     mov    ss:[0820],ah
1160  3600061e08     add    ss:[081e],al
1165  3600061f08     add    ss:[081f],al
116a  36fe061e08     inc    byte ptr ss:[081e]
116f  eb10           jmp    1181
1171  36a11608       mov    ax,ss:[0816]
1175  b90200         mov    cx,0002
1178  f7e1           mul    cx
117a  36a31808       mov    ss:[0818],ax
117e  894704         mov    [bx+04],ax
1181  e80225         call   3686
1184  b042           mov    al,42                         ;'b'
1186  e83a0a         call   1bc3
1189  36a11808       mov    ax,ss:[0818]
118d  b90800         mov    cx,0008
1190  f7e1           mul    cx
1192  c43f           les    di,[bx]
1194  368b0e6d0b     mov    cx,ss:[0b6d]
1199  890f           mov    [bx],cx
119b  368b0e6f0b     mov    cx,ss:[0b6f]         ; segment za‡ tku voln‚ pamˆti
11a0  894f02         mov    [bx+02],cx
11a3  36a36d0b       mov    ss:[0b6d],ax
11a7  36800e431c02   or     byte ptr ss:[1c43],02
11ad  e8d624         call   3686
11b0  1e             push   ds
11b1  53             push   bx
11b2  807f17ff       cmp    byte ptr [bx+17],ff
11b6  7405           jz     11bd
11b8  e8cf04         call   168a
11bb  eb03           jmp    11c0
11bd  e86a04         call   162a
11c0  5b             pop    bx
11c1  1f             pop    ds
11c2  36833e140800   cmp    word ptr ss:[0814],+00
11c8  742d           jz     11f7
11ca  e8b924         call   3686
11cd  368b0e6d0b     mov    cx,ss:[0b6d]
11d2  894f06         mov    [bx+06],cx
11d5  368b0e6f0b     mov    cx,ss:[0b6f]         ; segment za‡ tku voln‚ pamˆti
11da  894f08         mov    [bx+08],cx
11dd  368b0e1408     mov    cx,ss:[0814]
11e2  894f0a         mov    [bx+0a],cx
11e5  b80002         mov    ax,0200
11e8  f7e1           mul    cx
11ea  36a36d0b       mov    ss:[0b6d],ax
11ee  36800e431c02   or     byte ptr ss:[1c43],02
11f4  e88f24         call   3686
11f7  e88c24         call   3686
11fa  50             push   ax
11fb  b84c00         mov    ax,004c
11fe  e8c209         call   1bc3
1201  58             pop    ax
1202  36c43ef507     les    di,ss:[07f5]
1207  268a4d20       mov    cl,es:[di+20]
120b  363a0e3a08     cmp    cl,ss:[083a]
1210  7305           jnb    1217
1212  368a0e3a08     mov    cl,ss:[083a]
1217  32ed           xor    ch,ch
1219  26884d21       mov    es:[di+21],cl
121d  36a16f0b       mov    ax,ss:[0b6f]         ; segment za‡ tku voln‚ pamˆti
1221  26894518       mov    es:[di+18],ax
1225  36a16d0b       mov    ax,ss:[0b6d]
1229  26894516       mov    es:[di+16],ax
122d  8ac1           mov    al,cl
122f  b458           mov    ah,58                         ;'x'
1231  f6e4           mul    ah
1233  e85d02         call   1493                 ; p©epo‡et offsetu na odstavce
1236  3601066f0b     add    ss:[0b6f],ax         ; segment za‡ tku voln‚ pamˆti
123b  36800e431c02   or     byte ptr ss:[1c43],02
1241  e84224         call   3686
1244  26c535         lds    si,es:[di]
1247  26c47d16       les    di,es:[di+16]
124b  e898fc         call   0ee6
124e  0e             push   cs
124f  1f             pop    ds
1250  803e7108fd     cmp    byte ptr [0871],fd   ; ‡¡slo syst‚mov‚ho modelu po‡¡ta‡e
1255  741c           jz     1273
1257  833e0b08ff     cmp    word ptr [080b],-01
125c  7418           jz     1276
125e  803e720800     cmp    byte ptr [0872],00   ; ‡¡slo sub-modelu po‡¡ta‡e
1263  7511           jnz    1276
1265  803e7108ff     cmp    byte ptr [0871],ff   ; ‡¡slo syst‚mov‚ho modelu po‡¡ta‡e
126a  7407           jz     1273
126c  803e7108fe     cmp    byte ptr [0871],fe   ; ‡¡slo syst‚mov‚ho modelu po‡¡ta‡e
1271  7503           jnz    1276
1273  eb53           jmp    12c8
1275  90             nop
1276  a10708         mov    ax,[0807]
1279  3d0000         cmp    ax,0000
127c  74f5           jz     1273
127e  e80524         call   3686
1281  b053           mov    al,53                         ;'s'
1283  e83d09         call   1bc3
1286  a16f0b         mov    ax,[0b6f]            ; segment za‡ tku voln‚ pamˆti
1289  8ec0           mov    es,ax
128b  0e             push   cs
128c  1f             pop    ds
128d  33f6           xor    si,si
128f  33ff           xor    di,di
1291  b9f207         mov    cx,07f2
1294  890e6d0b       mov    [0b6d],cx
1298  e8eb23         call   3686
129b  f3             repz
129c  a4             movsb
129d  a16d0b         mov    ax,[0b6d]
12a0  a30b08         mov    [080b],ax
12a3  a16f0b         mov    ax,[0b6f]            ; segment za‡ tku voln‚ pamˆti
12a6  a30d08         mov    [080d],ax
12a9  b80800         mov    ax,0008
12ac  03060908       add    ax,[0809]
12b0  8b0e0708       mov    cx,[0807]
12b4  f7e1           mul    cx
12b6  e8da01         call   1493                 ; p©epo‡et offsetu na odstavce
12b9  01066f0b       add    [0b6f],ax            ; segment za‡ tku voln‚ pamˆti
12bd  800e431c02     or     byte ptr [1c43],02
12c2  e8c123         call   3686
12c5  e84b05         call   1813
12c8  0e             push   cs
12c9  1f             pop    ds
12ca  a03708         mov    al,[0837]
12cd  32e4           xor    ah,ah
12cf  8bc8           mov    cx,ax
12d1  33db           xor    bx,bx
12d3  b43e           mov    ah,3e                         ;'>'
12d5  cd21           int    21
12d7  bb0200         mov    bx,0002
12da  b43e           mov    ah,3e                         ;'>'
12dc  cd21           int    21
12de  43             inc    bx
12df  e2f9           loop   12da
12e1  bae539         mov    dx,39e5
12e4  b002           mov    al,02
12e6  b43d           mov    ah,3d                         ;'='
12e8  f9             stc
12e9  cd21           int    21
12eb  7305           jnb    12f2
12ed  e83726         call   3927
12f0  eb13           jmp    1305
12f2  50             push   ax
12f3  bb0100         mov    bx,0001
12f6  b43e           mov    ah,3e                         ;'>'
12f8  cd21           int    21
12fa  58             pop    ax
12fb  8bd8           mov    bx,ax
12fd  b445           mov    ah,45                         ;'e'
12ff  cd21           int    21
1301  b445           mov    ah,45                         ;'e'
1303  cd21           int    21
1305  bae939         mov    dx,39e9
1308  b002           mov    al,02
130a  e84d26         call   395a
130d  baed39         mov    dx,39ed
1310  b001           mov    al,01
1312  e84526         call   395a
1315  803e7108fd     cmp    byte ptr [0871],fd   ; ‡¡slo syst‚mov‚ho modelu po‡¡ta‡e
131a  7441           jz     135d
131c  50             push   ax
131d  53             push   bx
131e  52             push   dx
131f  06             push   es
1320  b0ff           mov    al,ff
1322  baf202         mov    dx,02f2
1325  ee             out    dx,al
1326  42             inc    dx
1327  ee             out    dx,al
1328  42             inc    dx
1329  ee             out    dx,al
132a  42             inc    dx
132b  ee             out    dx,al
132c  42             inc    dx
132d  ee             out    dx,al
132e  42             inc    dx
132f  ee             out    dx,al
1330  b800f0         mov    ax,f000
1333  8ec0           mov    es,ax
1335  26803efefffc   cmp    byte ptr es:[fffe],fc
133b  740d           jz     134a
133d  b4c0           mov    ah,c0
133f  cd15           int    15
1341  7216           jb     1359
1343  26f6470540     test   byte ptr es:[bx+05],40        ;'@'
1348  740f           jz     1359
134a  b0ff           mov    al,ff
134c  baf206         mov    dx,06f2
134f  ee             out    dx,al
1350  42             inc    dx
1351  ee             out    dx,al
1352  42             inc    dx
1353  ee             out    dx,al
1354  42             inc    dx
1355  42             inc    dx
1356  ee             out    dx,al
1357  42             inc    dx
1358  ee             out    dx,al
1359  07             pop    es
135a  5a             pop    dx
135b  5b             pop    bx
135c  58             pop    ax
135d  50             push   ax
135e  a16f0b         mov    ax,[0b6f]            ; segment za‡ tku voln‚ pamˆti
1361  2b06730b       sub    ax,[0b73]            ; segment za‡ tku voln‚ pamˆti
1365  a36b0b         mov    [0b6b],ax
1368  b054           mov    al,54                         ;'t'
136a  e85608         call   1bc3
136d  58             pop    ax
136e  8b3e6f0b       mov    di,[0b6f]            ; segment za‡ tku voln‚ pamˆti
1372  8ec7           mov    es,di
1374  893ea10a       mov    [0aa1],di
1378  33ff           xor    di,di
137a  893e9f0a       mov    [0a9f],di
137e  be9f14         mov    si,149f
1381  b98100         mov    cx,0081
1384  90             nop
1385  010e6d0b       add    [0b6d],cx
1389  2e800e431c02   or     byte ptr cs:[1c43],02
138f  e8f422         call   3686
1392  f3             repz
1393  a4             movsb
1394  c706a30a6414   mov    word ptr [0aa3],1464
139a  8c0ea50a       mov    [0aa5],cs
139e  830e9b0a02     or     word ptr [0a9b],+02
13a3  e8e022         call   3686
13a6  8b1e6f0b       mov    bx,[0b6f]            ; segment za‡ tku voln‚ pamˆti
13aa  a1730b         mov    ax,[0b73]            ; segment za‡ tku voln‚ pamˆti
13ad  a3690b         mov    [0b69],ax
13b0  8ec0           mov    es,ax
13b2  2bd8           sub    bx,ax
13b4  b44a           mov    ah,4a                         ;'j'
13b6  cd21           int    21
13b8  06             push   es
13b9  8cc0           mov    ax,es
13bb  48             dec    ax
13bc  8ec0           mov    es,ax
13be  26c70601000800 mov    word ptr es:[0001],0008
13c5  07             pop    es
13c6  bbffff         mov    bx,ffff
13c9  b448           mov    ah,48                         ;'h'
13cb  cd21           int    21
13cd  b448           mov    ah,48                         ;'h'
13cf  cd21           int    21
13d1  a36f0b         mov    [0b6f],ax            ; segment za‡ tku voln‚ pamˆti
13d4  c7066d0b0000   mov    word ptr [0b6d],0000
13da  8ec0           mov    es,ax
13dc  8b1e3b08       mov    bx,[083b]
13e0  2bd8           sub    bx,ax
13e2  4b             dec    bx
13e3  4b             dec    bx
13e4  b44a           mov    ah,4a                         ;'j'
13e6  cd21           int    21
13e8  bbffff         mov    bx,ffff
13eb  b448           mov    ah,48                         ;'h'
13ed  cd21           int    21
13ef  b448           mov    ah,48                         ;'h'
13f1  cd21           int    21
13f3  a3730b         mov    [0b73],ax            ; segment za‡ tku voln‚ pamˆti
13f6  8e066f0b       mov    es,[0b6f]            ; segment za‡ tku voln‚ pamˆti
13fa  b449           mov    ah,49                         ;'i'
13fc  cd21           int    21
13fe  c3             ret
13ff  56             push   si
1400  06             push   es
1401  1e             push   ds
1402  07             pop    es
1403  1f             pop    ds
1404  8bd6           mov    dx,si
1406  33c9           xor    cx,cx
1408  fc             cld
1409  2ec606be0a20   mov    byte ptr cs:[0abe],20         ;' '
140f  bfbf0a         mov    di,0abf
1412  ac             lodsb
1413  3c00           cmp    al,00
1415  7402           jz     1419
1417  ebf9           jmp    1412
1419  ac             lodsb
141a  268805         mov    es:[di],al
141d  3c0a           cmp    al,0a
141f  7405           jz     1426
1421  fec1           inc    cl
1423  47             inc    di
1424  ebf3           jmp    1419
1426  2e880ebd0a     mov    cs:[0abd],cl
142b  80f900         cmp    cl,00
142e  7506           jnz    1436
1430  2ec606be0a0d   mov    byte ptr cs:[0abe],0d
1436  2ec70600000000 mov    word ptr cs:[0000],0000
143d  8cc8           mov    ax,cs
143f  2ea30f0b       mov    cs:[0b0f],ax
1443  2ea3130b       mov    cs:[0b13],ax
1447  2ea3170b       mov    cs:[0b17],ax
144b  2ea31b0b       mov    cs:[0b1b],ax
144f  e88200         call   14d4
1452  26a3a70a       mov    es:[0aa7],ax
1456  33c0           xor    ax,ax
1458  b44b           mov    ah,4b                         ;'k'
145a  bb0f0b         mov    bx,0b0f
145d  06             push   es
145e  1e             push   ds
145f  2eff2e9f0a     jmp    far cs:[0a9f]
1464  5e             pop    si
1465  06             push   es
1466  1e             push   ds
1467  07             pop    es
1468  1f             pop    ds
1469  7311           jnb    147c
146b  2ef7069b0a0400 test   word ptr cs:[0a9b],0004
1472  751d           jnz    1491
1474  56             push   si
1475  e8b324         call   392b
1478  5e             pop    si
1479  eb17           jmp    1492
147b  90             nop
147c  2ef7069b0a0400 test   word ptr cs:[0a9b],0004
1483  750d           jnz    1492
1485  b44d           mov    ah,4d                         ;'m'
1487  cd21           int    21
1489  80fc03         cmp    ah,03
148c  7404           jz     1492
148e  e89f1b         call   3030
1491  f9             stc
1492  c3             ret



                                                 ; p©epo‡et offsetu na odstavce

1493  050f00         add    ax,000f              ; zaokrouhlen¡ AX na odstavec
1496  d1d8           rcr    ax,1                 ; AX/2
1498  d1e8           shr    ax,1                 ; AX/4
149a  d1e8           shr    ax,1                 ; AX/8
149c  d1e8           shr    ax,1                 ; AX/16
149e  c3             ret


149f  2e8c166200     mov    cs:[0062],ss
14a4  2e89266400     mov    cs:[0064],sp
14a9  cd21           int    21
14ab  2e8e166200     mov    ss,cs:[0062]
14b0  2e8b266400     mov    sp,cs:[0064]
14b5  1f             pop    ds
14b6  07             pop    es
14b7  7216           jb     14cf
14b9  e81800         call   14d4
14bc  263906a70a     cmp    es:[0aa7],ax
14c1  740c           jz     14cf
14c3  b409           mov    ah,09
14c5  0e             push   cs
14c6  1f             pop    ds
14c7  ba6600         mov    dx,0066
14ca  90             nop
14cb  cd21           int    21
14cd  ebfe           jmp    14cd
14cf  26ff2ea30a     jmp    far es:[0aa3]
14d4  1e             push   ds
14d5  26a13b08       mov    ax,es:[083b]
14d9  8ed8           mov    ds,ax
14db  33f6           xor    si,si
14dd  33c0           xor    ax,ax
14df  268b0e9d0a     mov    cx,es:[0a9d]
14e4  d1e9           shr    cx,1
14e6  7406           jz     14ee
14e8  0304           add    ax,[si]
14ea  46             inc    si
14eb  46             inc    si
14ec  e2fa           loop   14e8
14ee  be910c         mov    si,0c91
14f1  b9da3e         mov    cx,3eda
14f4  2bce           sub    cx,si
14f6  d1e9           shr    cx,1
14f8  260304         add    ax,es:[si]
14fb  46             inc    si
14fc  46             inc    si
14fd  e2f9           loop   14f8
14ff  1f             pop    ds
1500  c3             ret

1500  C3 00 00 00 00 0D 0A 4D-65 6D 6F 72 79 20 61 6C  C......Memory al
1510  6C 6F 63 61 74 69 6F 6E-20 65 72 72 6F 72 20 24  location error $


1512  63             db     63
1513  61             popa
1514  7469           jz     157f
1516  6f             outsw
1517  6e             outsb
1518  206572         and    [di+72],ah
151b  726f           jb     158c
151d  7220           jb     153f
151f  2406           and    al,06
1521  57             push   di
1522  56             push   si
1523  53             push   bx
1524  33ff           xor    di,di
1526  8ec7           mov    es,di
1528  268b3e9c01     mov    di,es:[019c]
152d  26a19e01       mov    ax,es:[019e]
1531  0bc7           or     ax,di
1533  7503           jnz    1538
1535  e9d700         jmp    160f
1538  2ec43ef507     les    di,cs:[07f5]
153d  26c47d12       les    di,es:[di+12]
1541  b440           mov    ah,40                         ;'@'
1543  cd67           int    67
1545  0ae4           or     ah,ah
1547  7403           jz     154c
1549  e9c300         jmp    160f
154c  b446           mov    ah,46                         ;'f'
154e  cd67           int    67
1550  3c40           cmp    al,40                         ;'@'
1552  7303           jnb    1557
1554  e9b800         jmp    160f
1557  e8d301         call   172d
155a  2ea12508       mov    ax,cs:[0825]
155e  2689450d       mov    es:[di+0d],ax
1562  2ea12708       mov    ax,cs:[0827]
1566  2689450f       mov    es:[di+0f],ax
156a  2ea12108       mov    ax,cs:[0821]
156e  26894511       mov    es:[di+11],ax
1572  2ea12308       mov    ax,cs:[0823]
1576  26894513       mov    es:[di+13],ax
157a  2ea12908       mov    ax,cs:[0829]
157e  26894515       mov    es:[di+15],ax
1582  26c6450c01     mov    byte ptr es:[di+0c],01
1587  7303           jnb    158c
1589  e98300         jmp    160f
158c  b44f           mov    ah,4f                         ;'o'
158e  b002           mov    al,02
1590  bb0100         mov    bx,0001
1593  cd67           int    67
1595  0ae4           or     ah,ah
1597  7576           jnz    160f
1599  3c0c           cmp    al,0c
159b  7772           ja     160f
159d  b442           mov    ah,42                         ;'b'
159f  cd67           int    67
15a1  33d2           xor    dx,dx
15a3  2ea11208       mov    ax,cs:[0812]
15a7  b91e00         mov    cx,001e
15aa  e85e02         call   180b
15ad  3bd8           cmp    bx,ax
15af  725e           jb     160f
15b1  2ea31608       mov    cs:[0816],ax
15b5  8bd8           mov    bx,ax
15b7  f7e1           mul    cx
15b9  2ea31208       mov    cs:[0812],ax
15bd  b443           mov    ah,43                         ;'c'
15bf  cd67           int    67
15c1  0ae4           or     ah,ah
15c3  754a           jnz    160f
15c5  b453           mov    ah,53                         ;'s'
15c7  b001           mov    al,01
15c9  06             push   es
15ca  57             push   di
15cb  1e             push   ds
15cc  0e             push   cs
15cd  1f             pop    ds
15ce  be780a         mov    si,0a78
15d1  cd67           int    67
15d3  1f             pop    ds
15d4  5f             pop    di
15d5  07             pop    es
15d6  32e4           xor    ah,ah
15d8  26886517       mov    es:[di+17],ah
15dc  26895518       mov    es:[di+18],dx
15e0  2ea17608       mov    ax,cs:[0876]
15e4  2689451e       mov    es:[di+1e],ax
15e8  2ea17408       mov    ax,cs:[0874]
15ec  2689451a       mov    es:[di+1a],ax
15f0  8cc0           mov    ax,es
15f2  2ea3820a       mov    cs:[0a82],ax
15f6  2ea3860a       mov    cs:[0a86],ax
15fa  57             push   di
15fb  83c71c         add    di,+1c
15fe  2e893e800a     mov    cs:[0a80],di
1603  5f             pop    di
1604  83c722         add    di,+22
1607  2e893e840a     mov    cs:[0a84],di
160c  f8             clc
160d  eb16           jmp    1625
160f  2ea16f08       mov    ax,cs:[086f]
1613  2eff366508     push   cs:[0865]
1618  2ea36508       mov    cs:[0865],ax
161c  e8111a         call   3030
161f  2e8f066508     pop    cs:[0865]
1624  f9             stc
1625  5b             pop    bx
1626  5e             pop    si
1627  5f             pop    di
1628  07             pop    es
1629  c3             ret
162a  c51f           lds    bx,[bx]
162c  33d2           xor    dx,dx
162e  fec2           inc    dl
1630  c747020000     mov    word ptr [bx+02],0000
1635  368b3e6f0b     mov    di,ss:[0b6f]         ; segment za‡ tku voln‚ pamˆti
163a  897f04         mov    [bx+04],di
163d  c747060000     mov    word ptr [bx+06],0000
1642  8ec7           mov    es,di
1644  33ff           xor    di,di
1646  33c9           xor    cx,cx
1648  33c0           xor    ax,ax
164a  e8b800         call   1705
164d  41             inc    cx
164e  363a162008     cmp    dl,ss:[0820]
1653  7707           ja     165c
1655  363a0e1e08     cmp    cl,ss:[081e]
165a  eb05           jmp    1661
165c  363a0e1f08     cmp    cl,ss:[081f]
1661  750a           jnz    166d
1663  26c7050000     mov    word ptr es:[di],0000
1668  26893e0200     mov    es:[0002],di
166d  8bf8           mov    di,ax
166f  75d9           jnz    164a
1671  3601066d0b     add    ss:[0b6d],ax
1676  36800e431c02   or     byte ptr ss:[1c43],02
167c  e80720         call   3686
167f  83c308         add    bx,+08
1682  36ff0e1808     dec    word ptr ss:[0818]
1687  75a5           jnz    162e
1689  c3             ret
168a  50             push   ax
168b  b82b08         mov    ax,082b
168e  2ea3840a       mov    cs:[0a84],ax
1692  0e             push   cs
1693  2e8f06860a     pop    cs:[0a86]
1698  58             pop    ax
1699  e83701         call   17d3
169c  268b5718       mov    dx,es:[bx+18]
16a0  c537           lds    si,[bx]
16a2  33db           xor    bx,bx
16a4  e85901         call   1800
16a7  2e8b3e7608     mov    di,cs:[0876]
16ac  8ec7           mov    es,di
16ae  33ff           xor    di,di
16b0  33c0           xor    ax,ax
16b2  33c9           xor    cx,cx
16b4  891c           mov    [si],bx
16b6  897c02         mov    [si+02],di
16b9  8c4404         mov    [si+04],es
16bc  c744060000     mov    word ptr [si+06],0000
16c1  51             push   cx
16c2  33c9           xor    cx,cx
16c4  e83e00         call   1705
16c7  41             inc    cx
16c8  83f901         cmp    cx,+01
16cb  7505           jnz    16d2
16cd  2e893e8a0a     mov    cs:[0a8a],di
16d2  83f90f         cmp    cx,+0f
16d5  7514           jnz    16eb
16d7  2eff368a0a     push   cs:[0a8a]
16dc  268f05         pop    es:[di]
16df  57             push   di
16e0  57             push   di
16e1  2e8b3e8a0a     mov    di,cs:[0a8a]
16e6  268f4502       pop    es:[di+02]
16ea  5f             pop    di
16eb  8bf8           mov    di,ax
16ed  75d5           jnz    16c4
16ef  83c608         add    si,+08
16f2  59             pop    cx
16f3  41             inc    cx
16f4  83f902         cmp    cx,+02
16f7  75bb           jnz    16b4
16f9  43             inc    bx
16fa  2e3b1e1608     cmp    bx,cs:[0816]
16ff  75a3           jnz    16a4
1701  e8ea00         call   17ee
1704  c3             ret
1705  36ff36880a     push   ss:[0a88]
170a  268f4502       pop    es:[di+02]
170e  36a3880a       mov    ss:[0a88],ax
1712  3603061c08     add    ax,ss:[081c]
1717  268905         mov    es:[di],ax
171a  26c74504ff00   mov    word ptr es:[di+04],00ff
1720  26c745060000   mov    word ptr es:[di+06],0000
1726  26c745080000   mov    word ptr es:[di+08],0000
172c  c3             ret
172d  06             push   es
172e  50             push   ax
172f  53             push   bx
1730  51             push   cx
1731  52             push   dx
1732  57             push   di
1733  0e             push   cs
1734  07             pop    es
1735  b458           mov    ah,58                         ;'x'
1737  b001           mov    al,01
1739  cd67           int    67
173b  0ae4           or     ah,ah
173d  754d           jnz    178c
173f  83f940         cmp    cx,+40
1742  7748           ja     178c
1744  51             push   cx
1745  b458           mov    ah,58                         ;'x'
1747  b000           mov    al,00
1749  bf7808         mov    di,0878
174c  cd67           int    67
174e  59             pop    cx
174f  0ae4           or     ah,ah
1751  7576           jnz    17c9
1753  33d2           xor    dx,dx
1755  26813d00a0     cmp    word ptr es:[di],a000
175a  724b           jb     17a7
175c  42             inc    dx
175d  83fa01         cmp    dx,+01
1760  750f           jnz    1771
1762  268b05         mov    ax,es:[di]
1765  2ea32108       mov    cs:[0821],ax
1769  268b4502       mov    ax,es:[di+02]
176d  2ea32308       mov    cs:[0823],ax
1771  2ea12108       mov    ax,cs:[0821]
1775  263b05         cmp    ax,es:[di]
1778  7615           jbe    178f
177a  268b05         mov    ax,es:[di]
177d  2ea32108       mov    cs:[0821],ax
1781  268b4502       mov    ax,es:[di+02]
1785  2ea32308       mov    cs:[0823],ax
1789  eb1c           jmp    17a7
178b  90             nop
178c  eb3b           jmp    17c9
178e  90             nop
178f  2ea12508       mov    ax,cs:[0825]
1793  263b05         cmp    ax,es:[di]
1796  770f           ja     17a7
1798  268b05         mov    ax,es:[di]
179b  2ea32508       mov    cs:[0825],ax
179f  268b4502       mov    ax,es:[di+02]
17a3  2ea32708       mov    cs:[0827],ax
17a7  83c704         add    di,+04
17aa  e2a9           loop   1755
17ac  83fa03         cmp    dx,+03
17af  7218           jb     17c9
17b1  2ea12508       mov    ax,cs:[0825]
17b5  2ea37608       mov    cs:[0876],ax
17b9  2ea12708       mov    ax,cs:[0827]
17bd  2ea37408       mov    cs:[0874],ax
17c1  2e89162908     mov    cs:[0829],dx
17c6  f8             clc
17c7  eb03           jmp    17cc
17c9  f9             stc
17ca  eb00           jmp    17cc
17cc  5f             pop    di
17cd  5a             pop    dx
17ce  59             pop    cx
17cf  5b             pop    bx
17d0  58             pop    ax
17d1  07             pop    es
17d2  c3             ret
17d3  50             push   ax
17d4  1e             push   ds
17d5  56             push   si
17d6  06             push   es
17d7  57             push   di
17d8  2ec536800a     lds    si,cs:[0a80]
17dd  2ec43e840a     les    di,cs:[0a84]
17e2  b44f           mov    ah,4f                         ;'o'
17e4  b000           mov    al,00
17e6  cd67           int    67
17e8  5f             pop    di
17e9  07             pop    es
17ea  5e             pop    si
17eb  1f             pop    ds
17ec  58             pop    ax
17ed  c3             ret
17ee  50             push   ax
17ef  1e             push   ds
17f0  56             push   si
17f1  2ec536840a     lds    si,cs:[0a84]
17f6  b44f           mov    ah,4f                         ;'o'
17f8  b001           mov    al,01
17fa  cd67           int    67
17fc  5e             pop    si
17fd  1f             pop    ds
17fe  58             pop    ax
17ff  c3             ret
1800  50             push   ax
1801  b444           mov    ah,44                         ;'d'
1803  2ea07408       mov    al,cs:[0874]
1807  cd67           int    67
1809  58             pop    ax
180a  c3             ret
180b  f7f1           div    cx
180d  0bd2           or     dx,dx
180f  7401           jz     1812
1811  40             inc    ax
1812  c3             ret
1813  50             push   ax
1814  1e             push   ds
1815  06             push   es
1816  53             push   bx
1817  51             push   cx
1818  52             push   dx
1819  57             push   di
181a  56             push   si
181b  55             push   bp
181c  2ea10708       mov    ax,cs:[0807]
1820  26a30200       mov    es:[0002],ax
1824  a10908         mov    ax,[0809]
1827  26a30600       mov    es:[0006],ax
182b  2ea10b08       mov    ax,cs:[080b]
182f  26a30800       mov    es:[0008],ax
1833  2ea10d08       mov    ax,cs:[080d]
1837  26a30a00       mov    es:[000a],ax
183b  268b2e0800     mov    bp,es:[0008]
1840  26892e0c00     mov    es:[000c],bp
1845  b80800         mov    ax,0008
1848  268b0e0200     mov    cx,es:[0002]
184d  f7e1           mul    cx
184f  03c5           add    ax,bp
1851  26a30400       mov    es:[0004],ax
1855  8bd8           mov    bx,ax
1857  83eb02         sub    bx,+02
185a  268b3e0400     mov    di,es:[0004]
185f  26a10600       mov    ax,es:[0006]
1863  f7e1           mul    cx
1865  8bc8           mov    cx,ax
1867  33c0           xor    ax,ax
1869  06             push   es
186a  1f             pop    ds
186b  8e060a00       mov    es,[000a]
186f  fc             cld
1870  f3             repz
1871  aa             stosb
1872  8b0e0200       mov    cx,[0002]
1876  26c6460000     mov    byte ptr es:[bp+00],00
187b  26884601       mov    es:[bp+01],al
187f  26894602       mov    es:[bp+02],ax
1883  26894604       mov    es:[bp+04],ax
1887  031e0600       add    bx,[0006]
188b  26895e06       mov    es:[bp+06],bx
188f  26892f         mov    es:[bx],bp
1892  83c508         add    bp,+08
1895  e2df           loop   1876
1897  83ed08         sub    bp,+08
189a  892e0e00       mov    [000e],bp
189e  892e1000       mov    [0010],bp
18a2  1e             push   ds
18a3  b800f0         mov    ax,f000
18a6  8ed8           mov    ds,ax
18a8  803efefff9     cmp    byte ptr [fffe],f9
18ad  1f             pop    ds
18ae  7504           jnz    18b4
18b0  b007           mov    al,07
18b2  e672           out    72,al                         ;'r'
18b4  33c0           xor    ax,ax
18b6  8ec0           mov    es,ax
18b8  fa             cli
18b9  be0800         mov    si,0008
18bc  bf131d         mov    di,1d13
18bf  bb1200         mov    bx,0012
18c2  ba1600         mov    dx,0016
18c5  e8d402         call   1b9c
18c8  be2000         mov    si,0020
18cb  bf171d         mov    di,1d17
18ce  bba700         mov    bx,00a7
18d1  baab00         mov    dx,00ab
18d4  e8c502         call   1b9c
18d7  be2400         mov    si,0024
18da  bf1b1d         mov    di,1d1b
18dd  bb2101         mov    bx,0121
18e0  ba2501         mov    dx,0125
18e3  e8b602         call   1b9c
18e6  bec001         mov    si,01c0
18e9  bf331d         mov    di,1d33
18ec  bba001         mov    bx,01a0
18ef  baa401         mov    dx,01a4
18f2  e8a702         call   1b9c
18f5  be2800         mov    si,0028
18f8  1e             push   ds
18f9  26c51c         lds    bx,es:[si]
18fc  1e             push   ds
18fd  5a             pop    dx
18fe  83fa00         cmp    dx,+00
1901  7431           jz     1934
1903  803fcf         cmp    byte ptr [bx],cf
1906  742c           jz     1934
1908  817f064b42     cmp    word ptr [bx+06],424b
190d  7416           jz     1925
190f  81fa00f0       cmp    dx,f000
1913  7510           jnz    1925
1915  06             push   es
1916  52             push   dx
1917  ba00f0         mov    dx,f000
191a  8ec2           mov    es,dx
191c  263b1e01ff     cmp    bx,es:[ff01]
1921  5a             pop    dx
1922  07             pop    es
1923  740f           jz     1934
1925  1f             pop    ds
1926  bf1f1d         mov    di,1d1f
1929  bb1c02         mov    bx,021c
192c  ba1a02         mov    dx,021a
192f  e86a02         call   1b9c
1932  eb01           jmp    1935
1934  1f             pop    ds
1935  be2c00         mov    si,002c
1938  1e             push   ds
1939  26c51c         lds    bx,es:[si]
193c  1e             push   ds
193d  5a             pop    dx
193e  83fa00         cmp    dx,+00
1941  7431           jz     1974
1943  803fcf         cmp    byte ptr [bx],cf
1946  742c           jz     1974
1948  817f064b42     cmp    word ptr [bx+06],424b
194d  7416           jz     1965
194f  81fa00f0       cmp    dx,f000
1953  7510           jnz    1965
1955  06             push   es
1956  52             push   dx
1957  ba00f0         mov    dx,f000
195a  8ec2           mov    es,dx
195c  263b1e01ff     cmp    bx,es:[ff01]
1961  5a             pop    dx
1962  07             pop    es
1963  740f           jz     1974
1965  1f             pop    ds
1966  bf231d         mov    di,1d23
1969  bba402         mov    bx,02a4
196c  baa202         mov    dx,02a2
196f  e82a02         call   1b9c
1972  eb01           jmp    1975
1974  1f             pop    ds
1975  be3000         mov    si,0030
1978  1e             push   ds
1979  26c51c         lds    bx,es:[si]
197c  1e             push   ds
197d  5a             pop    dx
197e  83fa00         cmp    dx,+00
1981  7431           jz     19b4
1983  803fcf         cmp    byte ptr [bx],cf
1986  742c           jz     19b4
1988  817f064b42     cmp    word ptr [bx+06],424b
198d  7416           jz     19a5
198f  81fa00f0       cmp    dx,f000
1993  7510           jnz    19a5
1995  06             push   es
1996  52             push   dx
1997  ba00f0         mov    dx,f000
199a  8ec2           mov    es,dx
199c  263b1e01ff     cmp    bx,es:[ff01]
19a1  5a             pop    dx
19a2  07             pop    es
19a3  740f           jz     19b4
19a5  1f             pop    ds
19a6  bf271d         mov    di,1d27
19a9  bb2c03         mov    bx,032c
19ac  ba2a03         mov    dx,032a
19af  e8ea01         call   1b9c
19b2  eb01           jmp    19b5
19b4  1f             pop    ds
19b5  be3400         mov    si,0034
19b8  1e             push   ds
19b9  26c51c         lds    bx,es:[si]
19bc  1e             push   ds
19bd  5a             pop    dx
19be  83fa00         cmp    dx,+00
19c1  7431           jz     19f4
19c3  803fcf         cmp    byte ptr [bx],cf
19c6  742c           jz     19f4
19c8  817f064b42     cmp    word ptr [bx+06],424b
19cd  7416           jz     19e5
19cf  81fa00f0       cmp    dx,f000
19d3  7510           jnz    19e5
19d5  06             push   es
19d6  52             push   dx
19d7  ba00f0         mov    dx,f000
19da  8ec2           mov    es,dx
19dc  263b1e01ff     cmp    bx,es:[ff01]
19e1  5a             pop    dx
19e2  07             pop    es
19e3  740f           jz     19f4
19e5  1f             pop    ds
19e6  bf2b1d         mov    di,1d2b
19e9  bbb403         mov    bx,03b4
19ec  bab203         mov    dx,03b2
19ef  e8aa01         call   1b9c
19f2  eb01           jmp    19f5
19f4  1f             pop    ds
19f5  be3800         mov    si,0038
19f8  1e             push   ds
19f9  26c51c         lds    bx,es:[si]
19fc  1e             push   ds
19fd  5a             pop    dx
19fe  83fa00         cmp    dx,+00
1a01  7431           jz     1a34
1a03  803fcf         cmp    byte ptr [bx],cf
1a06  742c           jz     1a34
1a08  817f064b42     cmp    word ptr [bx+06],424b
1a0d  7416           jz     1a25
1a0f  81fa00f0       cmp    dx,f000
1a13  7510           jnz    1a25
1a15  06             push   es
1a16  52             push   dx
1a17  ba00f0         mov    dx,f000
1a1a  8ec2           mov    es,dx
1a1c  263b1e01ff     cmp    bx,es:[ff01]
1a21  5a             pop    dx
1a22  07             pop    es
1a23  740f           jz     1a34
1a25  1f             pop    ds
1a26  bf2f1d         mov    di,1d2f
1a29  bb3c04         mov    bx,043c
1a2c  ba3a04         mov    dx,043a
1a2f  e86a01         call   1b9c
1a32  eb01           jmp    1a35
1a34  1f             pop    ds
1a35  bec801         mov    si,01c8
1a38  1e             push   ds
1a39  26c51c         lds    bx,es:[si]
1a3c  1e             push   ds
1a3d  5a             pop    dx
1a3e  83fa00         cmp    dx,+00
1a41  7431           jz     1a74
1a43  803fcf         cmp    byte ptr [bx],cf
1a46  742c           jz     1a74
1a48  817f064b42     cmp    word ptr [bx+06],424b
1a4d  7416           jz     1a65
1a4f  81fa00f0       cmp    dx,f000
1a53  7510           jnz    1a65
1a55  06             push   es
1a56  52             push   dx
1a57  ba00f0         mov    dx,f000
1a5a  8ec2           mov    es,dx
1a5c  263b1e01ff     cmp    bx,es:[ff01]
1a61  5a             pop    dx
1a62  07             pop    es
1a63  740f           jz     1a74
1a65  1f             pop    ds
1a66  bf371d         mov    di,1d37
1a69  bbc404         mov    bx,04c4
1a6c  bac204         mov    dx,04c2
1a6f  e82a01         call   1b9c
1a72  eb01           jmp    1a75
1a74  1f             pop    ds
1a75  becc01         mov    si,01cc
1a78  1e             push   ds
1a79  26c51c         lds    bx,es:[si]
1a7c  1e             push   ds
1a7d  5a             pop    dx
1a7e  83fa00         cmp    dx,+00
1a81  7431           jz     1ab4
1a83  803fcf         cmp    byte ptr [bx],cf
1a86  742c           jz     1ab4
1a88  817f064b42     cmp    word ptr [bx+06],424b
1a8d  7416           jz     1aa5
1a8f  81fa00f0       cmp    dx,f000
1a93  7510           jnz    1aa5
1a95  06             push   es
1a96  52             push   dx
1a97  ba00f0         mov    dx,f000
1a9a  8ec2           mov    es,dx
1a9c  263b1e01ff     cmp    bx,es:[ff01]
1aa1  5a             pop    dx
1aa2  07             pop    es
1aa3  740f           jz     1ab4
1aa5  1f             pop    ds
1aa6  bf3b1d         mov    di,1d3b
1aa9  bb4c05         mov    bx,054c
1aac  ba4a05         mov    dx,054a
1aaf  e8ea00         call   1b9c
1ab2  eb01           jmp    1ab5
1ab4  1f             pop    ds
1ab5  bed001         mov    si,01d0
1ab8  1e             push   ds
1ab9  26c51c         lds    bx,es:[si]
1abc  1e             push   ds
1abd  5a             pop    dx
1abe  83fa00         cmp    dx,+00
1ac1  7431           jz     1af4
1ac3  803fcf         cmp    byte ptr [bx],cf
1ac6  742c           jz     1af4
1ac8  817f064b42     cmp    word ptr [bx+06],424b
1acd  7416           jz     1ae5
1acf  81fa00f0       cmp    dx,f000
1ad3  7510           jnz    1ae5
1ad5  06             push   es
1ad6  52             push   dx
1ad7  ba00f0         mov    dx,f000
1ada  8ec2           mov    es,dx
1adc  263b1e01ff     cmp    bx,es:[ff01]
1ae1  5a             pop    dx
1ae2  07             pop    es
1ae3  740f           jz     1af4
1ae5  1f             pop    ds
1ae6  bf3f1d         mov    di,1d3f
1ae9  bbd405         mov    bx,05d4
1aec  bad205         mov    dx,05d2
1aef  e8aa00         call   1b9c
1af2  eb01           jmp    1af5
1af4  1f             pop    ds
1af5  bed801         mov    si,01d8
1af8  1e             push   ds
1af9  26c51c         lds    bx,es:[si]
1afc  1e             push   ds
1afd  5a             pop    dx
1afe  83fa00         cmp    dx,+00
1b01  7431           jz     1b34
1b03  803fcf         cmp    byte ptr [bx],cf
1b06  742c           jz     1b34
1b08  817f064b42     cmp    word ptr [bx+06],424b
1b0d  7416           jz     1b25
1b0f  81fa00f0       cmp    dx,f000
1b13  7510           jnz    1b25
1b15  06             push   es
1b16  52             push   dx
1b17  ba00f0         mov    dx,f000
1b1a  8ec2           mov    es,dx
1b1c  263b1e01ff     cmp    bx,es:[ff01]
1b21  5a             pop    dx
1b22  07             pop    es
1b23  740f           jz     1b34
1b25  1f             pop    ds
1b26  bf431d         mov    di,1d43
1b29  bb5c06         mov    bx,065c
1b2c  ba5a06         mov    dx,065a
1b2f  e86a00         call   1b9c
1b32  eb01           jmp    1b35
1b34  1f             pop    ds
1b35  bedc01         mov    si,01dc
1b38  1e             push   ds
1b39  26c51c         lds    bx,es:[si]
1b3c  1e             push   ds
1b3d  5a             pop    dx
1b3e  83fa00         cmp    dx,+00
1b41  7431           jz     1b74
1b43  803fcf         cmp    byte ptr [bx],cf
1b46  742c           jz     1b74
1b48  817f064b42     cmp    word ptr [bx+06],424b
1b4d  7416           jz     1b65
1b4f  81fa00f0       cmp    dx,f000
1b53  7510           jnz    1b65
1b55  06             push   es
1b56  52             push   dx
1b57  ba00f0         mov    dx,f000
1b5a  8ec2           mov    es,dx
1b5c  263b1e01ff     cmp    bx,es:[ff01]
1b61  5a             pop    dx
1b62  07             pop    es
1b63  740f           jz     1b74
1b65  1f             pop    ds
1b66  bf471d         mov    di,1d47
1b69  bbe406         mov    bx,06e4
1b6c  bae206         mov    dx,06e2
1b6f  e82a00         call   1b9c
1b72  eb01           jmp    1b75
1b74  1f             pop    ds
1b75  1e             push   ds
1b76  b800f0         mov    ax,f000
1b79  8ed8           mov    ds,ax
1b7b  803efefff9     cmp    byte ptr [fffe],f9
1b80  1f             pop    ds
1b81  7504           jnz    1b87
1b83  b027           mov    al,27                         ;'''
1b85  e672           out    72,al                         ;'r'
1b87  fb             sti
1b88  b87000         mov    ax,0070
1b8b  8ed8           mov    ds,ax
1b8d  c606121d01     mov    byte ptr [1d12],01
1b92  5d             pop    bp
1b93  5e             pop    si
1b94  5f             pop    di
1b95  5a             pop    dx
1b96  59             pop    cx
1b97  5b             pop    bx
1b98  07             pop    es
1b99  1f             pop    ds
1b9a  58             pop    ax
1b9b  c3             ret
1b9c  268b04         mov    ax,es:[si]
1b9f  8907           mov    [bx],ax
1ba1  268b4402       mov    ax,es:[si+02]
1ba5  894702         mov    [bx+02],ax
1ba8  1e             push   ds
1ba9  b87000         mov    ax,0070
1bac  8ed8           mov    ds,ax
1bae  268b04         mov    ax,es:[si]
1bb1  8905           mov    [di],ax
1bb3  268b4402       mov    ax,es:[si+02]
1bb7  894502         mov    [di+02],ax
1bba  1f             pop    ds
1bbb  268914         mov    es:[si],dx
1bbe  268c5c02       mov    es:[si+02],ds
1bc2  c3             ret
1bc3  06             push   es
1bc4  51             push   cx
1bc5  2e8b0e6f0b     mov    cx,cs:[0b6f]         ; segment za‡ tku voln‚ pamˆti
1bca  2e890e411c     mov    cs:[1c41],cx
1bcf  8ec1           mov    es,cx
1bd1  26a20000       mov    es:[0000],al
1bd5  41             inc    cx
1bd6  26890e0100     mov    es:[0001],cx
1bdb  59             pop    cx
1bdc  07             pop    es
1bdd  2eff066f0b     inc    word ptr cs:[0b6f]   ; segment za‡ tku voln‚ pamˆti
1be2  c3             ret
1be3  803e060801     cmp    byte ptr [0806],01
1be8  754e           jnz    1c38
1bea  b80010         mov    ax,1000
1bed  cd2f           int    2f
1bef  3cff           cmp    al,ff
1bf1  7445           jz     1c38
1bf3  0e             push   cs
1bf4  1f             pop    ds
1bf5  0e             push   cs
1bf6  07             pop    es
1bf7  be4a3a         mov    si,3a4a
1bfa  bf8a3a         mov    di,3a8a
1bfd  a4             movsb
1bfe  807dff00       cmp    byte ptr [di-01],00
1c02  75f9           jnz    1bfd
1c04  be8a3a         mov    si,3a8a
1c07  4f             dec    di
1c08  803d5c         cmp    byte ptr [di],5c              ;'\'
1c0b  740b           jz     1c18
1c0d  803d3a         cmp    byte ptr [di],3a              ;':'
1c10  7406           jz     1c18
1c12  3bfe           cmp    di,si
1c14  7403           jz     1c19
1c16  ebef           jmp    1c07
1c18  47             inc    di
1c19  beca3a         mov    si,3aca              ; jm‚no souboru 'SHARE.EXE'
1c1c  a4             movsb
1c1d  807dff0a       cmp    byte ptr [di-01],0a
1c21  75f9           jnz    1c1c
1c23  be8a3a         mov    si,3a8a
1c26  830e9b0a04     or     word ptr [0a9b],+04
1c2b  e8d1f7         call   13ff
1c2e  7308           jnb    1c38
1c30  0e             push   cs
1c31  1f             pop    ds
1c32  baa83e         mov    dx,3ea8              ; text "WARNING! SHARE SHOULD..."
1c35  e81d1d         call   3955                 ; zobrazen¡ textu na displej
1c38  c3             ret

1C30  0E 1F BA A8 3E E8 1D 1D-C3 00 00 00 00 00 00 00  ..:(>h..C.......
1C40  00 00 00 00 00 00 00 00-00 58 4D 41 45 4D 2E 53  .........XMAEM.S
1C50  59 53 00 00 00 00 00 00-00 00 00 00 00 00 00 00  YS..............
1C60  00 00 00 00 00 00 00 00-00 00 00 00 00 00 00 00  ................
1C70  00 00 00 00 00 00 00 00-00 00 00 00 00 00 00 00  ................
1C80  00 00 00 00 00 00 00 00-00 00 00 00 00 00 00 00  ................
1C90  00 00 00 00 00 00 00 00-00 00 00 00 00 00 00 00  ................
1CA0  00 00 00 00 00 00 00 00-00 00 00 00 00 00 00 00  ................
1CB0  00 00 00 00 00 00 00 00-00 00 00 00 00 00 00 00  ................
1CC0  00 00 00 00 00 00 00 00-00 00 00 00 00 00 00 00  ................
1CD0  00 00 00 00 00 00 00 00-00 00 00 00 00 00 00 00  ................
1CE0  00 00 00 00 00 00 00 00-00 00 FF 00 00 00 00 5B  ...............[
1CF0  5D 7C 3C 3E 2B 3D 3B 22-00 2E C7 06 60 1C 00 00  ]|<>+=;"..G.`...
1D00  FC 2E 89 0E 53 1C 2E C7-06 55 1C 00 00 2E C7 06  |...S..G.U....G.




1ce8  0000           add    [bx+si],al
1cea  ff00           inc    word ptr [bx+si]
1cec  0000           add    [bx+si],al
1cee  005b5d         add    [bp+di+5d],bl
1cf1  7c3c           jl     1d2f
1cf3  3e2b3d         sub    di,ds:[di]
1cf6  3b22           cmp    sp,[bp+si]
1cf8  002ec706       add    [06c7],ch
1cfc  60             pusha
1cfd  1c00           sbb    al,00
1cff  00fc           add    ah,bh
1d01  2e890e531c     mov    cs:[1c53],cx
1d06  2ec706551c0000 mov    word ptr cs:[1c55],0000
1d0d  2ec706681c0000 mov    word ptr cs:[1c68],0000
1d14  2ec706591c0000 mov    word ptr cs:[1c59],0000
1d1b  e8c906         call   23e7
1d1e  7313           jnb    1d33
1d20  b8ffff         mov    ax,ffff
1d23  53             push   bx
1d24  268b1d         mov    bx,es:[di]
1d27  263a0f         cmp    cl,es:[bx]
1d2a  7303           jnb    1d2f
1d2c  b80200         mov    ax,0002
1d2f  5b             pop    bx
1d30  e91d01         jmp    1e50
1d33  2e8936621c     mov    cs:[1c62],si
1d38  53             push   bx
1d39  57             push   di
1d3a  55             push   bp
1d3b  8d1e6a1c       lea    bx,[1c6a]
1d3f  2ef606611c20   test   byte ptr cs:[1c61],20         ;' '
1d45  7543           jnz    1d8a
1d47  ac             lodsb
1d48  e85907         call   24a4
1d4b  723c           jb     1d89
1d4d  e8bd06         call   240d
1d50  7437           jz     1d89
1d52  e8ee06         call   2443
1d55  7518           jnz    1d6f
1d57  2ef606611c20   test   byte ptr cs:[1c61],20         ;' '
1d5d  7505           jnz    1d64
1d5f  e88506         call   23e7
1d62  eb26           jmp    1d8a
1d64  2ef606611c41   test   byte ptr cs:[1c61],41         ;'a'
1d6a  741e           jz     1d8a
1d6c  4e             dec    si
1d6d  eb1b           jmp    1d8a
1d6f  2e8807         mov    cs:[bx],al
1d72  3c3d           cmp    al,3d                         ;'='
1d74  7506           jnz    1d7c
1d76  2e800e611c01   or     byte ptr cs:[1c61],01
1d7c  43             inc    bx
1d7d  e84207         call   24c2
1d80  73c5           jnb    1d47
1d82  ac             lodsb
1d83  2e8807         mov    cs:[bx],al
1d86  43             inc    bx
1d87  ebbe           jmp    1d47
1d89  4e             dec    si
1d8a  2e8936571c     mov    cs:[1c57],si
1d8f  2ec60700       mov    byte ptr cs:[bx],00
1d93  2e891e661c     mov    cs:[1c66],bx
1d98  268b1d         mov    bx,es:[di]
1d9b  8d366a1c       lea    si,[1c6a]
1d9f  2e803c2f       cmp    byte ptr cs:[si],2f           ;'/'
1da3  7430           jz     1dd5
1da5  2ef606611c01   test   byte ptr cs:[1c61],01
1dab  7554           jnz    1e01
1dad  268a4701       mov    al,es:[bx+01]
1db1  32e4           xor    ah,ah
1db3  2e3906531c     cmp    cs:[1c53],ax
1db8  7312           jnb    1dcc
1dba  2ea1531c       mov    ax,cs:[1c53]
1dbe  d1e0           shl    ax,1
1dc0  43             inc    bx
1dc1  43             inc    bx
1dc2  03d8           add    bx,ax
1dc4  268b1f         mov    bx,es:[bx]
1dc7  e88800         call   1e52
1dca  eb69           jmp    1e35
1dcc  2ec706551c0100 mov    word ptr cs:[1c55],0001
1dd3  eb60           jmp    1e35
1dd5  268a4701       mov    al,es:[bx+01]
1dd9  32e4           xor    ah,ah
1ddb  40             inc    ax
1ddc  d1e0           shl    ax,1
1dde  03d8           add    bx,ax
1de0  268a0f         mov    cl,es:[bx]
1de3  32ed           xor    ch,ch
1de5  0bc9           or     cx,cx
1de7  740f           jz     1df8
1de9  43             inc    bx
1dea  53             push   bx
1deb  268b1f         mov    bx,es:[bx]
1dee  e8c600         call   1eb7
1df1  5b             pop    bx
1df2  7341           jnb    1e35
1df4  43             inc    bx
1df5  43             inc    bx
1df6  e2f2           loop   1dea
1df8  2ec706551c0300 mov    word ptr cs:[1c55],0003
1dff  eb34           jmp    1e35
1e01  268a4701       mov    al,es:[bx+01]
1e05  32e4           xor    ah,ah
1e07  40             inc    ax
1e08  d1e0           shl    ax,1
1e0a  03d8           add    bx,ax
1e0c  268a07         mov    al,es:[bx]
1e0f  32e4           xor    ah,ah
1e11  d1e0           shl    ax,1
1e13  40             inc    ax
1e14  03d8           add    bx,ax
1e16  268a0f         mov    cl,es:[bx]
1e19  32ed           xor    ch,ch
1e1b  0bc9           or     cx,cx
1e1d  740f           jz     1e2e
1e1f  43             inc    bx
1e20  53             push   bx
1e21  268b1f         mov    bx,es:[bx]
1e24  e85d00         call   1e84
1e27  5b             pop    bx
1e28  730b           jnb    1e35
1e2a  43             inc    bx
1e2b  43             inc    bx
1e2c  e2f2           loop   1e20
1e2e  2ec706551c0400 mov    word ptr cs:[1c55],0004
1e35  5d             pop    bp
1e36  5f             pop    di
1e37  5b             pop    bx
1e38  2e8b0e531c     mov    cx,cs:[1c53]
1e3d  2ea1551c       mov    ax,cs:[1c55]
1e41  2e8b36571c     mov    si,cs:[1c57]
1e46  2e8b16591c     mov    dx,cs:[1c59]
1e4b  2e8a1e5b1c     mov    bl,cs:[1c5b]
1e50  f8             clc
1e51  c3             ret
1e52  50             push   ax
1e53  268b07         mov    ax,es:[bx]
1e56  a90200         test   ax,0002
1e59  7505           jnz    1e60
1e5b  2eff06531c     inc    word ptr cs:[1c53]
1e60  2e803c00       cmp    byte ptr cs:[si],00
1e64  7519           jnz    1e7f
1e66  a90100         test   ax,0001
1e69  7509           jnz    1e74
1e6b  2ec706551c0200 mov    word ptr cs:[1c55],0002
1e72  eb0e           jmp    1e82
1e74  50             push   ax
1e75  b003           mov    al,03
1e77  b4ff           mov    ah,ff
1e79  e89e00         call   1f1a
1e7c  58             pop    ax
1e7d  eb03           jmp    1e82
1e7f  e81d01         call   1f9f
1e82  58             pop    ax
1e83  c3             ret
1e84  f9             stc
1e85  c3             ret
1e86  55             push   bp
1e87  51             push   cx
1e88  268a4f08       mov    cl,es:[bx+08]
1e8c  32ed           xor    ch,ch
1e8e  0bc9           or     cx,cx
1e90  740d           jz     1e9f
1e92  8d6f09         lea    bp,[bx+09]
1e95  e8e203         call   227a
1e98  7308           jnb    1ea2
1e9a  e80e00         call   1eab
1e9d  e2f6           loop   1e95
1e9f  f9             stc
1ea0  eb06           jmp    1ea8
1ea2  2e892e681c     mov    cs:[1c68],bp
1ea7  f8             clc
1ea8  59             pop    cx
1ea9  5d             pop    bp
1eaa  c3             ret
1eab  26807e0000     cmp    byte ptr es:[bp+00],00
1eb0  7403           jz     1eb5
1eb2  45             inc    bp
1eb3  ebf6           jmp    1eab
1eb5  45             inc    bp
1eb6  c3             ret
1eb7  2e800e611c10   or     byte ptr cs:[1c61],10
1ebd  e8c6ff         call   1e86
1ec0  724a           jb     1f0c
1ec2  2e8026611cef   and    byte ptr cs:[1c61],ef
1ec8  50             push   ax
1ec9  2ea1641c       mov    ax,cs:[1c64]
1ecd  2bc6           sub    ax,si
1ecf  2e0106621c     add    cs:[1c62],ax
1ed4  58             pop    ax
1ed5  2e8b36641c     mov    si,cs:[1c64]
1eda  2e803c00       cmp    byte ptr cs:[si],00
1ede  7526           jnz    1f06
1ee0  2e807cff3a     cmp    byte ptr cs:[si-01],3a        ;':'
1ee5  7509           jnz    1ef0
1ee7  2ec706551c0900 mov    word ptr cs:[1c55],0009
1eee  eb1f           jmp    1f0f
1ef0  26833f00       cmp    word ptr es:[bx],+00
1ef4  7419           jz     1f0f
1ef6  26f7070100     test   word ptr es:[bx],0001
1efb  7512           jnz    1f0f
1efd  2ec706551c0200 mov    word ptr cs:[1c55],0002
1f04  eb09           jmp    1f0f
1f06  e89600         call   1f9f
1f09  f8             clc
1f0a  eb0d           jmp    1f19
1f0c  f9             stc
1f0d  eb0a           jmp    1f19
1f0f  50             push   ax
1f10  b003           mov    al,03
1f12  b4ff           mov    ah,ff
1f14  e80300         call   1f1a
1f17  58             pop    ax
1f18  f8             clc
1f19  c3             ret
1f1a  57             push   di
1f1b  268b7f04       mov    di,es:[bx+04]
1f1f  2e893e591c     mov    cs:[1c59],di
1f24  268805         mov    es:[di],al
1f27  26886501       mov    es:[di+01],ah
1f2b  50             push   ax
1f2c  2ea1681c       mov    ax,cs:[1c68]
1f30  26894502       mov    es:[di+02],ax
1f34  58             pop    ax
1f35  3c01           cmp    al,01
1f37  750a           jnz    1f43
1f39  26895504       mov    es:[di+04],dx
1f3d  26894d06       mov    es:[di+06],cx
1f41  eb5a           jmp    1f9d
1f43  3c02           cmp    al,02
1f45  7506           jnz    1f4d
1f47  26895504       mov    es:[di+04],dx
1f4b  eb50           jmp    1f9d
1f4d  3c07           cmp    al,07
1f4f  74e8           jz     1f39
1f51  3c08           cmp    al,08
1f53  74e4           jz     1f39
1f55  3c06           cmp    al,06
1f57  7506           jnz    1f5f
1f59  26885504       mov    es:[di+04],dl
1f5d  eb3e           jmp    1f9d
1f5f  3c04           cmp    al,04
1f61  750f           jnz    1f72
1f63  2ea1621c       mov    ax,cs:[1c62]
1f67  40             inc    ax
1f68  26894504       mov    es:[di+04],ax
1f6c  268c5d06       mov    es:[di+06],ds
1f70  eb2b           jmp    1f9d
1f72  26897504       mov    es:[di+04],si
1f76  268c4d06       mov    es:[di+06],cs
1f7a  50             push   ax
1f7b  26f6470201     test   byte ptr es:[bx+02],01
1f80  7404           jz     1f86
1f82  b004           mov    al,04
1f84  eb09           jmp    1f8f
1f86  26f6470202     test   byte ptr es:[bx+02],02
1f8b  7405           jz     1f92
1f8d  b002           mov    al,02
1f8f  e8e500         call   2077
1f92  58             pop    ax
1f93  26f6470210     test   byte ptr es:[bx+02],10
1f98  7403           jz     1f9d
1f9a  e8b400         call   2051
1f9d  5f             pop    di
1f9e  c3             ret
1f9f  2ec606f81c00   mov    byte ptr cs:[1cf8],00
1fa5  50             push   ax
1fa6  268b07         mov    ax,es:[bx]
1fa9  0bc0           or     ax,ax
1fab  7518           jnz    1fc5
1fad  50             push   ax
1fae  53             push   bx
1faf  52             push   dx
1fb0  57             push   di
1fb1  2ec706551c0900 mov    word ptr cs:[1c55],0009
1fb8  b4ff           mov    ah,ff
1fba  b003           mov    al,03
1fbc  e85bff         call   1f1a
1fbf  5f             pop    di
1fc0  5a             pop    dx
1fc1  5b             pop    bx
1fc2  58             pop    ax
1fc3  eb02           jmp    1fc7
1fc5  eb03           jmp    1fca
1fc7  eb6f           jmp    2038
1fc9  90             nop
1fca  a90080         test   ax,8000
1fcd  7412           jz     1fe1
1fcf  2ec706551c0000 mov    word ptr cs:[1c55],0000
1fd6  e82601         call   20ff
1fd9  2e833e551c09   cmp    word ptr cs:[1c55],+09
1fdf  7557           jnz    2038
1fe1  a90040         test   ax,4000
1fe4  7412           jz     1ff8
1fe6  2ec706551c0000 mov    word ptr cs:[1c55],0000
1fed  e8eb00         call   20db
1ff0  2e833e551c09   cmp    word ptr cs:[1c55],+09
1ff6  7540           jnz    2038
1ff8  a90001         test   ax,0100
1ffb  7415           jz     2012
1ffd  2ec706551c0000 mov    word ptr cs:[1c55],0000
2004  e81603         call   231d
2007  e89903         call   23a3
200a  2e833e551c09   cmp    word ptr cs:[1c55],+09
2010  7526           jnz    2038
2012  a90002         test   ax,0200
2015  7412           jz     2029
2017  2ec706551c0000 mov    word ptr cs:[1c55],0000
201e  e8fc02         call   231d
2021  2e833e551c09   cmp    word ptr cs:[1c55],+09
2027  750f           jnz    2038
2029  a90020         test   ax,2000
202c  740a           jz     2038
202e  2ec706551c0000 mov    word ptr cs:[1c55],0000
2035  e8d901         call   2211
2038  2e803ef81c01   cmp    byte ptr cs:[1cf8],01
203e  750f           jnz    204f
2040  2e833e551c00   cmp    word ptr cs:[1c55],+00
2046  7507           jnz    204f
2048  2ec706551c0900 mov    word ptr cs:[1c55],0009
204f  58             pop    ax
2050  c3             ret
2051  50             push   ax
2052  56             push   si
2053  2e8a04         mov    al,cs:[si]
2056  0ac0           or     al,al
2058  741a           jz     2074
205a  3c3a           cmp    al,3a                         ;':'
205c  750d           jnz    206b
205e  2e807c0100     cmp    byte ptr cs:[si+01],00
2063  7506           jnz    206b
2065  2ec60400       mov    byte ptr cs:[si],00
2069  eb09           jmp    2074
206b  e85404         call   24c2
206e  7301           jnb    2071
2070  46             inc    si
2071  46             inc    si
2072  ebdf           jmp    2053
2074  5e             pop    si
2075  58             pop    ax
2076  c3             ret
2077  56             push   si
2078  52             push   dx
2079  8ad0           mov    dl,al
207b  2e8a04         mov    al,cs:[si]
207e  e84104         call   24c2
2081  720c           jb     208f
2083  0ac0           or     al,al
2085  740c           jz     2093
2087  e80c00         call   2096
208a  2e8804         mov    cs:[si],al
208d  eb01           jmp    2090
208f  46             inc    si
2090  46             inc    si
2091  ebe8           jmp    207b
2093  5a             pop    dx
2094  5e             pop    si
2095  c3             ret
2096  3c80           cmp    al,80
2098  730c           jnb    20a6
209a  3c61           cmp    al,61                         ;'a'
209c  723c           jb     20da
209e  3c7a           cmp    al,7a                         ;'z'
20a0  7738           ja     20da
20a2  24df           and    al,df
20a4  eb34           jmp    20da
20a6  53             push   bx
20a7  06             push   es
20a8  57             push   di
20a9  8d3eea1c       lea    di,[1cea]
20ad  2e3815         cmp    cs:[di],dl
20b0  7417           jz     20c9
20b2  50             push   ax
20b3  51             push   cx
20b4  52             push   dx
20b5  0e             push   cs
20b6  07             pop    es
20b7  b465           mov    ah,65                         ;'e'
20b9  8ac2           mov    al,dl
20bb  bbffff         mov    bx,ffff
20be  b90500         mov    cx,0005
20c1  baffff         mov    dx,ffff
20c4  cd21           int    21
20c6  5a             pop    dx
20c7  59             pop    cx
20c8  58             pop    ax
20c9  2e8b5d01       mov    bx,cs:[di+01]
20cd  2e8e4503       mov    es,cs:[di+03]
20d1  43             inc    bx
20d2  43             inc    bx
20d3  2c80           sub    al,80
20d5  26d7           xlat   es:
20d7  5f             pop    di
20d8  07             pop    es
20d9  5b             pop    bx
20da  c3             ret
20db  50             push   ax
20dc  2e800e611c80   or     byte ptr cs:[1c61],80
20e2  2e8026611cfd   and    byte ptr cs:[1c61],fd
20e8  2e8a04         mov    al,cs:[si]
20eb  3c2b           cmp    al,2b                         ;'+'
20ed  740a           jz     20f9
20ef  3c2d           cmp    al,2d                         ;'-'
20f1  7507           jnz    20fa
20f3  2e800e611c02   or     byte ptr cs:[1c61],02
20f9  46             inc    si
20fa  e80200         call   20ff
20fd  58             pop    ax
20fe  c3             ret
20ff  50             push   ax
2100  51             push   cx
2101  52             push   dx
2102  56             push   si
2103  33c9           xor    cx,cx
2105  33d2           xor    dx,dx
2107  53             push   bx
2108  2e8a04         mov    al,cs:[si]
210b  0ac0           or     al,al
210d  7442           jz     2151
210f  e8f100         call   2203
2112  7239           jb     214d
2114  32e4           xor    ah,ah
2116  8be8           mov    bp,ax
2118  d1e2           shl    dx,1
211a  d1d1           rcl    cx,1
211c  e8d200         call   21f1
211f  722c           jb     214d
2121  8bda           mov    bx,dx
2123  8bc1           mov    ax,cx
2125  d1e2           shl    dx,1
2127  d1d1           rcl    cx,1
2129  e8c500         call   21f1
212c  721f           jb     214d
212e  d1e2           shl    dx,1
2130  d1d1           rcl    cx,1
2132  e8bc00         call   21f1
2135  7216           jb     214d
2137  03d3           add    dx,bx
2139  13c8           adc    cx,ax
213b  e8b300         call   21f1
213e  720d           jb     214d
2140  03d5           add    dx,bp
2142  83d100         adc    cx,+00
2145  e8a900         call   21f1
2148  7203           jb     214d
214a  46             inc    si
214b  ebbb           jmp    2108
214d  5b             pop    bx
214e  e98d00         jmp    21de
2151  5b             pop    bx
2152  2ef606611c02   test   byte ptr cs:[1c61],02
2158  740a           jz     2164
215a  f7d1           not    cx
215c  f7d2           not    dx
215e  83c201         add    dx,+01
2161  83d100         adc    cx,+00
2164  268b7706       mov    si,es:[bx+06]
2168  268a04         mov    al,es:[si]
216b  3c00           cmp    al,00
216d  7507           jnz    2176
216f  b001           mov    al,01
2171  b4ff           mov    ah,ff
2173  eb74           jmp    21e9
2175  90             nop
2176  46             inc    si
2177  268a04         mov    al,es:[si]
217a  3c00           cmp    al,00
217c  7460           jz     21de
217e  46             inc    si
217f  2ef606611c80   test   byte ptr cs:[1c61],80
2185  751e           jnz    21a5
2187  263b4c03       cmp    cx,es:[si+03]
218b  7236           jb     21c3
218d  7706           ja     2195
218f  263b5401       cmp    dx,es:[si+01]
2193  722e           jb     21c3
2195  263b4c07       cmp    cx,es:[si+07]
2199  7728           ja     21c3
219b  723a           jb     21d7
219d  263b5405       cmp    dx,es:[si+05]
21a1  7720           ja     21c3
21a3  eb32           jmp    21d7
21a5  263b4c03       cmp    cx,es:[si+03]
21a9  7c18           jl     21c3
21ab  7f06           jg     21b3
21ad  263b5401       cmp    dx,es:[si+01]
21b1  7c10           jl     21c3
21b3  263b4c07       cmp    cx,es:[si+07]
21b7  7f0a           jg     21c3
21b9  7c1c           jl     21d7
21bb  263b5405       cmp    dx,es:[si+05]
21bf  7f02           jg     21c3
21c1  eb14           jmp    21d7
21c3  83c609         add    si,+09
21c6  fec8           dec    al
21c8  75b5           jnz    217f
21ca  2ec706551c0600 mov    word ptr cs:[1c55],0006
21d1  b001           mov    al,01
21d3  b4ff           mov    ah,ff
21d5  eb12           jmp    21e9
21d7  b001           mov    al,01
21d9  268a24         mov    ah,es:[si]
21dc  eb0b           jmp    21e9
21de  2ec706551c0900 mov    word ptr cs:[1c55],0009
21e5  b003           mov    al,03
21e7  b4ff           mov    ah,ff
21e9  e82efd         call   1f1a
21ec  5e             pop    si
21ed  5a             pop    dx
21ee  59             pop    cx
21ef  58             pop    ax
21f0  c3             ret
21f1  9c             pushf
21f2  2ef606611c02   test   byte ptr cs:[1c61],02
21f8  7502           jnz    21fc
21fa  9d             popf
21fb  c3             ret
21fc  9d             popf
21fd  7002           jo     2201
21ff  f8             clc
2200  c3             ret
2201  f9             stc
2202  c3             ret
2203  3c30           cmp    al,30                         ;'0'
2205  7208           jb     220f
2207  3c39           cmp    al,39                         ;'9'
2209  7704           ja     220f
220b  2c30           sub    al,30                         ;'0'
220d  f8             clc
220e  c3             ret
220f  f9             stc
2210  c3             ret
2211  50             push   ax
2212  53             push   bx
2213  52             push   dx
2214  57             push   di
2215  268b7f06       mov    di,es:[bx+06]
2219  268a05         mov    al,es:[di]
221c  0ac0           or     al,al
221e  7504           jnz    2224
2220  b4ff           mov    ah,ff
2222  eb4c           jmp    2270
2224  3c03           cmp    al,03
2226  753f           jnz    2267
2228  47             inc    di
2229  268a05         mov    al,es:[di]
222c  b409           mov    ah,09
222e  f6e4           mul    ah
2230  40             inc    ax
2231  03f8           add    di,ax
2233  268a05         mov    al,es:[di]
2236  b405           mov    ah,05
2238  f6e4           mul    ah
223a  40             inc    ax
223b  03f8           add    di,ax
223d  268a05         mov    al,es:[di]
2240  47             inc    di
2241  47             inc    di
2242  268b2d         mov    bp,es:[di]
2245  e83200         call   227a
2248  7312           jnb    225c
224a  83c703         add    di,+03
224d  fec8           dec    al
224f  75f1           jnz    2242
2251  2ec706551c0800 mov    word ptr cs:[1c55],0008
2258  b4ff           mov    ah,ff
225a  eb14           jmp    2270
225c  268a65ff       mov    ah,es:[di-01]
2260  b002           mov    al,02
2262  268b15         mov    dx,es:[di]
2265  eb0b           jmp    2272
2267  2ec706551c0900 mov    word ptr cs:[1c55],0009
226e  b4ff           mov    ah,ff
2270  b003           mov    al,03
2272  e8a5fc         call   1f1a
2275  5f             pop    di
2276  5a             pop    dx
2277  5b             pop    bx
2278  58             pop    ax
2279  c3             ret
227a  50             push   ax
227b  55             push   bp
227c  52             push   dx
227d  56             push   si
227e  b202           mov    dl,02
2280  2e8a04         mov    al,cs:[si]
2283  e83c02         call   24c2
2286  723c           jb     22c4
2288  e80bfe         call   2096
228b  2ef606611c08   test   byte ptr cs:[1c61],08
2291  740d           jz     22a0
2293  3c3d           cmp    al,3d                         ;'='
2295  751f           jnz    22b6
2297  26807e0100     cmp    byte ptr es:[bp+01],00
229c  7571           jnz    230f
229e  eb13           jmp    22b3
22a0  2ef606611c10   test   byte ptr cs:[1c61],10
22a6  740e           jz     22b6
22a8  3c3a           cmp    al,3a                         ;':'
22aa  750a           jnz    22b6
22ac  26807e0000     cmp    byte ptr es:[bp+00],00
22b1  755c           jnz    230f
22b3  46             inc    si
22b4  eb5c           jmp    2312
22b6  263a4600       cmp    al,es:[bp+00]
22ba  751d           jnz    22d9
22bc  0ac0           or     al,al
22be  7452           jz     2312
22c0  46             inc    si
22c1  45             inc    bp
22c2  eb13           jmp    22d7
22c4  263a4600       cmp    al,es:[bp+00]
22c8  7545           jnz    230f
22ca  46             inc    si
22cb  2e8a04         mov    al,cs:[si]
22ce  45             inc    bp
22cf  263a4600       cmp    al,es:[bp+00]
22d3  753a           jnz    230f
22d5  46             inc    si
22d6  45             inc    bp
22d7  eba7           jmp    2280
22d9  2ef606611c40   test   byte ptr cs:[1c61],40         ;'@'
22df  740f           jz     22f0
22e1  26f747022000   test   word ptr es:[bx+02],0020
22e7  7407           jz     22f0
22e9  26807e0000     cmp    byte ptr es:[bp+00],00
22ee  7422           jz     2312
22f0  26f7071000     test   word ptr es:[bx],0010
22f5  7418           jz     230f
22f7  3c3a           cmp    al,3a                         ;':'
22f9  7509           jnz    2304
22fb  26807e0000     cmp    byte ptr es:[bp+00],00
2300  750d           jnz    230f
2302  eb0e           jmp    2312
2304  3c00           cmp    al,00
2306  7507           jnz    230f
2308  26807e003a     cmp    byte ptr es:[bp+00],3a        ;':'
230d  7403           jz     2312
230f  f9             stc
2310  eb06           jmp    2318
2312  2e8936641c     mov    cs:[1c64],si
2317  f8             clc
2318  5e             pop    si
2319  5a             pop    dx
231a  5d             pop    bp
231b  58             pop    ax
231c  c3             ret
231d  50             push   ax
231e  57             push   di
231f  56             push   si
2320  2e8b3e621c     mov    di,cs:[1c62]
2325  2e8a04         mov    al,cs:[si]
2328  0ac0           or     al,al
232a  7413           jz     233f
232c  e85f00         call   238e
232f  7524           jnz    2355
2331  2ec606f81c01   mov    byte ptr cs:[1cf8],01
2337  5e             pop    si
2338  2ec60400       mov    byte ptr cs:[si],00
233c  5f             pop    di
233d  eb3f           jmp    237e
233f  5e             pop    si
2340  2ec60400       mov    byte ptr cs:[si],00
2344  5f             pop    di
2345  26f7070100     test   word ptr es:[bx],0001
234a  7532           jnz    237e
234c  2ec706551c0200 mov    word ptr cs:[1c55],0002
2353  eb29           jmp    237e
2355  58             pop    ax
2356  56             push   si
2357  2e8a04         mov    al,cs:[si]
235a  0ac0           or     al,al
235c  741e           jz     237c
235e  e82d00         call   238e
2361  740b           jz     236e
2363  e85c01         call   24c2
2366  7302           jnb    236a
2368  47             inc    di
2369  46             inc    si
236a  47             inc    di
236b  46             inc    si
236c  ebe9           jmp    2357
236e  2ea25b1c       mov    cs:[1c5b],al
2372  2ec60400       mov    byte ptr cs:[si],00
2376  47             inc    di
2377  2e893e571c     mov    cs:[1c57],di
237c  5e             pop    si
237d  5f             pop    di
237e  58             pop    ax
237f  a90002         test   ax,0200
2382  7409           jz     238d
2384  50             push   ax
2385  b4ff           mov    ah,ff
2387  b005           mov    al,05
2389  e88efb         call   1f1a
238c  58             pop    ax
238d  c3             ret
238e  53             push   bx
238f  51             push   cx
2390  8d1eef1c       lea    bx,[1cef]
2394  b90900         mov    cx,0009
2397  2e3a07         cmp    al,cs:[bx]
239a  7404           jz     23a0
239c  43             inc    bx
239d  e2f8           loop   2397
239f  41             inc    cx
23a0  59             pop    cx
23a1  5b             pop    bx
23a2  c3             ret
23a3  50             push   ax
23a4  52             push   dx
23a5  2e8a04         mov    al,cs:[si]
23a8  0ac0           or     al,al
23aa  7438           jz     23e4
23ac  e81301         call   24c2
23af  722c           jb     23dd
23b1  2e837c013a     cmp    word ptr cs:[si+01],+3a
23b6  740e           jz     23c6
23b8  26f7071000     test   word ptr es:[bx],0010
23bd  741e           jz     23dd
23bf  2e807c0100     cmp    byte ptr cs:[si+01],00
23c4  7517           jnz    23dd
23c6  0c20           or     al,20                         ;' '
23c8  3c61           cmp    al,61                         ;'a'
23ca  7211           jb     23dd
23cc  3c7a           cmp    al,7a                         ;'z'
23ce  770d           ja     23dd
23d0  2c60           sub    al,60                         ;'`'
23d2  8ad0           mov    dl,al
23d4  b4ff           mov    ah,ff
23d6  b006           mov    al,06
23d8  e83ffb         call   1f1a
23db  eb07           jmp    23e4
23dd  2ec706551c0900 mov    word ptr cs:[1c55],0009
23e4  5a             pop    dx
23e5  58             pop    ax
23e6  c3             ret
23e7  ac             lodsb
23e8  e82200         call   240d
23eb  7418           jz     2405
23ed  e85300         call   2443
23f0  7516           jnz    2408
23f2  2ef606611c20   test   byte ptr cs:[1c61],20         ;' '
23f8  74ed           jz     23e7
23fa  2ef606611c41   test   byte ptr cs:[1c61],41         ;'a'
2400  7409           jz     240b
2402  4e             dec    si
2403  eb06           jmp    240b
2405  f9             stc
2406  eb01           jmp    2409
2408  f8             clc
2409  4e             dec    si
240a  c3             ret
240b  f8             clc
240c  c3             ret
240d  53             push   bx
240e  51             push   cx
240f  3c0d           cmp    al,0d
2411  742d           jz     2440
2413  3c00           cmp    al,00
2415  7429           jz     2440
2417  3c0a           cmp    al,0a
2419  7425           jz     2440
241b  26807d0202     cmp    byte ptr es:[di+02],02
2420  721e           jb     2440
2422  33db           xor    bx,bx
2424  268a5d03       mov    bl,es:[di+03]
2428  83c304         add    bx,+04
242b  26803900       cmp    byte ptr es:[bx+di],00
242f  740d           jz     243e
2431  33c9           xor    cx,cx
2433  268a09         mov    cl,es:[bx+di]
2436  43             inc    bx
2437  263a01         cmp    al,es:[bx+di]
243a  7404           jz     2440
243c  e2f8           loop   2436
243e  3c0d           cmp    al,0d
2440  59             pop    cx
2441  5b             pop    bx
2442  c3             ret
2443  53             push   bx
2444  51             push   cx
2445  2ec6065b1c20   mov    byte ptr cs:[1c5b],20         ;' '
244b  2e8026611cdf   and    byte ptr cs:[1c61],df
2451  3c20           cmp    al,20                         ;' '
2453  7436           jz     248b
2455  3c09           cmp    al,09
2457  7432           jz     248b
2459  3c2c           cmp    al,2c                         ;','
245b  7431           jz     248e
245d  3c81           cmp    al,81
245f  750c           jnz    246d
2461  803c40         cmp    byte ptr [si],40              ;'@'
2464  7507           jnz    246d
2466  b020           mov    al,20                         ;' '
2468  46             inc    si
2469  3ac0           cmp    al,al
246b  eb1e           jmp    248b
246d  26807d0201     cmp    byte ptr es:[di+02],01
2472  7217           jb     248b
2474  33c9           xor    cx,cx
2476  268a4d03       mov    cl,es:[di+03]
247a  0bc9           or     cx,cx
247c  740b           jz     2489
247e  bb0300         mov    bx,0003
2481  43             inc    bx
2482  263a01         cmp    al,es:[bx+di]
2485  7407           jz     248e
2487  e2f8           loop   2481
2489  3c20           cmp    al,20                         ;' '
248b  59             pop    cx
248c  5b             pop    bx
248d  c3             ret
248e  2ea25b1c       mov    cs:[1c5b],al
2492  2ef606611c01   test   byte ptr cs:[1c61],01
2498  7506           jnz    24a0
249a  2e800e611c20   or     byte ptr cs:[1c61],20         ;' '
24a0  3ac0           cmp    al,al
24a2  ebe7           jmp    248b
24a4  8d2e6a1c       lea    bp,[1c6a]
24a8  3bdd           cmp    bx,bp
24aa  740a           jz     24b6
24ac  3c2f           cmp    al,2f                         ;'/'
24ae  7503           jnz    24b3
24b0  f9             stc
24b1  eb0e           jmp    24c1
24b3  f8             clc
24b4  eb0b           jmp    24c1
24b6  3c2f           cmp    al,2f                         ;'/'
24b8  7506           jnz    24c0
24ba  2e800e611c40   or     byte ptr cs:[1c61],40         ;'@'
24c0  f8             clc
24c1  c3             ret
24c2  1e             push   ds
24c3  56             push   si
24c4  53             push   bx
24c5  2e833e5e1c00   cmp    word ptr cs:[1c5e],+00
24cb  7527           jnz    24f4
24cd  50             push   ax
24ce  1e             push   ds
24cf  51             push   cx
24d0  52             push   dx
24d1  57             push   di
24d2  55             push   bp
24d3  06             push   es
24d4  33f6           xor    si,si
24d6  8ede           mov    ds,si
24d8  b80063         mov    ax,6300
24db  cd21           int    21
24dd  8cdb           mov    bx,ds
24df  0bdb           or     bx,bx
24e1  07             pop    es
24e2  5d             pop    bp
24e3  5f             pop    di
24e4  5a             pop    dx
24e5  59             pop    cx
24e6  1f             pop    ds
24e7  58             pop    ax
24e8  7429           jz     2513
24ea  2e89365c1c     mov    cs:[1c5c],si
24ef  2e891e5e1c     mov    cs:[1c5e],bx
24f4  2e8b365c1c     mov    si,cs:[1c5c]
24f9  2e8e1e5e1c     mov    ds,cs:[1c5e]
24fe  833c00         cmp    word ptr [si],+00
2501  7410           jz     2513
2503  3a04           cmp    al,[si]
2505  7208           jb     250f
2507  3a4401         cmp    al,[si+01]
250a  7703           ja     250f
250c  f9             stc
250d  eb05           jmp    2514
250f  46             inc    si
2510  46             inc    si
2511  ebeb           jmp    24fe
2513  f8             clc
2514  5b             pop    bx
2515  5e             pop    si
2516  1f             pop    ds
2517  c3             ret

2510  46 EB EB F8 5B 5E 1F C3-1D 25 01 01 3B 01 02 27  Fkkx[^.C.%..;..'
2520  25 3B 25 01 4F 25 00 00-80 00 00 62 25 30 25 00  %;%.O%.....b%0%.
2530  01 01 01 01 00 00 00 10-27 00 00 01 80 00 00 62  ........'......b
2540  25 44 25 00 01 01 01 00-00 00 00 08 00 00 00 00  %D%.............
2550  00 00 00 62 25 61 25 01-2F 58 00 00 00 00 00 00  ...b%a%./X......
2560  00 00 00 00 00 00 00 00-00 00 6F 25 01 01 3B 01  ..........o%..;.
2570  01 75 25 00 00 00 20 00-00 62 25 7E 25 00 03 00  .u%... ..b%~%...
2580  00 02 01 88 25 02 8B 25-4F 4E 00 4F 46 46 00 00  ....%..%ON.OFF..
2590  95 25 01 01 3B 01 03 9F-25 B3 25 BC 25 00 00 00  .%..;...%3%<%...
25A0  80 00 00 62 25 A8 25 00-01 01 01 01 00 00 00 E7  ...b%(%........g
25B0  03 00 00 01 80 00 00 62-25 A8 25 00 01 02 00 00  .......b%(%.....
25C0  62 25 61 25 00 00 00 00-00 CE 25 01 01 3B 01 01  b%a%.....N%..;..
25D0  D4 25 00 00 00 80 00 00-62 25 DD 25 00 01 01 01  T%......b%]%....
25E0  08 00 00 00 FF 00 00 00-00 EE 25 01 01 3B 02 02  .........n%..;..
25F0  F6 25 0A 26 00 00 00 80-00 00 62 25 FF 25 00 01  v%.&......b%.%..
2600  01 01 01 00 00 00 FF 00-00 00 00 80 00 00 62 25  ..............b%
2610  13 26 00 01 01 01 00 00-00 00 FF 00 00 00 00 00  .&..............
2620  25 26 01 01 3B 01 01 2B-26 00 00 10 01 10 00 62  %&..;..+&......b
2630  25 61 25 00 00 3A 26 01-01 3B 02 02 42 26 56 26  %a%..:&..;..B&V&
2640  00 00 00 80 00 00 62 25-4B 26 00 01 01 01 00 00  ......b%K&......
2650  00 00 40 00 00 00 00 80-00 00 62 25 5F 26 00 01  ..@.......b%_&..
2660  01 01 00 00 00 00 00 02-00 00 00 00 00 00 73 26  ..............s&
2670  01 01 3B 01 01 79 26 00-00 00 20 00 00 62 25 7E  ..;..y&... ..b%~
2680  25 00 00 88 26 01 01 3B-01 01 8E 26 00 00 00 20  %...&..;...&...
2690  00 00 62 25 7E 25 00 00-9D 26 01 01 3B 00 00 01  ..b%~%...&..;...
26A0  A3 26 00 00 00 00 00 62-25 61 25 01 2F 4B 00 00  #&.....b%a%./K..
26B0  0E 1F B8 00 37 CD 21 88-16 44 08 BA F1 39 B8 00  ..8.7M!..D.:q98.


26a7  6225           bound  sp,[di]
26a9  61             popa
26aa  25012f         and    ax,2f01
26ad  4b             dec    bx
26ae  0000           add    [bx+si],al


26b0  0e             push   cs
26b1  1f             pop    ds                   ; DS <- CS
26b2  b80037         mov    ax,3700              ; funkce poskytnut¡ oddˆlovac¡ho znaku parametr–
26b5  cd21           int    21                   ; poskytnut¡ oddˆlovac¡ho znaku parametr–
26b7  88164408       mov    [0844],dl            ; oddˆlovac¡ znak parametr– p©¡kaz. © dku
26bb  baf139         mov    dx,39f1              ; jm‚no souboru "\CONFIG.SYS"
26be  b8003d         mov    ax,3d00              ; funkce otev©en¡ souboru pro ‡ten¡
26c1  f9             stc                         ; p©ednastaven¡ p©¡znaku CF
26c2  cd21           int    21                   ; otev©en¡ souboru CONFIG.SYS
26c4  7203           jb     26c9                 ; chyba otev©en¡ souboru CONFIG.SYS
26c6  eb51           jmp    2719
26c8  90             nop
26c9  c6069a0a0b   * mov    byte ptr [0a9a],0b
26ce  c3             ret

26cf  ba0c3d         mov    dx,3d0c              ; text "Unrecognized command..."
26d2  e88012         call   3955                 ; zobrazen¡ textu na displej
26d5  e85809         call   3030
26d8  e91101         jmp    27ec
26db  0e             push   cs
26dc  1f             pop    ds
26dd  ba0c3d         mov    dx,3d0c              ; text "Unrecognized command..."
26e0  e87212         call   3955                 ; zobrazen¡ textu na displej
26e3  e84a09         call   3030
26e6  c3             ret
26e7  2e803e602501   cmp    byte ptr cs:[2560],01
26ed  7429           jz     2718
26ef  1e             push   ds
26f0  52             push   dx
26f1  56             push   si
26f2  0e             push   cs
26f3  1f             pop    ds
26f4  ba333d         mov    dx,3d33              ; text "Bad parametres - "
26f7  e85b12         call   3955                 ; zobrazen¡ textu na displej
26fa  c536451c       lds    si,[1c45]
26fe  8a14           mov    dl,[si]
2700  b402           mov    ah,02
2702  cd21           int    21
2704  46             inc    si
2705  80fa0d         cmp    dl,0d
2708  75f4           jnz    26fe
270a  0e             push   cs
270b  1f             pop    ds
270c  ba303d         mov    dx,3d30              ; text od© dkov n¡
270f  e84312         call   3955                 ; zobrazen¡ textu na displej
2712  e81b09         call   3030
2715  5e             pop    si
2716  5a             pop    dx
2717  1f             pop    ds
2718  c3             ret

                                                 ; na‡ten¡ souboru CONFIG.SYS
2719  8bd8           mov    bx,ax                ; identifik tor souboru
271b  33c9           xor    cx,cx                ; offset od konce souboru = 0
271d  33d2           xor    dx,dx                ; offset od konce souboru = 0
271f  b80242         mov    ax,4202              ; funkce p©em¡stˆn¡ ukazatele souboru na konec souboru
2722  cd21           int    21                   ; p©em¡stˆn¡ ukazatele souboru na konec souboru
2724  a3610b         mov    [0b61],ax            ; velikost souboru CONFIG.SYS
2727  33d2           xor    dx,dx                ; offset od za‡ tku souboru = 0
2729  b80042         mov    ax,4200              ; funkce p©em¡stˆn¡ ukazatele souboru na za‡ tek souboru
272c  cd21           int    21                   ; p©em¡stˆn¡ ukazatele souboru na za‡ tek souboru
272e  8b163b08       mov    dx,[083b]
2732  a1610b         mov    ax,[0b61]            ; velikost souboru CONFIG.SYS
2735  a39d0a         mov    [0a9d],ax
2738  e858ed         call   1493                 ; p©epo‡et offsetu na odstavce
273b  2bd0           sub    dx,ax
273d  83ea11         sub    dx,+11
2740  89163b08       mov    [083b],dx
2744  e86be7         call   0eb2
2747  2e8b163b08     mov    dx,cs:[083b]         ; segment pro na‡ten¡ CONFIG.SYS
274c  8eda           mov    ds,dx                ; segment pro na‡ten¡ CONFIG.SYS
274e  8ec2           mov    es,dx                ; segment pro na‡ten¡ CONFIG.SYS
2750  33d2           xor    dx,dx                ; offset pro na‡ten¡ souboru CONFIG.SYS
2752  2e8b0e610b     mov    cx,cs:[0b61]         ; po‡et bajt– souboru CONFIG.SYS, kter‚ se maj¡ p©e‡¡st
2757  b43f           mov    ah,3f                ; ‡ten¡ ze souboru CONFIG.SYS
2759  f9             stc
275a  cd21           int    21                   ; na‡ten¡ souboru CONFIG.SYS do pamˆti
275c  9c             pushf
275d  50             push   ax
275e  57             push   di
275f  51             push   cx                   ; d‚lka souboru CONFIG.SYS
2760  b01a           mov    al,1a                ; znak konce souboru ^Z
2762  8bfa           mov    di,dx                ; adresa s na‡ten˜m souborem
2764  e305           jcxz   276b                 ; souboru mˆl nulovou d‚lku
2766  f2             repnz
2767  ae             scasb                       ; nalezen¡ znaku konce souboru CONFIG.SYS
2768  7501           jnz    276b                 ; znak konce souboru nebyl nalezen
276a  4f             dec    di                   ; n vrat na znak konce souboru
276b  b00d         * mov    al,0d                ; znak <CR>
276d  aa             stosb                       ; ulo‘en¡ znaku <CR> na konec souboru
276e  b00a           mov    al,0a                ; znak <LF>
2770  aa             stosb                       ; ulo‘en¡ znaku <LF> na konec souboru
2771  2bfa           sub    di,dx                ; efektivn¡ d‚lka souboru CONFIG.SYS
2773  2e893e610b     mov    cs:[0b61],di         ; velikost souboru CONFIG.SYS
2778  59             pop    cx
2779  5f             pop    di
277a  58             pop    ax
277b  0e             push   cs
277c  1f             pop    ds
277d  50             push   ax
277e  b43e           mov    ah,3e                ; funkce uzav©en¡ identifk toru souboru CONFIG.SYS
2780  cd21           int    21                   ; uzav©en¡ identifk toru souboru CONFIG.SYS
2782  58             pop    ax
2783  9d             popf
2784  7204           jb     278a
2786  3bc8           cmp    cx,ax
2788  742f           jz     27b9
278a  baf139       * mov    dx,39f1              ; jm‚no souboru "\CONFIG.SYS"
278d  e89711         call   3927
2790  e93bff         jmp    26ce
2793  0e             push   cs
2794  1f             pop    ds
2795  803e9a0a0a     cmp    byte ptr [0a9a],0a
279a  73f4           jnb    2790
279c  ff363b08       push   [083b]
27a0  07             pop    es
27a1  8b36630b       mov    si,[0b63]
27a5  8936610b       mov    [0b61],si            ; velikost souboru CONFIG.SYS
27a9  33f6           xor    si,si
27ab  8936650b       mov    [0b65],si
27af  89366508       mov    [0865],si
27b3  e85408         call   300a
27b6  eb07           jmp    27bf
27b8  90             nop
27b9  e85f0c         call   341b
27bc  e84b08         call   300a
27bf  72cf           jb     2790
27c1  e86c09         call   3130
27c4  ff066508       inc    word ptr [0865]
27c8  c606602500     mov    byte ptr [2560],00
27cd  c606401c00     mov    byte ptr [1c40],00
27d2  c606431c00     mov    byte ptr [1c43],00
27d7  3c0a           cmp    al,0a
27d9  7418           jz     27f3
27db  8ae0           mov    ah,al
27dd  e82a08         call   300a
27e0  7318           jnb    27fa
27e2  803e9a0a02     cmp    byte ptr [0a9a],02
27e7  73a7           jnb    2790
27e9  e9e3fe         jmp    26cf
27ec  0e             push   cs
27ed  1f             pop    ds
27ee  e83b0e         call   362c
27f1  ebcc           jmp    27bf
27f3  e81408         call   300a
27f6  ebc7           jmp    27bf
27f8  0e             push   cs
27f9  1f             pop    ds
27fa  803e9a0a00     cmp    byte ptr [0a9a],00
27ff  741a           jz     281b
2801  803e9a0a02     cmp    byte ptr [0a9a],02
2806  7432           jz     283a
2808  803e9a0a03     cmp    byte ptr [0a9a],03
280d  7433           jz     2842
280f  80fc49         cmp    ah,49                         ;'i'
2812  7578           jnz    288c
2814  830e9b0a01     or     word ptr [0a9b],+01
2819  ebd1           jmp    27ec
281b  80fc44         cmp    ah,44                         ;'d'
281e  750d           jnz    282d
2820  e8d708         call   30fa
2823  7527           jnz    284c
2825  26c644ffff     mov    byte ptr es:[si-01],ff
282a  e99e01         jmp    29cb
282d  80fc42         cmp    ah,42                         ;'b'
2830  751a           jnz    284c
2832  c606602501     mov    byte ptr [2560],01
2837  eb53           jmp    288c
2839  90             nop
283a  80fc4a         cmp    ah,4a                         ;'j'
283d  750d           jnz    284c
283f  e99d01         jmp    29df
2842  80fc49         cmp    ah,49                         ;'i'
2845  7505           jnz    284c
2847  e8b5eb         call   13ff
284a  eba0           jmp    27ec
284c  80fc59         cmp    ah,59                         ;'y'
284f  740a           jz     285b
2851  80fc5a         cmp    ah,5a                         ;'z'
2854  7405           jz     285b
2856  80fc30         cmp    ah,30                         ;'0'
2859  7508           jnz    2863
285b  ff0e650b       dec    word ptr [0b65]
285f  ff06610b       inc    word ptr [0b61]      ; velikost souboru CONFIG.SYS
2863  eb87           jmp    27ec
2865  06             push   es
2866  1e             push   ds
2867  06             push   es
2868  1f             pop    ds
2869  0e             push   cs
286a  07             pop    es
286b  2e8c1e471c     mov    cs:[1c47],ds
2870  2e8936451c     mov    cs:[1c45],si
2875  ba0000         mov    dx,0000
2878  e87ef4         call   1cf9
287b  3d0000         cmp    ax,0000
287e  7405           jz     2885
2880  3dffff         cmp    ax,ffff
2883  7503           jnz    2888
2885  f8             clc
2886  eb01           jmp    2889
2888  f9             stc
2889  1f             pop    ds
288a  07             pop    es
288b  c3             ret
288c  80fc42         cmp    ah,42                         ;'b'
288f  7570           jnz    2901
2891  c6065f2500     mov    byte ptr [255f],00
2896  bf1825         mov    di,2518
2899  33c9           xor    cx,cx
289b  8bd1           mov    dx,cx
289d  e8c5ff         call   2865
28a0  7305           jnb    28a7
28a2  e842fe         call   26e7
28a5  eb57           jmp    28fe
28a7  3dffff         cmp    ax,ffff
28aa  7421           jz     28cd
28ac  813e64255825   cmp    word ptr [2564],2558
28b2  7507           jnz    28bb
28b4  c6065f2501     mov    byte ptr [255f],01
28b9  eb10           jmp    28cb
28bb  a16625         mov    ax,[2566]
28be  83f901         cmp    cx,+01
28c1  7505           jnz    28c8
28c3  a35b25         mov    [255b],ax
28c6  eb03           jmp    28cb
28c8  a35d25         mov    [255d],ax
28cb  ebd0           jmp    289d
28cd  833e5b2563     cmp    word ptr [255b],+63
28d2  7612           jbe    28e6
28d4  803e5f2500     cmp    byte ptr [255f],00
28d9  750b           jnz    28e6
28db  e809fe         call   26e7
28de  c7065d250000   mov    word ptr [255d],0000
28e4  eb18           jmp    28fe
28e6  a15b25         mov    ax,[255b]
28e9  a31208         mov    [0812],ax
28ec  a15d25         mov    ax,[255d]
28ef  a31408         mov    [0814],ax
28f2  a05f25         mov    al,[255f]
28f5  a27308         mov    [0873],al
28f8  a16508         mov    ax,[0865]
28fb  a36f08         mov    [086f],ax
28fe  e9ebfe         jmp    27ec
2901  80fc43         cmp    ah,43                         ;'c'
2904  7538           jnz    293e
2906  bf6a25         mov    di,256a
2909  33c9           xor    cx,cx
290b  8bd1           mov    dx,cx
290d  e855ff         call   2865
2910  7305           jnb    2917
2912  e8d2fd         call   26e7
2915  eb24           jmp    293b
2917  3dffff         cmp    ax,ffff
291a  7415           jz     2931
291c  803e632501     cmp    byte ptr [2563],01
2921  7507           jnz    292a
2923  c6068f2501     mov    byte ptr [258f],01
2928  eb05           jmp    292f
292a  c6068f2500     mov    byte ptr [258f],00
292f  ebdc           jmp    290d
2931  b433           mov    ah,33                         ;'3'
2933  b001           mov    al,01
2935  8a168f25       mov    dl,[258f]
2939  cd21           int    21
293b  e9aefe         jmp    27ec
293e  80fc4d         cmp    ah,4d                         ;'m'
2941  754b           jnz    298e
2943  bf6e26         mov    di,266e
2946  33c9           xor    cx,cx
2948  8bd1           mov    dx,cx
294a  e818ff         call   2865
294d  7305           jnb    2954
294f  e895fd         call   26e7
2952  eb37           jmp    298b
2954  3dffff         cmp    ax,ffff
2957  7415           jz     296e
2959  803e632501     cmp    byte ptr [2563],01
295e  7507           jnz    2967
2960  c606822601     mov    byte ptr [2682],01
2965  eb05           jmp    296c
2967  c606822600     mov    byte ptr [2682],00
296c  ebdc           jmp    294a
296e  1e             push   ds
296f  b87000         mov    ax,0070
2972  8ed8           mov    ds,ax
2974  2e803e822600   cmp    byte ptr cs:[2682],00
297a  7508           jnz    2984
297c  c7068f0a0100   mov    word ptr [0a8f],0001
2982  eb06           jmp    298a
2984  c7068f0a8000   mov    word ptr [0a8f],0080
298a  1f             pop    ds
298b  e95efe         jmp    27ec
298e  80fc57         cmp    ah,57                         ;'w'
2991  7538           jnz    29cb
2993  bf8326         mov    di,2683
2996  33c9           xor    cx,cx
2998  8bd1           mov    dx,cx
299a  e8c8fe         call   2865
299d  7305           jnb    29a4
299f  e845fd         call   26e7
29a2  eb24           jmp    29c8
29a4  3dffff         cmp    ax,ffff
29a7  7415           jz     29be
29a9  803e632501     cmp    byte ptr [2563],01
29ae  7507           jnz    29b7
29b0  c606972601     mov    byte ptr [2697],01
29b5  eb05           jmp    29bc
29b7  c606972600     mov    byte ptr [2697],00
29bc  ebdc           jmp    299a
29be  b433           mov    ah,33                         ;'3'
29c0  b004           mov    al,04
29c2  8a169726       mov    dl,[2697]
29c6  cd21           int    21
29c8  e921fe         jmp    27ec
29cb  2e81261d0bfe00 and    word ptr cs:[0b1d],00fe
29d2  80fc44         cmp    ah,44                         ;'d'
29d5  7418           jz     29ef
29d7  80fc4a         cmp    ah,4a                         ;'j'
29da  7403           jz     29df
29dc  e90703         jmp    2ce6
29df  2e830e1d0b01   or     word ptr cs:[0b1d],+01
29e5  803e9a0a02     cmp    byte ptr [0a9a],02
29ea  7403           jz     29ef
29ec  e9fdfd         jmp    27ec
29ef  8ccb           mov    bx,cs
29f1  8edb           mov    ds,bx
29f3  8936870b       mov    [0b87],si
29f7  8c06890b       mov    [0b89],es
29fb  8936350b       mov    [0b35],si
29ff  8c06370b       mov    [0b37],es
2a03  e8800c         call   3686
2a06  e88706         call   3090
2a09  ff066f0b       inc    word ptr [0b6f]      ; segment za‡ tku voln‚ pamˆti
2a0d  33c0           xor    ax,ax
2a0f  a3f907         mov    [07f9],ax
2a12  a16f0b         mov    ax,[0b6f]            ; segment za‡ tku voln‚ pamˆti
2a15  a3fb07         mov    [07fb],ax
2a18  a3710b         mov    [0b71],ax
2a1b  06             push   es
2a1c  1f             pop    ds
2a1d  8bd6           mov    dx,si
2a1f  8ec0           mov    es,ax
2a21  b8003d         mov    ax,3d00
2a24  f9             stc
2a25  cd21           int    21
2a27  724a           jb     2a73
2a29  8bd8           mov    bx,ax
2a2b  52             push   dx
2a2c  33c9           xor    cx,cx
2a2e  33d2           xor    dx,dx
2a30  b80242         mov    ax,4202
2a33  f9             stc
2a34  cd21           int    21
2a36  7308           jnb    2a40
2a38  b43e           mov    ah,3e                         ;'>'
2a3a  cd21           int    21
2a3c  5a             pop    dx
2a3d  f9             stc
2a3e  eb33           jmp    2a73
2a40  050f00         add    ax,000f
2a43  83d200         adc    dx,+00
2a46  b104           mov    cl,04
2a48  d3e8           shr    ax,cl
2a4a  b10c           mov    cl,0c
2a4c  d3e2           shl    dx,cl
2a4e  0bc2           or     ax,dx
2a50  8cc1           mov    cx,es
2a52  03c8           add    cx,ax
2a54  7207           jb     2a5d
2a56  2e3b0e3d08     cmp    cx,cs:[083d]
2a5b  7203           jb     2a60
2a5d  e9680c         jmp    36c8
2a60  5a             pop    dx
2a61  b43e           mov    ah,3e                         ;'>'
2a63  cd21           int    21
2a65  8ccb           mov    bx,cs
2a67  8ec3           mov    es,bx
2a69  bb6f0b         mov    bx,0b6f              ; segment za‡ tku voln‚ pamˆti
2a6c  b003           mov    al,03
2a6e  b44b           mov    ah,4b                         ;'k'
2a70  f9             stc
2a71  cd21           int    21
2a73  1e             push   ds
2a74  07             pop    es
2a75  0e             push   cs
2a76  1f             pop    ds
2a77  731c           jnb    2a95
2a79  2ef606431c01   test   byte ptr cs:[1c43],01
2a7f  7505           jnz    2a86
2a81  2eff0e6f0b     dec    word ptr cs:[0b6f]   ; segment za‡ tku voln‚ pamˆti
2a86  26803c0d       cmp    byte ptr es:[si],0d
2a8a  7503           jnz    2a8f
2a8c  e940fc         jmp    26cf
2a8f  e8990e         call   392b
2a92  e957fd         jmp    27ec
2a95  2ef7061d0b0100 test   word ptr cs:[0b1d],0001
2a9c  7422           jz     2ac0
2a9e  06             push   es
2a9f  57             push   di
2aa0  1e             push   ds
2aa1  2e8b1efb07     mov    bx,cs:[07fb]
2aa6  8edb           mov    ds,bx
2aa8  2ec43ef507     les    di,cs:[07f5]
2aad  268b5d37       mov    bx,es:[di+37]
2ab1  891e1000       mov    [0010],bx
2ab5  268b5d39       mov    bx,es:[di+39]
2ab9  891e1200       mov    [0012],bx
2abd  1f             pop    ds
2abe  5f             pop    di
2abf  07             pop    es
2ac0  06             push   es
2ac1  56             push   si
2ac2  268a1c         mov    bl,es:[si]
2ac5  0adb           or     bl,bl
2ac7  7403           jz     2acc
2ac9  46             inc    si
2aca  ebf6           jmp    2ac2
2acc  26c60420       mov    byte ptr es:[si],20           ;' '
2ad0  06             push   es
2ad1  56             push   si
2ad2  0e             push   cs
2ad3  07             pop    es
2ad4  2ef7061d0b0100 test   word ptr cs:[0b1d],0001
2adb  7408           jz     2ae5
2add  bb1400         mov    bx,0014
2ae0  e88805         call   306b
2ae3  eb2e           jmp    2b13
2ae5  1e             push   ds
2ae6  56             push   si
2ae7  2ec536f907     lds    si,cs:[07f9]
2aec  f744040080     test   word ptr [si+04],8000
2af1  7512           jnz    2b05
2af3  2ec536f507     lds    si,cs:[07f5]
2af8  807c201a       cmp    byte ptr [si+20],1a
2afc  7207           jb     2b05
2afe  5e             pop    si
2aff  1f             pop    ds
2b00  5e             pop    si
2b01  07             pop    es
2b02  e9ee00         jmp    2bf3
2b05  5e             pop    si
2b06  1f             pop    ds
2b07  bb0600         mov    bx,0006
2b0a  e8c60b         call   36d3
2b0d  bb0800         mov    bx,0008
2b10  e8c00b         call   36d3
2b13  5e             pop    si
2b14  1f             pop    ds
2b15  c60400         mov    byte ptr [si],00
2b18  0e             push   cs
2b19  1f             pop    ds
2b1a  f7061d0b0100   test   word ptr [0b1d],0001
2b20  746c           jz     2b8e
2b22  803e220b00     cmp    byte ptr [0b22],00
2b27  7543           jnz    2b6c
2b29  5e             pop    si
2b2a  07             pop    es
2b2b  a1fb07         mov    ax,[07fb]
2b2e  0306390b       add    ax,[0b39]
2b32  c706830b0000   mov    word ptr [0b83],0000
2b38  a3850b         mov    [0b85],ax
2b3b  2e800e431c02   or     byte ptr cs:[1c43],02
2b41  e8130b         call   3657
2b44  06             push   es
2b45  56             push   si
2b46  7224           jb     2b6c
2b48  2ec43ef507     les    di,cs:[07f5]
2b4d  268b4d3b       mov    cx,es:[di+3b]
2b51  268b553d       mov    dx,es:[di+3d]
2b55  2ec536f907     lds    si,cs:[07f9]
2b5a  2689753b       mov    es:[di+3b],si
2b5e  268c5d3d       mov    es:[di+3d],ds
2b62  890c           mov    [si],cx
2b64  895402         mov    [si+02],dx
2b67  5e             pop    si
2b68  07             pop    es
2b69  e980fc         jmp    27ec
2b6c  5e             pop    si
2b6d  07             pop    es
2b6e  0e             push   cs
2b6f  1f             pop    ds
2b70  f606431c01     test   byte ptr [1c43],01
2b75  7504           jnz    2b7b
2b77  ff0e6f0b       dec    word ptr [0b6f]      ; segment za‡ tku voln‚ pamˆti
2b7b  833e8c0b00     cmp    word ptr [0b8c],+00
2b80  7409           jz     2b8b
2b82  e8ab04         call   3030
2b85  c7068c0b0000   mov    word ptr [0b8c],0000
2b8b  e95efc         jmp    27ec
2b8e  a1850b         mov    ax,[0b85]
2b91  3b060f08       cmp    ax,[080f]
2b95  7205           jb     2b9c
2b97  5e             pop    si
2b98  07             pop    es
2b99  e9ddfe         jmp    2a79
2b9c  c516f907       lds    dx,[07f9]
2ba0  8bf2           mov    si,dx
2ba2  83c604         add    si,+04
2ba5  2ec43ef507     les    di,cs:[07f5]
2baa  8b04           mov    ax,[si]
2bac  a90080         test   ax,8000
2baf  7428           jz     2bd9
2bb1  2e800e431c02   or     byte ptr cs:[1c43],02
2bb7  e89d0a         call   3657
2bba  72b0           jb     2b6c
2bbc  a90100         test   ax,0001
2bbf  7408           jz     2bc9
2bc1  2689550c       mov    es:[di+0c],dx
2bc5  268c5d0e       mov    es:[di+0e],ds
2bc9  a90800         test   ax,0008
2bcc  7408           jz     2bd6
2bce  26895508       mov    es:[di+08],dx
2bd2  268c5d0a       mov    es:[di+0a],ds
2bd6  e9b900         jmp    2c92
2bd9  2ea0820b       mov    al,cs:[0b82]
2bdd  0ac0           or     al,al
2bdf  748b           jz     2b6c
2be1  98             cbw
2be2  8bc8           mov    cx,ax
2be4  8af4           mov    dh,ah
2be6  268a5520       mov    dl,es:[di+20]
2bea  8ae2           mov    ah,dl
2bec  02e0           add    ah,al
2bee  80fc1a         cmp    ah,1a
2bf1  760b           jbe    2bfe
2bf3  0e             push   cs
2bf4  1f             pop    ds
2bf5  ba303e         mov    dx,3e30              ; text "Too many block devices"
2bf8  e85a0d         call   3955                 ; zobrazen¡ textu na displej
2bfb  e96eff         jmp    2b6c
2bfe  2e800e431c02   or     byte ptr cs:[1c43],02
2c04  e8500a         call   3657
2c07  26004520       add    es:[di+20],al
2c0b  2e00068b0b     add    cs:[0b8b],al
2c10  2ec51e870b     lds    bx,cs:[0b87]
2c15  2ec42ef507     les    bp,cs:[07f5]
2c1a  26c46e00       les    bp,es:[bp+00]
2c1e  26837e19ff     cmp    word ptr es:[bp+19],-01
2c23  7406           jz     2c2b
2c25  26c46e19       les    bp,es:[bp+19]
2c29  ebf3           jmp    2c1e
2c2b  2ea16d0b       mov    ax,cs:[0b6d]
2c2f  26894619       mov    es:[bp+19],ax
2c33  2ea16f0b       mov    ax,cs:[0b6f]         ; segment za‡ tku voln‚ pamˆti
2c37  2689461b       mov    es:[bp+1b],ax
2c3b  2ec42e6d0b     les    bp,cs:[0b6d]
2c40  2e83066d0b21   add    word ptr cs:[0b6d],+21
2c46  2e800e431c02   or     byte ptr cs:[1c43],02
2c4c  e8370a         call   3686
2c4f  26c74619ffff   mov    word ptr es:[bp+19],ffff
2c55  26c64618ff     mov    byte ptr es:[bp+18],ff
2c5a  8b37           mov    si,[bx]
2c5c  43             inc    bx
2c5d  43             inc    bx
2c5e  26895600       mov    es:[bp+00],dx
2c62  b453           mov    ah,53                         ;'s'
2c64  cd21           int    21
2c66  268b4602       mov    ax,es:[bp+02]
2c6a  06             push   es
2c6b  2ec43ef507     les    di,cs:[07f5]
2c70  263b4510       cmp    ax,es:[di+10]
2c74  07             pop    es
2c75  7756           ja     2ccd
2c77  1e             push   ds
2c78  52             push   dx
2c79  2ec516f907     lds    dx,cs:[07f9]
2c7e  26895613       mov    es:[bp+13],dx
2c82  268c5e15       mov    es:[bp+15],ds
2c86  5a             pop    dx
2c87  1f             pop    ds
2c88  42             inc    dx
2c89  fec6           inc    dh
2c8b  e288           loop   2c15
2c8d  0e             push   cs
2c8e  1f             pop    ds
2c8f  e820e2         call   0eb2
2c92  2ec43ef507     les    di,cs:[07f5]
2c97  268b4d22       mov    cx,es:[di+22]
2c9b  268b5524       mov    dx,es:[di+24]
2c9f  2ec536f907     lds    si,cs:[07f9]
2ca4  26897522       mov    es:[di+22],si
2ca8  268c5d24       mov    es:[di+24],ds
2cac  8b04           mov    ax,[si]
2cae  2ea3f907       mov    cs:[07f9],ax
2cb2  890c           mov    [si],cx
2cb4  895402         mov    [si+02],dx
2cb7  5e             pop    si
2cb8  07             pop    es
2cb9  40             inc    ax
2cba  7408           jz     2cc4
2cbc  2efe06401c     inc    byte ptr cs:[1c40]
2cc1  e9d1fd         jmp    2a95
2cc4  2ec606401c00   mov    byte ptr cs:[1c40],00
2cca  e91ffb         jmp    27ec
2ccd  5e             pop    si
2cce  07             pop    es
2ccf  ba523d         mov    dx,3d52              ; text "Sector size too ..."
2cd2  bb303d         mov    bx,3d30
2cd5  e8590c         call   3931
2cd8  f606431c01     test   byte ptr [1c43],01
2cdd  7504           jnz    2ce3
2cdf  ff0e6f0b       dec    word ptr [0b6f]      ; segment za‡ tku voln‚ pamˆti
2ce3  e906fb         jmp    27ec
2ce6  80fc51         cmp    ah,51                         ;'q'
2ce9  7403           jz     2cee
2ceb  e91901         jmp    2e07
2cee  c606fd3900     mov    byte ptr [39fd],00
2cf3  c706c7250000   mov    word ptr [25c7],0000
2cf9  bf9025         mov    di,2590
2cfc  33c9           xor    cx,cx
2cfe  8bd1           mov    dx,cx
2d00  e862fb         call   2865
2d03  730b           jnb    2d10
2d05  e8eb00         call   2df3
2d08  c706c525ffff   mov    word ptr [25c5],ffff
2d0e  eb34           jmp    2d44
2d10  3dffff         cmp    ax,ffff
2d13  742f           jz     2d44
2d15  803e622501     cmp    byte ptr [2562],01
2d1a  7512           jnz    2d2e
2d1c  a16625         mov    ax,[2566]
2d1f  83f901         cmp    cx,+01
2d22  7505           jnz    2d29
2d24  a3c525         mov    [25c5],ax
2d27  eb03           jmp    2d2c
2d29  a3c725         mov    [25c7],ax
2d2c  eb14           jmp    2d42
2d2e  1e             push   ds
2d2f  06             push   es
2d30  56             push   si
2d31  57             push   di
2d32  0e             push   cs
2d33  07             pop    es
2d34  c5366625       lds    si,[2566]
2d38  bffd39         mov    di,39fd
2d3b  e8e10b         call   391f
2d3e  5f             pop    di
2d3f  5e             pop    si
2d40  07             pop    es
2d41  1f             pop    ds
2d42  ebbc           jmp    2d00
2d44  833ec525ff     cmp    word ptr [25c5],-01
2d49  750a           jnz    2d55
2d4b  e99efa         jmp    27ec
2d4e  f9             stc
2d4f  ba993d         mov    dx,3d99              ; text "Invalid country code ..."
2d52  e98200         jmp    2dd7
2d55  803efd3900     cmp    byte ptr [39fd],00
2d5a  7406           jz     2d62
2d5c  bafd39         mov    dx,39fd
2d5f  eb04           jmp    2d65
2d61  90             nop
2d62  baff39         mov    dx,39ff
2d65  b8003d         mov    ax,3d00
2d68  f9             stc
2d69  cd21           int    21
2d6b  7249           jb     2db6
2d6d  2ea3670b       mov    cs:[0b67],ax
2d71  8bd8           mov    bx,ax
2d73  2ea1c525       mov    ax,cs:[25c5]
2d77  2e8b16c725     mov    dx,cs:[25c7]
2d7c  2e8b0e6f0b     mov    cx,cs:[0b6f]         ; segment za‡ tku voln‚ pamˆti
2d81  81c18000       add    cx,0080
2d85  2e3b0e3d08     cmp    cx,cs:[083d]
2d8a  7748           ja     2dd4
2d8c  befd39         mov    si,39fd
2d8f  803c00         cmp    byte ptr [si],00
2d92  7502           jnz    2d96
2d94  46             inc    si
2d95  46             inc    si
2d96  2ec43e0108     les    di,cs:[0801]
2d9b  57             push   di
2d9c  83c708         add    di,+08
2d9f  e87d0b         call   391f
2da2  5f             pop    di
2da3  2e8b0e6f0b     mov    cx,cs:[0b6f]         ; segment za‡ tku voln‚ pamˆti
2da8  8ed9           mov    ds,cx
2daa  33f6           xor    si,si
2dac  e8cf09         call   377e
2daf  7326           jnb    2dd7
2db1  83f9ff         cmp    cx,-01
2db4  7498           jz     2d4e
2db6  0e             push   cs
2db7  07             pop    es
2db8  2e803efd3900   cmp    byte ptr cs:[39fd],00
2dbe  7405           jz     2dc5
2dc0  befd39         mov    si,39fd
2dc3  eb03           jmp    2dc8
2dc5  beff39         mov    si,39ff
2dc8  e8600b         call   392b
2dcb  2e8b0e3b08     mov    cx,cs:[083b]
2dd0  8ec1           mov    es,cx
2dd2  eb14           jmp    2de8
2dd4  badc3d         mov    dx,3ddc              ; text "Insufficient memory..."
2dd7  2e8b0e3b08     mov    cx,cs:[083b]
2ddc  8ec1           mov    es,cx
2dde  0e             push   cs
2ddf  1f             pop    ds
2de0  7306           jnb    2de8
2de2  e8700b         call   3955                 ; zobrazen¡ textu na displej
2de5  e84802         call   3030
2de8  8b1e670b       mov    bx,[0b67]
2dec  b43e           mov    ah,3e                         ;'>'
2dee  cd21           int    21
2df0  e9f9f9         jmp    27ec
2df3  3d0600         cmp    ax,0006
2df6  7505           jnz    2dfd
2df8  ba993d         mov    dx,3d99              ; text "Invalid country code..."
2dfb  eb03           jmp    2e00
2dfd  babf3d         mov    dx,3dbf              ; text "Error in COUNTRY ..."
2e00  e8520b         call   3955                 ; zobrazen¡ textu na displej
2e03  e82a02         call   3030
2e06  c3             ret
2e07  80fc46         cmp    ah,46                         ;'f'
2e0a  7527           jnz    2e33
2e0c  bfc925         mov    di,25c9
2e0f  33c9           xor    cx,cx
2e11  8bd1           mov    dx,cx
2e13  e84ffa         call   2865
2e16  7305           jnb    2e1d
2e18  e8ccf8         call   26e7
2e1b  eb13           jmp    2e30
2e1d  3dffff         cmp    ax,ffff
2e20  7408           jz     2e2a
2e22  a06625         mov    al,[2566]
2e25  a2e825         mov    [25e8],al
2e28  ebe9           jmp    2e13
2e2a  a0e825         mov    al,[25e8]
2e2d  a23708         mov    [0837],al
2e30  e9b9f9         jmp    27ec
2e33  80fc4c         cmp    ah,4c                         ;'l'
2e36  7527           jnz    2e5f
2e38  bf2026         mov    di,2620
2e3b  33c9           xor    cx,cx
2e3d  8bd1           mov    dx,cx
2e3f  e823fa         call   2865
2e42  7305           jnb    2e49
2e44  e8a0f8         call   26e7
2e47  eb13           jmp    2e5c
2e49  3dffff         cmp    ax,ffff
2e4c  7408           jz     2e56
2e4e  a06625         mov    al,[2566]
2e51  a23426         mov    [2634],al
2e54  ebe9           jmp    2e3f
2e56  a03426         mov    al,[2634]
2e59  a23a08         mov    [083a],al
2e5c  e98df9         jmp    27ec
2e5f  80fc50         cmp    ah,50                         ;'p'
2e62  7513           jnz    2e77
2e64  e85004         call   32b7
2e67  720b           jb     2e74
2e69  e8f403         call   3260
2e6c  e82c04         call   329b
2e6f  7203           jb     2e74
2e71  e978f9         jmp    27ec
2e74  e958f8         jmp    26cf
2e77  80fc4b         cmp    ah,4b                         ;'k'
2e7a  7403           jz     2e7f
2e7c  e99100         jmp    2f10
2e7f  bf3526         mov    di,2635
2e82  33c9           xor    cx,cx
2e84  8bd1           mov    dx,cx
2e86  e8dcf9         call   2865
2e89  730b           jnb    2e96
2e8b  ba4b3e         mov    dx,3e4b              ; text "Invalid STACK..."
2e8e  e8c40a         call   3955                 ; zobrazen¡ textu na displej
2e91  e89c01         call   3030
2e94  eb77           jmp    2f0d
2e96  3dffff         cmp    ax,ffff
2e99  7412           jz     2ead
2e9b  a16625         mov    ax,[2566]
2e9e  83f901         cmp    cx,+01
2ea1  7505           jnz    2ea8
2ea3  a36a26         mov    [266a],ax
2ea6  eb03           jmp    2eab
2ea8  a36c26         mov    [266c],ax
2eab  ebd9           jmp    2e86
2ead  833e6a2600     cmp    word ptr [266a],+00
2eb2  7416           jz     2eca
2eb4  833e6a2608     cmp    word ptr [266a],+08
2eb9  7207           jb     2ec2
2ebb  833e6c2620     cmp    word ptr [266c],+20
2ec0  7306           jnb    2ec8
2ec2  c7066a26ffff   mov    word ptr [266a],ffff
2ec8  eb0d           jmp    2ed7
2eca  833e6c2600     cmp    word ptr [266c],+00
2ecf  7406           jz     2ed7
2ed1  c7066a26ffff   mov    word ptr [266a],ffff
2ed7  833e6a26ff     cmp    word ptr [266a],-01
2edc  751d           jnz    2efb
2ede  c70607080900   mov    word ptr [0807],0009
2ee4  c70609088000   mov    word ptr [0809],0080
2eea  c7060b080000   mov    word ptr [080b],0000
2ef0  ba4b3e         mov    dx,3e4b              ; text "Invalid STACK..."
2ef3  e85f0a         call   3955                 ; zobrazen¡ textu na displej
2ef6  e83701         call   3030
2ef9  eb12           jmp    2f0d
2efb  a16a26         mov    ax,[266a]
2efe  a30708         mov    [0807],ax
2f01  a16c26         mov    ax,[266c]
2f04  a30908         mov    [0809],ax
2f07  c7060b08ffff   mov    word ptr [080b],ffff
2f0d  e9dcf8         jmp    27ec
2f10  80fc53         cmp    ah,53                         ;'s'
2f13  753d           jnz    2f52
2f15  c606440800     mov    byte ptr [0844],00   ; oddˆlovac¡ znak parametr– p©¡kaz. © dku
2f1a  bf4b3a         mov    di,3a4b
2f1d  8845ff         mov    [di-01],al
2f20  e8e700         call   300a
2f23  0ac0           or     al,al
2f25  7419           jz     2f40
2f27  3c20           cmp    al,20                         ;' '
2f29  7205           jb     2f30
2f2b  8805           mov    [di],al
2f2d  47             inc    di
2f2e  ebf0           jmp    2f20
2f30  c60500         mov    byte ptr [di],00
2f33  e8d400         call   300a
2f36  3c0a           cmp    al,0a
2f38  7503           jnz    2f3d
2f3a  e8cd00         call   300a
2f3d  e97ff8         jmp    27bf
2f40  c60500         mov    byte ptr [di],00
2f43  bf4408         mov    di,0844              ; oddˆlovac¡ znak parametr– p©¡kaz. © dku
2f46  e8c100         call   300a
2f49  3c20           cmp    al,20                         ;' '
2f4b  72e3           jb     2f30
2f4d  8805           mov    [di],al
2f4f  47             inc    di
2f50  ebf4           jmp    2f46
2f52  80fc58         cmp    ah,58                         ;'x'
2f55  7547           jnz    2f9e
2f57  bfe925         mov    di,25e9
2f5a  33c9           xor    cx,cx
2f5c  8bd1           mov    dx,cx
2f5e  e804f9         call   2865
2f61  7305           jnb    2f68
2f63  e881f7         call   26e7
2f66  eb33           jmp    2f9b
2f68  3dffff         cmp    ax,ffff
2f6b  7412           jz     2f7f
2f6d  a06625         mov    al,[2566]
2f70  83f901         cmp    cx,+01
2f73  7505           jnz    2f7a
2f75  a21e26         mov    [261e],al
2f78  eb03           jmp    2f7d
2f7a  a21f26         mov    [261f],al
2f7d  ebdf           jmp    2f5e
2f7f  a01e26         mov    al,[261e]
2f82  3a061f26       cmp    al,[261f]
2f86  730a           jnb    2f92
2f88  e85cf7         call   26e7
2f8b  c6061f2600     mov    byte ptr [261f],00
2f90  eb09           jmp    2f9b
2f92  a23808         mov    [0838],al
2f95  a01f26         mov    al,[261f]
2f98  a23908         mov    [0839],al
2f9b  e94ef8         jmp    27ec
2f9e  80fc59         cmp    ah,59                         ;'y'
2fa1  750b           jnz    2fae
2fa3  ff0e650b       dec    word ptr [0b65]
2fa7  ff06610b       inc    word ptr [0b61]      ; velikost souboru CONFIG.SYS
2fab  e93ef8         jmp    27ec
2fae  80fc30         cmp    ah,30                         ;'0'
2fb1  74f0           jz     2fa3
2fb3  80fc31         cmp    ah,31                         ;'1'
2fb6  7540           jnz    2ff8
2fb8  bf9826         mov    di,2698
2fbb  33c9           xor    cx,cx
2fbd  8bd1           mov    dx,cx
2fbf  e8a3f8         call   2865
2fc2  7305           jnb    2fc9
2fc4  e820f7         call   26e7
2fc7  eb2c           jmp    2ff5
2fc9  3dffff         cmp    ax,ffff
2fcc  740f           jz     2fdd
2fce  813e6425ac26   cmp    word ptr [2564],26ac
2fd4  7505           jnz    2fdb
2fd6  c606af2601     mov    byte ptr [26af],01
2fdb  ebe2           jmp    2fbf
2fdd  803eaf2601     cmp    byte ptr [26af],01
2fe2  1e             push   ds
2fe3  b87000         mov    ax,0070
2fe6  8ed8           mov    ds,ax
2fe8  750a           jnz    2ff4
2fea  c6061c0600     mov    byte ptr [061c],00
2fef  c6061d0601     mov    byte ptr [061d],01
2ff4  1f             pop    ds
2ff5  e9f4f7         jmp    27ec
2ff8  80fcff         cmp    ah,ff
2ffb  740b           jz     3008
2ffd  ff0e650b       dec    word ptr [0b65]
3001  ff06610b       inc    word ptr [0b61]      ; velikost souboru CONFIG.SYS
3005  e9c7f6         jmp    26cf
3008  eb99           jmp    2fa3
300a  51             push   cx
300b  8b0e610b       mov    cx,[0b61]            ; velikost souboru CONFIG.SYS
300f  e312           jcxz   3023
3011  8b36650b       mov    si,[0b65]
3015  268a04         mov    al,es:[si]
3018  ff0e610b       dec    word ptr [0b61]      ; velikost souboru CONFIG.SYS
301c  ff06650b       inc    word ptr [0b65]
3020  f8             clc
3021  59             pop    cx
3022  c3             ret
3023  f9             stc
3024  ebfb           jmp    3021
3026  ba683e         mov    dx,3e68              ; text "Incorrect order in..."
3029  e82909         call   3955                 ; zobrazen¡ textu na displej
302c  e80d00         call   303c
302f  c3             ret
3030  0e             push   cs
3031  1f             pop    ds
3032  ba8e3e         mov    dx,3e8e              ; text "Error in CONFIG.SYS..."
3035  e81d09         call   3955                 ; zobrazen¡ textu na displej
3038  e80100         call   303c
303b  c3             ret
303c  06             push   es
303d  1e             push   ds
303e  57             push   di
303f  0e             push   cs
3040  07             pop    es
3041  0e             push   cs
3042  1f             pop    ds
3043  bf6b08         mov    di,086b
3046  b90a00         mov    cx,000a
3049  2ea16508       mov    ax,cs:[0865]
304d  3d0a00         cmp    ax,000a
3050  720c           jb     305e
3052  33d2           xor    dx,dx
3054  f7f1           div    cx
3056  80ca30         or     dl,30                         ;'0'
3059  8815           mov    [di],dl
305b  4f             dec    di
305c  ebef           jmp    304d
305e  0c30           or     al,30                         ;'0'
3060  8805           mov    [di],al
3062  8bd7           mov    dx,di
3064  e8ee08         call   3955                 ; zobrazen¡ textu na displej
3067  5f             pop    di
3068  1f             pop    ds
3069  07             pop    es
306a  c3             ret


306b  50             push   ax
306c  2e8e1efb07     mov    ds,cs:[07fb]
3071  2e031ef907     add    bx,cs:[07f9]
3076  8b07           mov    ax,[bx]
3078  2eff36f907     push   cs:[07f9]
307d  2ea3f907       mov    cs:[07f9],ax
3081  bb1f0b         mov    bx,0b1f
3084  2eff1ef907     call   far cs:[07f9]
3089  2e8f06f907     pop    cs:[07f9]
308e  58             pop    ax
308f  c3             ret
3090  1e             push   ds
3091  56             push   si
3092  06             push   es
3093  57             push   di
3094  2e8b3e6f0b     mov    di,cs:[0b6f]         ; segment za‡ tku voln‚ pamˆti
3099  8edf           mov    ds,di
309b  2e893e411c     mov    cs:[1c41],di
30a0  2ef7061d0b0100 test   word ptr cs:[0b1d],0001
30a7  7504           jnz    30ad
30a9  b044           mov    al,44                         ;'d'
30ab  eb02           jmp    30af
30ad  b049           mov    al,49                         ;'i'
30af  a20000         mov    [0000],al
30b2  47             inc    di
30b3  893e0100       mov    [0001],di
30b7  32c0           xor    al,al
30b9  56             push   si
30ba  5f             pop    di
30bb  b98000         mov    cx,0080
30be  f2             repnz
30bf  ae             scasb
30c0  4f             dec    di
30c1  268a05         mov    al,es:[di]
30c4  3c5c           cmp    al,5c                         ;'\'
30c6  740b           jz     30d3
30c8  3c3a           cmp    al,3a                         ;':'
30ca  7407           jz     30d3
30cc  3bfe           cmp    di,si
30ce  7404           jz     30d4
30d0  4f             dec    di
30d1  ebee           jmp    30c1
30d3  47             inc    di
30d4  57             push   di
30d5  5e             pop    si
30d6  1e             push   ds
30d7  06             push   es
30d8  1f             pop    ds
30d9  07             pop    es
30da  bf0800         mov    di,0008
30dd  57             push   di
30de  b020           mov    al,20                         ;' '
30e0  b90800         mov    cx,0008
30e3  f3             repz
30e4  aa             stosb
30e5  5f             pop    di
30e6  b90800         mov    cx,0008
30e9  ac             lodsb
30ea  3c2e           cmp    al,2e                         ;'.'
30ec  7407           jz     30f5
30ee  3c00           cmp    al,00
30f0  7403           jz     30f5
30f2  aa             stosb
30f3  e2f4           loop   30e9
30f5  5f             pop    di
30f6  07             pop    es
30f7  5e             pop    si
30f8  1f             pop    ds
30f9  c3             ret
30fa  06             push   es
30fb  56             push   si
30fc  1e             push   ds
30fd  57             push   di
30fe  51             push   cx
30ff  8bfe           mov    di,si
3101  26803c00       cmp    byte ptr es:[si],00
3105  7403           jz     310a
3107  46             inc    si
3108  ebf7           jmp    3101
310a  4e             dec    si
310b  26803c5c       cmp    byte ptr es:[si],5c           ;'\'
310f  740c           jz     311d
3111  26803c3a       cmp    byte ptr es:[si],3a           ;':'
3115  7406           jz     311d
3117  3bfe           cmp    di,si
3119  7403           jz     311e
311b  ebed           jmp    310a
311d  46             inc    si
311e  0e             push   cs
311f  1f             pop    ds
3120  56             push   si
3121  5f             pop    di
3122  b90900         mov    cx,0009
3125  be491c         mov    si,1c49
3128  f3             repz
3129  a6             cmpsb
312a  59             pop    cx
312b  5f             pop    di
312c  1f             pop    ds
312d  5e             pop    si
312e  07             pop    es
312f  c3             ret
3130  50             push   ax
3131  52             push   dx
3132  b82f12         mov    ax,122f
3135  ba0000         mov    dx,0000
3138  cd2f           int    2f
313a  5a             pop    dx
313b  58             pop    ax
313c  c3             ret


3130  50 52 B8 2F 12 BA 00 00-CD 2F 5A 58 C3 FF FF FF  PR8/.:..M/ZXC...
3140  FF 40 C0 00 00 00 00 45-4D 4D 58 58 58 58 30 00  .@@....EMMXXXX0.
3150  00 00 00 00 00 00 00 00-80 FC 1B 74 05 2E FF 2E  .........|.t....


3158  80fc1b         cmp    ah,1b
315b  7405           jz     3162
315d  2eff2e1200     jmp    far cs:[0012]
3162  0ac0           or     al,al
3164  7503           jnz    3169
3166  b0ff           mov    al,ff
3168  cf             iret
3169  81ff8000       cmp    di,0080
316d  7509           jnz    3178
316f  2ec6061a0000   mov    byte ptr cs:[001a],00
3175  eb10           jmp    3187
3177  90             nop
3178  81ff8100       cmp    di,0081
317c  750e           jnz    318c
317e  2ec6061a0001   mov    byte ptr cs:[001a],01
3184  eb01           jmp    3187
3186  90             nop
3187  33c0           xor    ax,ax
3189  eb04           jmp    318f
318b  90             nop
318c  b8ffff         mov    ax,ffff
318f  cf             iret
3190  2e803e1a0001   cmp    byte ptr cs:[001a],01
3196  7504           jnz    319c
3198  b480           mov    ah,80
319a  f9             stc
319b  cf             iret
319c  2eff2e1600     jmp    far cs:[0016]
31a1  50             push   ax
31a2  1e             push   ds
31a3  33c0           xor    ax,ax
31a5  8ed8           mov    ds,ax
31a7  833e9c0100     cmp    word ptr [019c],+00
31ac  1f             pop    ds
31ad  7418           jz     31c7
31af  b440           mov    ah,40                         ;'@'
31b1  32c0           xor    al,al
31b3  cd67           int    67
31b5  0ae4           or     ah,ah
31b7  750e           jnz    31c7
31b9  b446           mov    ah,46                         ;'f'
31bb  32c0           xor    al,al
31bd  cd67           int    67
31bf  3c40           cmp    al,40                         ;'@'
31c1  7204           jb     31c7
31c3  f8             clc
31c4  eb02           jmp    31c8
31c6  90             nop
31c7  f9             stc
31c8  58             pop    ax
31c9  c3             ret
31ca  06             push   es
31cb  56             push   si
31cc  1e             push   ds
31cd  57             push   di
31ce  50             push   ax
31cf  51             push   cx
31d0  2e803e441c00   cmp    byte ptr cs:[1c44],00
31d6  7403           jz     31db
31d8  eb7f           jmp    3259
31da  90             nop
31db  2e803e730800   cmp    byte ptr cs:[0873],00
31e1  7476           jz     3259
31e3  e8bbff         call   31a1
31e6  7271           jb     3259
31e8  06             push   es
31e9  33c0           xor    ax,ax
31eb  8ec0           mov    es,ax
31ed  26a1bc00       mov    ax,es:[00bc]
31f1  2ea34f31       mov    cs:[314f],ax
31f5  26a1be00       mov    ax,es:[00be]
31f9  2ea35131       mov    cs:[3151],ax
31fd  26a19c01       mov    ax,es:[019c]
3201  2ea35331       mov    cs:[3153],ax
3205  26a19e01       mov    ax,es:[019e]
3209  2ea35531       mov    cs:[3155],ax
320d  07             pop    es
320e  e87504         call   3686
3211  b84500         mov    ax,0045
3214  e8ace9         call   1bc3
3217  2ea16f0b       mov    ax,cs:[0b6f]         ; segment za‡ tku voln‚ pamˆti
321b  8ec0           mov    es,ax
321d  33ff           xor    di,di
321f  0e             push   cs
3220  1f             pop    ds
3221  b9a131         mov    cx,31a1
3224  be3d31         mov    si,313d
3227  2bce           sub    cx,si
3229  2e890e6d0b     mov    cs:[0b6d],cx
322e  f3             repz
322f  a4             movsb
3230  2e800e431c02   or     byte ptr cs:[1c43],02
3236  e84d04         call   3686
3239  2ec606441c01   mov    byte ptr cs:[1c44],01
323f  33c0           xor    ax,ax
3241  8ed8           mov    ds,ax
3243  fa             cli
3244  c706bc001b00   mov    word ptr [00bc],001b
324a  8c06be00       mov    [00be],es
324e  c7069c015300   mov    word ptr [019c],0053
3254  8c069e01       mov    [019e],es
3258  fb             sti
3259  59             pop    cx
325a  58             pop    ax
325b  5f             pop    di
325c  1f             pop    ds
325d  5e             pop    si
325e  07             pop    es
325f  c3             ret
3260  1e             push   ds
3261  50             push   ax
3262  53             push   bx
3263  51             push   cx
3264  52             push   dx
3265  0e             push   cs
3266  1f             pop    ds
3267  33db           xor    bx,bx
3269  8a1e8c3c       mov    bl,[3c8c]
326d  fec3           inc    bl
326f  ba643b         mov    dx,3b64
3272  b444           mov    ah,44                         ;'d'
3274  b00d           mov    al,0d
3276  b508           mov    ch,08
3278  b140           mov    cl,40                         ;'@'
327a  cd21           int    21
327c  f7068d3c0400   test   word ptr [3c8d],0004
3282  7411           jz     3295
3284  8a0e8c3c       mov    cl,[3c8c]
3288  b87000         mov    ax,0070
328b  8ed8           mov    ds,ax
328d  b001           mov    al,01
328f  d2e0           shl    al,cl
3291  0806910a       or     [0a91],al
3295  5a             pop    dx
3296  59             pop    cx
3297  5b             pop    bx
3298  58             pop    ax
3299  1f             pop    ds
329a  c3             ret
329b  1e             push   ds
329c  0e             push   cs
329d  1f             pop    ds
329e  c706683b5000   mov    word ptr [3b68],0050
32a4  c606653b02     mov    byte ptr [3b65],02
32a9  c706663b0000   mov    word ptr [3b66],0000
32af  c7068d3c0000   mov    word ptr [3c8d],0000
32b5  1f             pop    ds
32b6  c3             ret
32b7  1e             push   ds
32b8  0e             push   cs
32b9  1f             pop    ds
32ba  3c0d           cmp    al,0d
32bc  7422           jz     32e0
32be  3c0a           cmp    al,0a
32c0  743e           jz     3300
32c2  3c20           cmp    al,20                         ;' '
32c4  7610           jbe    32d6
32c6  3c2f           cmp    al,2f                         ;'/'
32c8  7403           jz     32cd
32ca  f9             stc
32cb  eb31           jmp    32fe
32cd  e83a00         call   330a
32d0  891e8d3c       mov    [3c8d],bx
32d4  7207           jb     32dd
32d6  e831fd         call   300a
32d9  7205           jb     32e0
32db  ebdd           jmp    32ba
32dd  eb1f           jmp    32fe
32df  90             nop
32e0  f7068d3c0800   test   word ptr [3c8d],0008
32e6  7503           jnz    32eb
32e8  f9             stc
32e9  eb13           jmp    32fe
32eb  a18d3c         mov    ax,[3c8d]
32ee  250300         and    ax,0003
32f1  a3663b         mov    [3b66],ax
32f4  c7068a3b0000   mov    word ptr [3b8a],0000
32fa  f8             clc
32fb  e8a000         call   339e
32fe  1f             pop    ds
32ff  c3             ret
3300  ff06610b       inc    word ptr [0b61]      ; velikost souboru CONFIG.SYS
3304  ff0e650b       dec    word ptr [0b65]
3308  ebd6           jmp    32e0
330a  e8fdfc         call   300a
330d  7252           jb     3361
330f  24df           and    al,df
3311  3c41           cmp    al,41                         ;'a'
3313  724c           jb     3361
3315  3c5a           cmp    al,5a                         ;'z'
3317  7748           ja     3361
3319  06             push   es
331a  0e             push   cs
331b  07             pop    es
331c  8a0e033d       mov    cl,[3d03]
3320  b500           mov    ch,00
3322  bf043d         mov    di,3d04
3325  f2             repnz
3326  ae             scasb
3327  07             pop    es
3328  7537           jnz    3361
332a  b80100         mov    ax,0001
332d  d3e0           shl    ax,cl
332f  8b1e8d3c       mov    bx,[3c8d]
3333  0bd8           or     bx,ax
3335  8bc8           mov    cx,ax
3337  a9f800         test   ax,00f8
333a  90             nop
333b  7420           jz     335d
333d  e8cafc         call   300a
3340  721d           jb     335f
3342  3c3a           cmp    al,3a                         ;':'
3344  7519           jnz    335f
3346  e8c1fc         call   300a
3349  53             push   bx
334a  2ec606640820   mov    byte ptr cs:[0864],20         ;' '
3350  e8ba03         call   370d
3353  2ec606640800   mov    byte ptr cs:[0864],00
3359  5b             pop    bx
335a  e80600         call   3363
335d  f8             clc
335e  c3             ret
335f  33d9           xor    bx,cx
3361  f9             stc
3362  c3             ret
3363  850e8d3c       test   [3c8d],cx
3367  7533           jnz    339c
3369  f7c10800       test   cx,0008
336d  7405           jz     3374
336f  a28c3c         mov    [3c8c],al
3372  eb28           jmp    339c
3374  f7c18000       test   cx,0080
3378  7405           jz     337f
337a  a2653b         mov    [3b65],al
337d  eb1d           jmp    339c
337f  0bc0           or     ax,ax
3381  7419           jz     339c
3383  f7c11000       test   cx,0010
3387  7405           jz     338e
3389  a3683b         mov    [3b68],ax
338c  eb0e           jmp    339c
338e  f7c12000       test   cx,0020
3392  7405           jz     3399
3394  a38a3c         mov    [3c8a],ax
3397  eb03           jmp    339c
3399  a3883c         mov    [3c88],ax
339c  f8             clc
339d  c3             ret
339e  06             push   es
339f  0e             push   cs
33a0  07             pop    es
33a1  33db           xor    bx,bx
33a3  8a1e653b       mov    bl,[3b65]
33a7  80fb00         cmp    bl,00
33aa  7507           jnz    33b3
33ac  b92800         mov    cx,0028
33af  890e683b       mov    [3b68],cx
33b3  d1e3           shl    bx,1
33b5  bef33c         mov    si,3cf3
33b8  8b30           mov    si,[bx+si]
33ba  bf6b3b         mov    di,3b6b
33bd  b91f00         mov    cx,001f
33c0  fc             cld
33c1  f3             repz
33c2  a4             movsb
33c3  07             pop    es
33c4  f7068d3c2000   test   word ptr [3c8d],0020
33ca  7406           jz     33d2
33cc  a18a3c         mov    ax,[3c8a]
33cf  a3783b         mov    [3b78],ax
33d2  f7068d3c4000   test   word ptr [3c8d],0040
33d8  743e           jz     3418
33da  a1883c         mov    ax,[3c88]
33dd  a37a3b         mov    [3b7a],ax
33e0  8bc8           mov    cx,ax
33e2  fec9           dec    cl
33e4  a1733b         mov    ax,[3b73]
33e7  d1f8           sar    ax,1
33e9  d3e0           shl    ax,cl
33eb  722b           jb     3418
33ed  a3733b         mov    [3b73],ax
33f0  80f901         cmp    cl,01
33f3  b3f0           mov    bl,f0
33f5  b002           mov    al,02
33f7  7717           ja     3410
33f9  8a1e753b       mov    bl,[3b75]
33fd  7411           jz     3410
33ff  b001           mov    al,01
3401  8a2e653b       mov    ch,[3b65]
3405  80fd00         cmp    ch,00
3408  7404           jz     340e
340a  b3f0           mov    bl,f0
340c  eb02           jmp    3410
340e  fecb           dec    bl
3410  881e753b       mov    [3b75],bl
3414  a26d3b         mov    [3b6d],al
3417  f8             clc
3418  c3             ret
3419  f9             stc
341a  c3             ret
341b  2e8b0e610b     mov    cx,cs:[0b61]         ; velikost souboru CONFIG.SYS
3420  e3f7           jcxz   3419
3422  e81402         call   3639                 ; p©evod p©¡kazov‚ho © dku na velk  p¡smena
3425  33f6           xor    si,si
3427  8bfe           mov    di,si
3429  33c0           xor    ax,ax
342b  2ec6065b0b00   mov    byte ptr cs:[0b5b],00
3431  e88f01       * call   35c3
3434  740e           jz     3444
3436  e88201         call   35bb                 ; na‡ten¡ dal¨¡ho znaku
3439  3c0a           cmp    al,0a
343b  7407           jz     3444
343d  3c20           cmp    al,20                         ;' '
343f  76f0           jbe    3431
3441  eb0a           jmp    344d
3443  90             nop

3444  aa           * stosb                       ; ulo‘en¡ koncov‚ho znaku
3445  2ec6065b0b00   mov    byte ptr cs:[0b5b],00
344b  ebe4           jmp    3431

344d  51             push   cx
344e  56             push   si
344f  57             push   di
3450  8bee           mov    bp,si                ; adresa p©¡kazov‚ho © dku CONFIG.SYS
3452  4d             dec    bp
3453  bed93a         mov    si,3ad9              ; tabulka p©¡kaz– CONFIG.SYS
3456  b500           mov    ch,00                ; CH <- 00
3458  8bfd         * mov    di,bp                ; porovn van˜ ©etˆzec
345a  8a0c           mov    cl,[si]              ; po‡et znak– porovn van‚ho p©¡kazu
345c  46             inc    si                   ; prvn¡ znak p©¡kazu
345d  e324           jcxz   3483                 ; je ji‘ konec tabulky - nenalezen
345f  f3a6           repz   cmpsb                ; porovn n¡ p©¡kaz–
3461  9f             lahf                        ; £schova registru p©¡znak– do AH
3462  03f1           add    si,cx                ; posun ukazatele v tabulce na dal¨¡ p©¡kaz
3464  9e             sahf                        ; n vrat registru p©¡znak– z reg. AH
3465  ac             lodsb                       ; na‡ten¡ identifika‡n¡ho znaku
3466  75f0           jnz    3458                 ; nebyl nalezen p©¡kaz - dal¨¡
3468  26803d0d       cmp    byte ptr es:[di],0d  ; je konec © dku ?
346c  7410           jz     347e                 ; konec © dku p©¡kazu
346e  26803d0a       cmp    byte ptr es:[di],0a  ; je konec © dku ?
3472  740a           jz     347e                 ; konec © dku p©¡kazu
3474  50             push   ax                   ; AL = identifik tor p©¡kazu
3475  268a05         mov    al,es:[di]           ; n sleduj¡c¡ znak za p©¡kazem
3478  e88301         call   35fe                 ; test, zda je znak oddˆlova‡ konce p©¡kazu
347b  58             pop    ax                   ; AL = identifik tor p©¡kazu
347c  75da           jnz    3458                 ; nen¡ znak oddˆlova‡e - dal¨¡ hled n¡ p©¡kazu
347e  5f           * pop    di
347f  5e             pop    si
3480  59             pop    cx
3481  eb0f           jmp    3492                 ; nalezen p©¡kaz - jeho k¢d je v AL
                                                 ; nebyl nalezen p©¡kaz z tabulky - chyba
3483  5f             pop    di
3484  5e             pop    si
3485  59             pop    cx
3486  b05a           mov    al,5a                         ;'z'
3488  aa             stosb
3489  e82f01         call   35bb                 ; na‡ten¡ dal¨¡ho znaku
348c  3c0a           cmp    al,0a
348e  75f9           jnz    3489
3490  ebb2           jmp    3444
                                                 ; nalezen p©¡kaz - jeho k¢d je v AL
3492  aa             stosb                       ; ulo‘en¡ znaku identifik toru
3493  2ea25f0b       mov    cs:[0b5f],al         ; identifik tor p©¡kazu CONFIG.SYS
3497  e82101         call   35bb                 ; na‡ten¡ dal¨¡ho znaku
349a  3c0a           cmp    al,0a
349c  740b           jz     34a9                 ; je konec © dku
349e  3c0d           cmp    al,0d
34a0  7407           jz     34a9                 ; je konec © dku
34a2  e85901         call   35fe                 ; test, zda je znak oddˆlova‡e konce p©¡kazu
34a5  75f0           jnz    3497                 ; nen¡ konec © dku
34a7  eb02           jmp    34ab                 ; je konec © dku
34a9  4e           * dec    si                   ; n vrat posledn¡ho znaku
34aa  41             inc    cx
34ab  2e803e5f0b59 * cmp    byte ptr cs:[0b5f],59; je p©¡kaz "COMMENT" ?
34b1  7463           jz     3516                 ; je p©¡kaz "COMMENT"
34b3  2e803e5f0b49   cmp    byte ptr cs:[0b5f],49; je p©¡kaz "INSTALL" ?
34b9  7434           jz     34ef                 ; je p©¡kaz "INSTALL"
34bb  2e803e5f0b44   cmp    byte ptr cs:[0b5f],44; je p©¡kaz "DEVICE" ?
34c1  742c           jz     34ef                 ; je p©¡kaz "DEVICE"
34c3  2e803e5f0b4a   cmp    byte ptr cs:[0b5f],4a; je p©¡kaz "IFS" ?
34c9  7424           jz     34ef                 ; je p©¡kaz "IFS"
34cb  2e803e5f0b53   cmp    byte ptr cs:[0b5f],53; je p©¡kaz "SHELL" ?
34d1  741c           jz     34ef                 ; je p©¡kaz "SHELL"
34d3  2e803e5f0b31   cmp    byte ptr cs:[0b5f],31; je p©¡kaz "SWITCHES" ?
34d9  7403           jz     34de                 ; je p©¡kaz "SWITCHES"
34db  e99c00         jmp    357a                 ; je jin˜ p©¡kaz
34de  e8e200         call   35c3                 ; je p©¡kaz "SWITCHES"
34e1  7477           jz     355a
34e3  e8d500         call   35bb                 ; na‡ten¡ dal¨¡ho znaku
34e6  e81d01         call   3606
34e9  74f3           jz     34de
34eb  aa             stosb
34ec  e99b00         jmp    358a
                                                 ; je p©¡kaz INSTALL, DEVICE, IFS nebo SHELL
34ef  e8d100         call   35c3
34f2  7469           jz     355d
34f4  e8c400         call   35bb                 ; na‡ten¡ dal¨¡ho znaku
34f7  e80401         call   35fe                 ; test, zda je znak oddˆlova‡ konce p©¡kazu
34fa  74f3           jz     34ef                 ; je znak oddˆlova‡e
34fc  aa             stosb
34fd  e8c300         call   35c3
3500  745b           jz     355d
3502  e8b600         call   35bb                 ; na‡ten¡ dal¨¡ho znaku
3505  3c2f           cmp    al,2f                ; je oddˆlova‡ parametr– "/" ?
3507  745c           jz     3565                 ; je oddˆlova‡ parametr– "/"
3509  aa             stosb
350a  e8f100         call   35fe                 ; test, zda je znak oddˆlova‡ konce p©¡kazu
350d  745f           jz     356e
350f  3c20           cmp    al,20                ; je znak mezery ?
3511  77ea           ja     34fd                 ; je platn˜ znak (nen¡ ©¡d¡c¡ znak)
3513  eb59           jmp    356e                 ; je ©¡d¡c¡ znak
3515  90             nop

                                                 ; p©¡kaz "COMMENT"
3516  e8a200       * call   35bb                 ; na‡ten¡ dal¨¡ho znaku
3519  3c20           cmp    al,20                ; je znak mezery ?
351b  74f9           jz     3516                 ; je mezera - dal¨¡ znak
351d  3c09           cmp    al,09                ; je tabel tor ?
351f  74f5           jz     3516                 ; je tabel tor - dal¨¡ znak
3521  3c3d           cmp    al,3d                ; je oddˆlova‡ "=" ?
3523  74f1           jz     3516                 ; je oddˆlova‡ "=" - dal¨¡ znak
3525  3c0d           cmp    al,0d                ; je znak <CR> ?
3527  742a           jz     3553                 ; je konec © dku - nalezen¡ konce © dku
3529  3c0a           cmp    al,0a                ; je znak <LF> ?
352b  7426           jz     3553                 ; je konec © dku - nalezen¡ konce © dku
352d  2ea25d0b       mov    cs:[0b5d],al         ; prvn¡ znak za p©¡kazem "COMMENT"
3531  2ec6065c0b01   mov    byte ptr cs:[0b5c],01; po‡et znak– za p©¡kazem "COMMENT"
3537  e88100         call   35bb                 ; na‡ten¡ dal¨¡ho znaku
353a  3c20           cmp    al,20                ; je znak mezery ?
353c  7415           jz     3553                 ; je mezera - nalezen¡ konce © dku
353e  3c09           cmp    al,09                ; je znak tabel toru ?
3540  7411           jz     3553                 ; je tabel tor - nalezen¡ konce © dku
3542  3c0d           cmp    al,0d                ; je znak <CR> ?
3544  740d           jz     3553                 ; je znak <CR> - nalezen¡ konce © dku
3546  3c0a           cmp    al,0a                ; je znak <LF> ?
3548  7410           jz     355a                 ; je znak <LF> - konec © dku
354a  2ea25e0b       mov    cs:[0b5e],al         ; druh˜ znak za p©¡kazem "COMMENT"
354e  2efe065c0b     inc    byte ptr cs:[0b5c]   ; po‡et znak– za p©¡kazem "COMMENT" = 2
                                                 ; nalezen¡ konce © dku
3553  e86500       * call   35bb                 ; na‡ten¡ dal¨¡ho znaku
3556  3c0a           cmp    al,0a                ; je znak <LF> ?
3558  75f9           jnz    3553                 ; nen¡ znak <LF> - dal¨¡ znak
355a  e9e7fe       * jmp    3444

355d  26c60500       mov    byte ptr es:[di],00
3561  47             inc    di
3562  e9dffe         jmp    3444
3565  26c60500       mov    byte ptr es:[di],00
3569  47             inc    di
356a  aa             stosb
356b  eb1d           jmp    358a
356d  90             nop

356e  26c645ff00     mov    byte ptr es:[di-01],00
3573  3c0a           cmp    al,0a
3575  74e3           jz     355a
3577  eb11           jmp    358a
3579  90             nop
                                                 ; je jin˜ p©¡kaz CONFIG.SYS
357a  e84600         call   35c3
357d  74db           jz     355a
357f  e83900         call   35bb                 ; na‡ten¡ dal¨¡ho znaku
3582  e88100         call   3606
3585  74f3           jz     357a
3587  eb09           jmp    3592
3589  90             nop
358a  e83600         call   35c3
358d  74cb           jz     355a
358f  e82900         call   35bb                 ; na‡ten¡ dal¨¡ho znaku
3592  aa             stosb
3593  3c22           cmp    al,22                         ;'"'
3595  740d           jz     35a4
3597  3c20           cmp    al,20                         ;' '
3599  77ef           ja     358a
359b  3c0a           cmp    al,0a
359d  7402           jz     35a1
359f  ebe9           jmp    358a
35a1  e98dfe         jmp    3431
35a4  2e803e5b0b00   cmp    byte ptr cs:[0b5b],00
35aa  7408           jz     35b4
35ac  2ec6065b0b00   mov    byte ptr cs:[0b5b],00
35b2  ebd6           jmp    358a
35b4  2efe065b0b     inc    byte ptr cs:[0b5b]
35b9  ebcf           jmp    358a

                                                 ; na‡ten¡ dal¨¡ho znaku
35bb  e35c         * jcxz   3619                 ; je konec © dku - zru¨en¡ n vratu
35bd  268a04         mov    al,es:[si]           ; na‡ten¡ dal¨¡ho znaku
35c0  46             inc    si                   ; zv˜¨en¡ ukazatele p©¡kazov‚ho © dku
35c1  49             dec    cx                   ; sn¡‘en¡ ‡¡ta‡e znak–
35c2  c3           * ret

                                                 ; na‡ten¡ dal¨¡ho znaku
35c3  e354           jcxz   3619                 ; je konec © dku - zru¨en¡ n vratu
35c5  2e803e5b0b00   cmp    byte ptr cs:[0b5b],00
35cb  7530           jnz    35fd
35cd  2e803e5c0b01   cmp    byte ptr cs:[0b5c],01; po‡et znak– za p©¡kazem "COMMENT"
35d3  7228           jb     35fd
35d5  268a04         mov    al,es:[si]
35d8  2e38065d0b     cmp    cs:[0b5d],al         ; prvn¡ znak za p©¡kazem "COMMENT"
35dd  751e           jnz    35fd
35df  2e803e5c0b02   cmp    byte ptr cs:[0b5c],02; po‡et znak– za p©¡kazem "COMMENT"
35e5  750b           jnz    35f2
35e7  268a4401       mov    al,es:[si+01]
35eb  2e38065e0b     cmp    cs:[0b5e],al         ; druh˜ znak za p©¡kazem "COMMENT"
35f0  750b           jnz    35fd
35f2  e325           jcxz   3619
35f4  268a04         mov    al,es:[si]
35f7  46             inc    si
35f8  49             dec    cx
35f9  3c0a           cmp    al,0a
35fb  75f5           jnz    35f2
35fd  c3           * ret
                                                 ; test, zda je znak oddˆlova‡ konce p©¡kazu
35fe  3c2f         * cmp    al,2f                ; je oddˆlova‡ parametr– "/" ?
3600  74c0           jz     35c2                 ; je oddˆlova‡ "/" - n vrat
3602  3c00           cmp    al,00                ; je konec © dku 00h ?
3604  74bc           jz     35c2                 ; je konec © dku 00h - n vrat
3606  3c20           cmp    al,20                ; je oddˆlovac¡ mezera ?
3608  74b8           jz     35c2                 ; je mezera - n vrat
360a  3c09           cmp    al,09                ; je oddˆlovac¡ tabel tor ?
360c  74b4           jz     35c2                 ; je tabel tor - n vrat
360e  3c3d           cmp    al,3d                ; je oddˆlova‡ "=" ?
3610  74b0           jz     35c2                 ; je znak "=" - n vrat
3612  3c2c           cmp    al,2c                ; je znak "," ?
3614  74ac           jz     35c2                 ; je znak "," - n vrat
3616  3c3b           cmp    al,3b                ; je znak ";" ?
3618  c3             ret

3619  59           * pop    cx
361a  2e893e610b     mov    cs:[0b61],di         ; velikost souboru CONFIG.SYS
361f  2e893e630b     mov    cs:[0b63],di
3624  33f6           xor    si,si
3626  2e8936650b     mov    cs:[0b65],si
362b  c3             ret


362c  e8dbf9         call   300a
362f  72fa           jb     362b
3631  3c0a           cmp    al,0a
3633  75f7           jnz    362c
3635  e8d2f9         call   300a
3638  c3             ret

                                                 ; p©evod p©¡kazov‚ho © dku na velk  p¡smena
                                                 ; VSTUP: ES:0=adresa p©¡kazov‚ho © dku
                                                 ;        CX=po‡et znak– p©¡kazov‚ho © dku
3639  51           * push   cx
363a  56             push   si
363b  1e             push   ds
363c  06             push   es
363d  1f             pop    ds
363e  33f6           xor    si,si                ; ukazatel na za‡ tek
3640  ac           * lodsb                       ; na‡ten¡ znaku
3641  3c61           cmp    al,61                ; je znak men¨¡ ne‘ "a" ?
3643  7209           jb     364e                 ; je znak men¨¡ ne‘ "a"
3645  3c7a           cmp    al,7a                ; je znak vˆt¨¡ ne‘ "z" ?
3647  7705           ja     364e                 ; je znak vˆt¨¡ ne‘ "z"
3649  2c20           sub    al,20                ; p©evod na velk‚ p¡smeno
364b  8844ff         mov    [si-01],al           ; ulo‘en¡ p©eveden‚ho znaku
364e  e2f0         * loop   3640                 ; dal¨¡ znak
3650  1f             pop    ds
3651  5e             pop    si
3652  59             pop    cx
3653  c3             ret




3654  f9             stc
3655  58             pop    ax
3656  c3             ret


3657  50             push   ax
3658  2ea1850b       mov    ax,cs:[0b85]
365c  2e803e401c00   cmp    byte ptr cs:[1c40],00
3662  750f           jnz    3673
3664  2e3b066f0b     cmp    ax,cs:[0b6f]         ; segment za‡ tku voln‚ pamˆti
3669  7508           jnz    3673
366b  2e833e830b00   cmp    word ptr cs:[0b83],+00
3671  74e1           jz     3654
3673  2ea36f0b       mov    cs:[0b6f],ax         ; segment za‡ tku voln‚ pamˆti
3677  2ea1830b       mov    ax,cs:[0b83]
367b  2ea36d0b       mov    cs:[0b6d],ax
367f  58             pop    ax
3680  2e800e431c01   or     byte ptr cs:[1c43],01
3686  50             push   ax
3687  2ea16d0b       mov    ax,cs:[0b6d]
368b  e805de         call   1493                 ; p©epo‡et offsetu na odstavce
368e  2e01066f0b     add    cs:[0b6f],ax         ; segment za‡ tku voln‚ pamˆti
3693  2ec7066d0b0000 mov    word ptr cs:[0b6d],0000
369a  2ea16f0b       mov    ax,cs:[0b6f]         ; segment za‡ tku voln‚ pamˆti
369e  2e3b063d08     cmp    ax,cs:[083d]
36a3  7323           jnb    36c8
36a5  2ef606431c02   test   byte ptr cs:[1c43],02
36ab  7418           jz     36c5
36ad  06             push   es
36ae  56             push   si
36af  2e8b36411c     mov    si,cs:[1c41]
36b4  8ec6           mov    es,si
36b6  2bc6           sub    ax,si
36b8  48             dec    ax
36b9  26a30300       mov    es:[0003],ax
36bd  2e8026431cfd   and    byte ptr cs:[1c43],fd
36c3  5e             pop    si
36c4  07             pop    es
36c5  58             pop    ax
36c6  f8             clc
36c7  c3             ret
36c8  ba093e         mov    dx,3e09              ; text "Configuration too..."
36cb  0e             push   cs
36cc  1f             pop    ds
36cd  e88502         call   3955                 ; zobrazen¡ textu na displej
36d0  e9ddd7         jmp    0eb0
36d3  2e8e1efb07     mov    ds,cs:[07fb]
36d8  2e031ef907     add    bx,cs:[07f9]
36dd  8b07           mov    ax,[bx]
36df  2eff36f907     push   cs:[07f9]
36e4  2ea3f907       mov    cs:[07f9],ax
36e8  bb750b         mov    bx,0b75
36eb  2eff1ef907     call   far cs:[07f9]
36f0  2e8f06f907     pop    cs:[07f9]
36f5  c3             ret
36f6  2ec606640800   mov    byte ptr cs:[0864],00
36fc  33c0           xor    ax,ax
36fe  5b             pop    bx
36ff  f9             stc
3700  c3             ret
3701  2c30           sub    al,30                         ;'0'
3703  7206           jb     370b
3705  3c09           cmp    al,09
3707  7702           ja     370b
3709  f8             clc
370a  c3             ret
370b  f9             stc
370c  c3             ret
370d  53             push   bx
370e  33db           xor    bx,bx
3710  e8eeff         call   3701
3713  72e1           jb     36f6
3715  93             xchg   ax,bx
3716  53             push   bx
3717  bb0a00         mov    bx,000a
371a  f7e3           mul    bx
371c  5b             pop    bx
371d  02c3           add    al,bl
371f  80d400         adc    ah,00
3722  72d2           jb     36f6
3724  93             xchg   ax,bx
3725  e8e2f8         call   300a
3728  722f           jb     3759
372a  3c20           cmp    al,20                         ;' '
372c  7421           jz     374f
372e  3c2c           cmp    al,2c                         ;','
3730  741d           jz     374f
3732  3c09           cmp    al,09
3734  7419           jz     374f
3736  2e3a066408     cmp    al,cs:[0864]
373b  7412           jz     374f
373d  3c2f           cmp    al,2f                         ;'/'
373f  90             nop
3740  90             nop
3741  740c           jz     374f
3743  3c0a           cmp    al,0a
3745  7408           jz     374f
3747  3c0d           cmp    al,0d
3749  7404           jz     374f
374b  0ac0           or     al,al
374d  75c1           jnz    3710
374f  2eff06610b     inc    word ptr cs:[0b61]   ; velikost souboru CONFIG.SYS
3754  2eff0e650b     dec    word ptr cs:[0b65]
3759  8bc3           mov    ax,bx
375b  0bc0           or     ax,ax
375d  5b             pop    bx
375e  c3             ret
375f  e8a8f8         call   300a
3762  7219           jb     377d
3764  3c2c           cmp    al,2c                         ;','
3766  7407           jz     376f
3768  e893fe         call   35fe                 ; test, zda je znak oddˆlova‡ konce p©¡kazu
376b  74f2           jz     375f
376d  eb0e           jmp    377d
376f  e898f8         call   300a
3772  7209           jb     377d
3774  3c2c           cmp    al,2c                         ;','
3776  7405           jz     377d
3778  e883fe         call   35fe                 ; test, zda je znak oddˆlova‡ konce p©¡kazu
377b  74f2           jz     376f
377d  c3             ret
377e  57             push   di
377f  50             push   ax
3780  52             push   dx
3781  33c9           xor    cx,cx
3783  33d2           xor    dx,dx
3785  b80002         mov    ax,0200
3788  e83101         call   38bc
378b  724c           jb     37d9
378d  06             push   es
378e  56             push   si
378f  0e             push   cs
3790  07             pop    es
3791  bf403a         mov    di,3a40
3794  b90800         mov    cx,0008
3797  f3             repz
3798  a6             cmpsb
3799  5e             pop    si
379a  07             pop    es
379b  753c           jnz    37d9
379d  83c612         add    si,+12
37a0  803c01         cmp    byte ptr [si],01
37a3  7534           jnz    37d9
37a5  46             inc    si
37a6  8b14           mov    dx,[si]
37a8  8b4c02         mov    cx,[si+02]
37ab  b80004         mov    ax,0400
37ae  e80b01         call   38bc
37b1  7226           jb     37d9
37b3  8b0c           mov    cx,[si]
37b5  83f948         cmp    cx,+48
37b8  771f           ja     37d9
37ba  46             inc    si
37bb  46             inc    si
37bc  5a             pop    dx
37bd  58             pop    ax
37be  5f             pop    di
37bf  3b4402         cmp    ax,[si+02]
37c2  750a           jnz    37ce
37c4  83fa00         cmp    dx,+00
37c7  7415           jz     37de
37c9  3b5404         cmp    dx,[si+04]
37cc  7413           jz     37e1
37ce  0334           add    si,[si]
37d0  46             inc    si
37d1  46             inc    si
37d2  e2eb           loop   37bf
37d4  b9ffff         mov    cx,ffff
37d7  f9             stc
37d8  c3             ret
37d9  5e             pop    si
37da  59             pop    cx
37db  5f             pop    di
37dc  ebf9           jmp    37d7
37de  8b5404         mov    dx,[si+04]
37e1  2e8916483a     mov    cs:[3a48],dx
37e6  8b540a         mov    dx,[si+0a]
37e9  8b4c0c         mov    cx,[si+0c]
37ec  b80002         mov    ax,0200
37ef  e8ca00         call   38bc
37f2  72e3           jb     37d7
37f4  8b0c           mov    cx,[si]
37f6  46             inc    si
37f7  46             inc    si
37f8  57             push   di
37f9  51             push   cx
37fa  56             push   si
37fb  8a4402         mov    al,[si+02]
37fe  e88d00         call   388e
3801  727a           jb     387d
3803  8b5404         mov    dx,[si+04]
3806  8b4c06         mov    cx,[si+06]
3809  b80042         mov    ax,4200
380c  f9             stc
380d  cd21           int    21
380f  72c8           jb     37d9
3811  ba0002         mov    dx,0200
3814  b91400         mov    cx,0014
3817  b43f           mov    ah,3f                         ;'?'
3819  f9             stc
381a  cd21           int    21
381c  72bb           jb     37d9
381e  3bc1           cmp    ax,cx
3820  75b7           jnz    37d9
3822  8b5404         mov    dx,[si+04]
3825  8b4c06         mov    cx,[si+06]
3828  b80042         mov    ax,4200
382b  f9             stc
382c  cd21           int    21
382e  72a9           jb     37d9
3830  56             push   si
3831  be0802         mov    si,0208
3834  8b0c           mov    cx,[si]
3836  5e             pop    si
3837  ba0002         mov    dx,0200
383a  83c10a         add    cx,+0a
383d  b43f           mov    ah,3f                         ;'?'
383f  f9             stc
3840  cd21           int    21
3842  7295           jb     37d9
3844  3bc1           cmp    ax,cx
3846  7591           jnz    37d9
3848  8a4402         mov    al,[si+02]
384b  be0802         mov    si,0208
384e  8b0c           mov    cx,[si]
3850  41             inc    cx
3851  41             inc    cx
3852  81f9f805       cmp    cx,05f8
3856  7781           ja     37d9
3858  3c01           cmp    al,01
385a  7512           jnz    386e
385c  26ff7518       push   es:[di+18]
3860  26ff751a       push   es:[di+1a]
3864  57             push   di
3865  50             push   ax
3866  2ea1483a       mov    ax,cs:[3a48]
386a  894404         mov    [si+04],ax
386d  58             pop    ax
386e  f3             repz
386f  a4             movsb
3870  3c01           cmp    al,01
3872  7509           jnz    387d
3874  5f             pop    di
3875  268f451a       pop    es:[di+1a]
3879  268f4518       pop    es:[di+18]
387d  5e             pop    si
387e  59             pop    cx
387f  5f             pop    di
3880  0334           add    si,[si]
3882  46             inc    si
3883  46             inc    si
3884  49             dec    cx
3885  83f900         cmp    cx,+00
3888  7403           jz     388d
388a  e96bff         jmp    37f8
388d  c3             ret
388e  51             push   cx
388f  83c74a         add    di,+4a
3892  268b0d         mov    cx,es:[di]
3895  47             inc    di
3896  47             inc    di
3897  263805         cmp    es:[di],al
389a  7413           jz     38af
389c  26803d01       cmp    byte ptr es:[di],01
38a0  7405           jz     38a7
38a2  83c705         add    di,+05
38a5  eb03           jmp    38aa
38a7  83c729         add    di,+29
38aa  e2eb           loop   3897
38ac  f9             stc
38ad  eb0b           jmp    38ba
38af  3c01           cmp    al,01
38b1  7503           jnz    38b6
38b3  47             inc    di
38b4  eb04           jmp    38ba
38b6  26c47d01       les    di,es:[di+01]
38ba  59             pop    cx
38bb  c3             ret
38bc  50             push   ax
38bd  b80042         mov    ax,4200
38c0  f9             stc
38c1  cd21           int    21
38c3  59             pop    cx
38c4  7209           jb     38cf
38c6  33d2           xor    dx,dx
38c8  33f6           xor    si,si
38ca  b43f           mov    ah,3f                         ;'?'
38cc  f9             stc
38cd  cd21           int    21
38cf  c3             ret
38d0  56             push   si
38d1  1e             push   ds
38d2  06             push   es
38d3  1f             pop    ds
38d4  07             pop    es
38d5  e83100         call   3909
38d8  7206           jb     38e0
38da  8a04           mov    al,[si]
38dc  46             inc    si
38dd  46             inc    si
38de  eb06           jmp    38e6
38e0  b419           mov    ah,19
38e2  cd21           int    21
38e4  0441           add    al,41                         ;'a'
38e6  2ea2fd39       mov    cs:[39fd],al
38ea  bf003a         mov    di,3a00
38ed  8a04           mov    al,[si]
38ef  3c5c           cmp    al,5c                         ;'\'
38f1  7409           jz     38fc
38f3  2e3a062f00     cmp    al,cs:[002f]
38f8  7402           jz     38fc
38fa  eb01           jmp    38fd
38fc  4f             dec    di
38fd  e81f00         call   391f
3900  bffd39         mov    di,39fd
3903  1e             push   ds
3904  06             push   es
3905  1f             pop    ds
3906  07             pop    es
3907  5e             pop    si
3908  c3             ret
3909  50             push   ax
390a  803c41         cmp    byte ptr [si],41              ;'a'
390d  720d           jb     391c
390f  803c5a         cmp    byte ptr [si],5a              ;'z'
3912  7708           ja     391c
3914  807c013a       cmp    byte ptr [si+01],3a           ;':'
3918  7502           jnz    391c
391a  eb01           jmp    391d
391c  f9             stc
391d  58             pop    ax
391e  c3             ret
391f  a4             movsb
3920  807cff00       cmp    byte ptr [si-01],00
3924  75f9           jnz    391f
3926  c3             ret

3927  0e             push   cs
3928  07             pop    es
3929  8bf2           mov    si,dx
392b  ba733d         mov    dx,3d73              ; text "Bad or missing "
392e  bb303d         mov    bx,3d30              ; text od© dkov n¡
3931  0e             push   cs
3932  1f             pop    ds
3933  e81f00         call   3955                 ; zobrazen¡ textu na displej
3936  268a14         mov    dl,es:[si]
3939  0ad2           or     dl,dl
393b  7407           jz     3944
393d  b402           mov    ah,02
393f  cd21           int    21
3941  46             inc    si
3942  ebf2           jmp    3936
3944  8bd3           mov    dx,bx                ; text od© dkov n¡
3946  e80c00         call   3955                 ; zobrazen¡ textu na displej
3949  2e803e600b01   cmp    byte ptr cs:[0b60],01
394f  7403           jz     3954
3951  e8dcf6         call   3030
3954  c3             ret

                                                 ; zobrazen¡ textu na displej
                                                 ; VSTUP: DS:DX=ukazatel textu
3955  b409           mov    ah,09                ; funkce tisku textu
3957  cd21           int    21                   ; zobrazen¡ textu na displej
3959  c3             ret


395a  e81c00         call   3979
395d  7307           jnb    3966
395f  bae139         mov    dx,39e1
3962  e81400         call   3979
3965  c3             ret
3966  8bd8           mov    bx,ax
3968  33c0           xor    ax,ax
396a  b444           mov    ah,44                         ;'d'
396c  cd21           int    21
396e  f6c280         test   dl,80
3971  75f2           jnz    3965
3973  b43e           mov    ah,3e                         ;'>'
3975  cd21           int    21
3977  ebe6           jmp    395f
3979  b43d           mov    ah,3d                         ;'='
397b  f9             stc
397c  cd21           int    21
397e  c3             ret

                                                 ; obsluha INT 24h (kritick‚ chyby)
397f  b003           mov    al,03
3981  cf             iret

3980  03 CF 4D 53 20 44 4F 53-20 56 65 72 73 69 6F 6E  .OMS DOS Version
3990  20 34 2E 30 30 20 28 43-29 43 6F 70 79 72 69 67   4.00 (C)Copyrig
39A0  68 74 20 31 39 38 38 20-4D 69 63 72 6F 73 6F 66  ht 1988 Microsof
39B0  74 20 43 6F 72 70 4C 69-63 65 6E 73 65 64 20 4D  t CorpLicensed M
39C0  61 74 65 72 69 61 6C 20-2D 20 50 72 6F 70 65 72  aterial - Proper
39D0  74 79 20 6F 66 20 4D 69-63 72 6F 73 6F 66 74 20  ty of Microsoft
39E0  20 4E 55 4C 00 43 4F 4E-00 41 55 58 00 50 52 4E   NUL.CON.AUX.PRN
39F0  00 5C 43 4F 4E 46 49 47-2E 53 59 53 00 41 3A 5C  .\CONFIG.SYS.A:\

39f1                 db     '\CONFIG.SYS',0


3A00  43 4F 55 4E 54 52 59 2E-53 59 53 00 00 00 00 00  COUNTRY.SYS.....
3A10  00 00 00 00 00 00 00 00-00 00 00 00 00 00 00 00  ................
3A20  00 00 00 00 00 00 00 00-00 00 00 00 00 00 00 00  ................
3A30  00 00 00 00 00 00 00 00-00 00 00 00 00 00 00 00  ................
3A40  FF 43 4F 55 4E 54 52 59-00 00 5C 43 4F 4D 4D 41  .COUNTRY..\COMMA
3A50  4E 44 2E 43 4F 4D 00 00-00 00 00 00 00 00 00 00  ND.COM..........
3A60  00 00 00 00 00 00 00 00-00 00 00 00 00 00 00 00  ................
3A70  00 00 00 00 00 00 00 00-00 00 00 00 00 00 00 00  ................
3A80  00 00 00 00 00 00 00 00-00 00 00 00 00 00 00 00  ................
3A90  00 00 00 00 00 00 00 00-00 00 00 00 00 00 00 00  ................
3AA0  00 00 00 00 00 00 00 00-00 00 00 00 00 00 00 00  ................
3AB0  00 00 00 00 00 00 00 00-00 00 00 00 00 00 00 00  ................
3AC0  00 00 00 00 00 00 00 00-00 00 53 48 41 52 45 2E  ..........SHARE.

                                                 ; tabulka p©¡kaz– CONFIG.SYS
3aca                 db     'SHARE.EXE',0
3ad4                 db     '/NC',13,10

                                                 ; tabulka p©¡kaz– CONFIG.SYS
3ad9                 db     'BUFFERS',42h
3ae1                 db     5,'BREAK',43h
3ae9                 db     6,'DEVICE',44h
3af1                 db     5,'FILES',46h
3af8                 db     4,'FCBS',58h
3afe                 db     9,'LASTDRIVE',4ch
3b09                 db     10,'MULTITRACK',4dh
3b15                 db     8,'DRIVPARM',50h
3b1f                 db     6,'STACKS',4bh
3b27                 db     7,'COUNTRY',51h
3b30                 db     5,'SHELL',53h
3b37                 db     7,'INSTALL',49h
3b40                 db     3,'IFS',4ah
3b45                 db     4,'CPSW',57h
3b4b                 db     7,'COMMENT',59h
3b54                 db     3,'REM',30h
3b59                 db     8,'SWITCHES',31h
3b63                 db     0


3B60  45 53 31 00 00 02 00 00-50 00 00 00 00 00 00 00  ES1.....P.......
3B70  00 00 00 00 00 00 00 00-00 00 00 00 00 00 00 00  ................
3B80  00 00 00 00 00 00 00 00-00 00 00 00 00 00 00 00  ................
3B90  00 00 00 00 00 00 00 00-00 00 00 00 00 00 00 00  ................
3BA0  00 00 00 00 00 00 00 00-00 00 00 00 00 00 00 00  ................
3BB0  00 00 00 00 00 00 00 00-00 00 00 00 00 00 00 00  ................
3BC0  00 00 00 00 00 00 00 00-00 00 00 00 00 00 00 00  ................
3BD0  00 00 00 00 00 00 00 00-00 00 00 00 00 00 00 00  ................
3BE0  00 00 00 00 00 00 00 00-00 00 00 00 00 00 00 00  ................
3BF0  00 00 00 00 00 00 00 00-00 00 00 00 00 00 00 00  ................
3C00  00 00 00 00 00 00 00 00-00 00 00 00 00 00 00 00  ................
3C10  00 00 00 00 00 00 00 00-00 00 00 00 00 00 00 00  ................
3C20  00 00 00 00 00 00 00 00-00 00 00 00 00 00 00 00  ................
3C30  00 00 00 00 00 00 00 00-00 00 00 00 00 00 00 00  ................
3C40  00 00 00 00 00 00 00 00-00 00 00 00 00 00 00 00  ................
3C50  00 00 00 00 00 00 00 00-00 00 00 00 00 00 00 00  ................
3C60  00 00 00 00 00 00 00 00-00 00 00 00 00 00 00 00  ................
3C70  00 00 00 00 00 00 00 00-00 00 00 00 00 00 00 00  ................
3C80  00 00 00 00 00 00 00 00-02 00 09 00 00 00 00 00  ................
3C90  02 02 01 00 02 70 00 D0-02 FD 02 00 09 00 02 00  .....p.P.}......
3CA0  00 00 00 00 00 00 00 00-00 02 01 01 00 02 E0 00  ..............`.
3CB0  60 09 F9 07 00 0F 00 02-00 00 00 00 00 00 00 00  `.y.............
3CC0  00 00 02 02 01 00 02 70-00 A0 05 F9 03 00 09 00  .......p. .y....
3CD0  02 00 00 00 00 00 00 00-00 00 00 02 01 01 00 02  ................
3CE0  E0 00 40 0B F0 09 00 12-00 02 00 00 00 00 00 00  `.@.p...........
3CF0  00 00 00 8F 3C A8 3C C1-3C C1 3C C1 3C C1 3C C1  ....<(<A<A<A<A<A
3D00  3C DA 3C 08 46 48 53 54-44 49 43 4E 0D 0A 55 6E  <Z<.FHSTDICN..Un

3d0c                 db     13,10,'Unrecognized command in CONFIG.SYS',13,10,'$'

3d30                 db     13,10,'$'

3d33                 db     13,10,'Bad command or parameters - $'

3d52                 db     13,10,'Sector size too large in file $'

3d73                 db     13,10,'Bad or missing $'

3d85                 db     'Command Interpreter',0

3d99                 db     13,10,'Invalid country code or code page',13,10,'$'

3dbf                 db     13,10,'Error in COUNTRY command',13,10,'$'

3ddc                 db     13,10,'Insufficient memory for '
                     db     'COUNTRY.SYS file',13,10,'$'

3e09                 db     13,10,'Configuration too large '
                     db     'for memory',13,10,'$'

3e30                 db     13,10,'Too many block devices',13,10,'$'

3e4b                 db     13,10,'Invalid STACK parameters',13,10,'$'

3e68                 db     13,10,'Incorrect order in CONFIG.SYS line $'

3e8e                 db     'Error in CONFIG.SYS line $'

3ea8                 db     'WARNING! SHARE should be '
                     db     'loaded for large media',13,10,'$'

3eda                                             ; konec 2. ‡ sti IO.SYS
