CONTEXT   0 241   0   3  72




0100:                          db      0,0,0,0,0,0,0,0,0,0,0,0,0,0,0,0,0
0111:                          db      0,0,0,0,0,0,0,0,0,0,0,0,0,0,0,0,0
0122:                          db      0,0,0,0,0,0,0,0,0,0,0,0,0,0,0,0,0
0133:                          db      0,0,0,0,0,0,0,0,0,0,0,0,0,0,0,0,0
0144:                          db      0,0,0,0,0,0,0,0,0,0,0,0,0,0,0,0,0
0155:                          db      0,0,0,0,0,0,0,0,0,0,0,0,0,0,0,0,0
0166:                          db      0,0,0,0,0,0,0,0,0,0,0,0,0,0,0,0,0
0177:                          db      0,0,0,0,0,0,0,0,0,0,0,0,0,0,0,0,0
0188:                          db      0,0,0,0,0,0,0,0,0,0,0,0,0,0,0,0,0
0199:                          db      0,0,0,0,0,0,0,0,0,0,0,0,0,0,0,0,0
01aa:                          db      0,0,0,0,0,0,0,0,0,0,0,0,0,0,0,0,0
01bb:                          db      0,0,0,0,0,0,0,0,0,0,0,0,0,0,0,0,0
01cc:                          db      0,0,0,0,0,0,0,0,0,0,0,0,0,0,0,0,0
01dd:                          db      0,0,0,0,0,0,0,0,0,0,0,0,0,0,0,0,0
01ee:                          db      0,0,0,0,0,0,0,0,0,0,0,0,0,0,0,0,0
01ff:                          db      0,0,0,0,0,0,0,0,0,0,0,0,0,0,0,0,0
0210:                          db      0,0,0,0,0,0,0,0,0,0,0,0,0,0,0,0,0
0221:                          db      0,0,0,0,0,0,0,0,0,0,0,0,0,0,0,0,0
0232:                          db      0,0,0,0,0,0,0,0,0,0,0,0,0,0,0,0,0
0243:                          db      0,0,0,0,0,0,0,0,0,0,0,0,0,0,0,0,0
0254:                          db      0,0,0,0,0,0,0,0,0,0,0,0,0,0,0,0,0
0265:                          db      0,0,0,0,0,0,0,0,0,0,0,0
0271:                  wrd2:   db      0,0,0,0,0,0,0,0,0,0,0,0,0,0,0,0,0
0282:                          db      0,0,0,0,0,0,0,0,0,0,0,0,0,0,0,0,0
0293:                          db      0,0,0,0,0,0,0,0,0,0,0,0,0,0,0,0,0
02a4:                          db      0,0,0,0,0,0,0,0,0,0,0,0,0,0,0,0,0
02b5:                          db      0,0,0,0,0,0,0,0,0,0,0,0,0,0,0,0,0
02c6:                          db      0,0,0,0,0,0,0,0,0,0,0,0,0,0,0,0,0
02d7:                          db      0,0,0,0,0,0,0,0,0,0,0,0,0,0,0,0,0
02e8:                          db      0,0,0,0,0,0,0,0,0,0,0,0,0,0,0,0,0
02f9:                          db      0,0,0,0,0,0,0,0,0,0,0,0,0,0,0,0,0
030a:                          db      0,0,0,0,0,0,0,0,0,0,0,0,0,0,0,0,0
031b:                          db      0,0,0,0,0,0,0,0,0,0,0,0,0,0,0,0,0
032c:                          db      0,0,0,0,0,0,0,0,0,0,0,0,0,0,0,0,0
033d:                          db      0,0,0,0,0,0,0,0,0,0,0,0,0,0,0,0,0
034e:                          db      0,0,0,0,0,0,0,0,0,0,0,0,0,0,0,0,0
035f:                          db      0,0,0,0,0,0,0,0,0,0,0,0,0,0,0,0,0
0370:                          db      0,0,0,0,0,0,0,0,0,0,0,0,0,0,0,0,0
0381:                          db      0,0,0,0,0,0,0,0,0,0,0,0,0,0,0,0,0
0392:                          db      0,0,0,0,0,0,0,0,0,0,0,0,0,0,0,0,0
03a3:                          db      0,0,0,0,0,0,0,0,0,0,0,0,0,0,0,0,0
03b4:                          db      0,0,0,0,0,0,0,0,0,0,0,0,0,0,0,0,0
03c5:                          db      0,0,0,0,0,0,0,0,0,0,0,0,0,0,0,0,0
03d6:                          db      0,0,0,0,0,0,0,0,0,0,0,0,0,0,0,0,0
03e7:                          db      0
03e8:                  tbl62:  db      0,0,0,0,0,0,0,0,0,0,0,0,0,0,0,0,0
03f9:                          db      0,0,0,0,0,0,0
0400:  ed 73 b6 15             ld      (tbl1),sp
0404:  31 b6 15                ld      sp,tbl1
0407:  3a 5d 00                ld      a,(5dh)
040a:  fe 20                   cp      " "
040c:  28 13                   jr      z,lab1
040e:  32 20 04                ld      (byt6),a
0411:  32 62 04                ld      (byt21),a
0414:  3a 5e 00                ld      a,(5eh)
0417:  32 1f 04                ld      (byt5),a
041a:  32 64 04                ld      (byt22),a
041d:  18 02                   jr      lab1
 ......................................................
041f:                  byt5:   db      "2"
0420:                  byt6:   db      "1"
0421:  21 9c 1a        lab1:   ld      hl,tbl2
0424:  22 ba 15                ld      (wrd1),hl
0427:  11 31 04                ld      de,tbl3
042a:  0e 09                   ld      c,9
042c:  cd 05 00                call    5
042f:  18 40                   jr      lab2
 ......................................................
0431:                  tbl3:   db      0ch,0ah
0433:                          db      "    GENERATOR SYSTEMOVE DISKETY"
0452:                          db      "  V 1.1 (BIOS V "
0462:                  byt21:  db      "1."
0464:                  byt22:  db      "2) 2.03.88"
046e:                          db      0dh,0ah
0470:                          db      "$"
0471:  db 0a           lab2:   in      a,(0ah)
0473:  f6 01                   or      1
0475:  d3 0a                   out     (0ah),a
0477:  2a 71 02                ld      hl,(wrd2)
047a:  db 0a                   in      a,(0ah)
047c:  e6 f6                   and     0f6h
047e:  d3 0a                   out     (0ah),a
0480:  22 b8 15                ld      (wrd3),hl
0483:  11 c6 15                ld      de,tbl4
0486:  21 e6 15                ld      hl,tbl5
0489:  01 0b 00                ld      bc,0bh
048c:  ed b0                   ldir
048e:  11 c5 15                ld      de,tbl6
0491:  0e 0f                   ld      c,0fh
0493:  cd 05 00                call    5
0496:  3c                      inc     a
0497:  ca b2 14                jp      z,lab3
049a:  06 04                   ld      b,4
049c:  c5                      push    bc
049d:  ed 5b ba 15     lab105: ld      de,(wrd1)
04a1:  0e 1a                   ld      c,1ah
04a3:  cd 05 00                call    5
04a6:  c1                      pop     bc
04a7:  05                      dec     b
04a8:  28 19                   jr      z,lab5
04aa:  c5                      push    bc
04ab:  11 c5 15                ld      de,tbl6
04ae:  0e 14                   ld      c,14h
04b0:  cd 05 00                call    5
04b3:  b7                      or      a
04b4:  c2 e1 14                jp      nz,lab104
04b7:  01 80 00                ld      bc,80h
04ba:  2a ba 15                ld      hl,(wrd1)
04bd:  09                      add     hl,bc
04be:  22 ba 15                ld      (wrd1),hl
04c1:  18 da                   jr      lab105
 ......................................................
04c3:  11 c5 15        lab5:   ld      de,tbl6
04c6:  0e 14                   ld      c,14h
04c8:  cd 05 00                call    5
04cb:  01 80 00                ld      bc,80h
04ce:  2a ba 15                ld      hl,(wrd1)
04d1:  09                      add     hl,bc
04d2:  22 ba 15                ld      (wrd1),hl
04d5:  3e 01                   ld      a,1
04d7:  32 14 16                ld      (byt1),a
04da:  c3 b6 06                jp      lab6
 ......................................................
04dd:  11 e7 04        lab108: ld      de,tbl56
04e0:  0e 09                   ld      c,9
04e2:  cd 05 00                call    5
04e5:  18 67                   jr      lab106
 ......................................................
04e7:                  tbl56:  db      0dh
04e8:                          db      "  Cislo systemu bude za"
04ff:                  tbl54:  db      "dano, pokud nebude pouzita"
0519:                          db      " tato verze systemu"
052c:                          db      0ah,0dh
052e:                          db      "            (jinak  <ET1>"
0547:                          db      " )  : $"
054e:  11 07 16        lab106: ld      de,tbl57
0551:  0e 0a                   ld      c,0ah
0553:  cd 05 00                call    5
0556:  1e 0a                   ld      e,0ah
0558:  0e 02                   ld      c,2
055a:  cd 05 00                call    5
055d:  3a 08 16                ld      a,(byt23)
0560:  fe 06                   cp      6
0562:  ca 31 06                jp      z,lab107
0565:  b7                      or      a
0566:  32 14 16                ld      (byt1),a
0569:  ca 6c 06                jp      z,lab109
056c:  18 2c                   jr      lab111
 ......................................................
056e:                  tbl59:  db      0ah,0dh
0570:                          db      "  Cislo systemu spravne zadano"
058e:                          db      "   (A/N)  ?$"
059a:  11 6e 05        lab111: ld      de,tbl59
059d:  0e 09                   ld      c,9
059f:  cd 05 00                call    5
05a2:  11 c0 15                ld      de,tbl29
05a5:  0e 0a                   ld      c,0ah
05a7:  cd 05 00                call    5
05aa:  3a c2 15                ld      a,(byt10)
05ad:  cb af                   res     5,a
05af:  fe 41                   cp      "A"
05b1:  28 1c                   jr      z,lab112
05b3:  fe 61                   cp      "a"
05b5:  28 18                   jr      z,lab112
05b7:  1e 0a                   ld      e,0ah
05b9:  0e 02                   ld      c,2
05bb:  cd 05 00                call    5
05be:  1e 0a                   ld      e,0ah
05c0:  0e 02                   ld      c,2
05c2:  cd 05 00                call    5
05c5:  1e 0e                   ld      e,0eh
05c7:  0e 02                   ld      c,2
05c9:  cd 05 00                call    5
05cc:  c3 dd 04                jp      lab108
 ......................................................
05cf:  3a 14 16        lab112: ld      a,(byt1)
05d2:  4f                      ld      c,a
05d3:  21 08 16                ld      hl,byt23
05d6:  06 00                   ld      b,0
05d8:  09                      add     hl,bc
05d9:  11 13 16                ld      de,tbl60
05dc:  ed b8                   lddr
05de:  eb                      ex      de,hl
05df:  fe 05           lab121: cp      5
05e1:  28 06                   jr      z,lab113
05e3:  36 00                   ld      (hl),0
05e5:  2b                      dec     hl
05e6:  3c                      inc     a
05e7:  18 f6                   jr      lab121
 ......................................................
05e9:  dd 21 13 16     lab113: ld      ix,tbl60
05ed:  0e 05                   ld      c,5
05ef:  21 00 00                ld      hl,0
05f2:  dd 7e 00                ld      a,(ix+0)
05f5:  e6 0f                   and     0fh
05f7:  6f                      ld      l,a
05f8:  11 0a 00                ld      de,0ah
05fb:  0d                      dec     c
05fc:  28 2d                   jr      z,lab114
05fe:  18 0d                   jr      lab115
 ......................................................
0600:  11 64 00        lab117: ld      de,64h
0603:  18 08                   jr      lab115
 ......................................................
0605:  11 e8 03        lab118: ld      de,tbl62
0608:  18 03                   jr      lab115
 ......................................................
060a:  11 10 27        lab119: ld      de,2710h
060d:  dd 2b           lab115: dec     ix
060f:  dd 7e 00                ld      a,(ix+0)
0612:  e6 0f                   and     0fh
0614:  28 06                   jr      z,lab116
0616:  19              lab120: add     hl,de
0617:  38 18                   jr      c,lab107
0619:  3d                      dec     a
061a:  20 fa                   jr      nz,lab120
061c:  0d              lab116: dec     c
061d:  28 0c                   jr      z,lab114
061f:  cb 4b                   bit     1,e
0621:  20 dd                   jr      nz,lab117
0623:  cb 53                   bit     2,e
0625:  20 de                   jr      nz,lab118
0627:  cb 7b                   bit     7,e
0629:  20 df                   jr      nz,lab119
062b:  22 b8 15        lab114: ld      (wrd3),hl
062e:  c3 6c 06                jp      lab109
 ......................................................
0631:  11 3c 06        lab107: ld      de,tbl58
0634:  0e 09                   ld      c,9
0636:  cd 05 00                call    5
0639:  c3 dd 04                jp      lab108
 ......................................................
063c:                  tbl58:  db      0ah,0ah,0dh
063f:                          db      "    NEPRIPUSTNE CISLO SYSTEMU"
065c:                          db      "  (>65535)!! "
0669:                          db      0ah,0ah
066b:                          db      "$"
066c:  2a b8 15        lab109: ld      hl,(wrd3)
066f:  22 3e 1c                ld      (1c3eh),hl
0672:  01 ff ff                ld      bc,0ffffh
0675:  fd 21 ac 1a             ld      iy,1aach
0679:  1e ed                   ld      e,0edh
067b:  cd 8f 06                call    lab110
067e:  cd 8f 06                call    lab110
0681:  79                      ld      a,c
0682:  32 9a 1c                ld      (1c9ah),a
0685:  78                      ld      a,b
0686:  32 9b 1c                ld      (1c9bh),a
0689:  ed 43 15 16             ld      (1615h),bc
068d:  18 27                   jr      lab6
 ......................................................
068f:  fd 7e 00        lab110: ld      a,(iy+0)
0692:  a8                      xor     b
0693:  47                      ld      b,a
0694:  0f                      rrca
0695:  0f                      rrca
0696:  0f                      rrca
0697:  0f                      rrca
0698:  e6 0f                   and     0fh
069a:  a8                      xor     b
069b:  47                      ld      b,a
069c:  0f                      rrca
069d:  0f                      rrca
069e:  0f                      rrca
069f:  57                      ld      d,a
06a0:  e6 1f                   and     1fh
06a2:  a9                      xor     c
06a3:  4f                      ld      c,a
06a4:  7a                      ld      a,d
06a5:  0f                      rrca
06a6:  e6 f0                   and     0f0h
06a8:  a9                      xor     c
06a9:  4f                      ld      c,a
06aa:  7a                      ld      a,d
06ab:  e6 e0                   and     0e0h
06ad:  a8                      xor     b
06ae:  41                      ld      b,c
06af:  4f                      ld      c,a
06b0:  fd 23                   inc     iy
06b2:  1d                      dec     e
06b3:  20 da                   jr      nz,lab110
06b5:  c9                      ret
 ......................................................
06b6:  11 c6 15        lab6:   ld      de,tbl4
06b9:  21 f1 15                ld      hl,tbl8
06bc:  01 0b 00                ld      bc,0bh
06bf:  ed b0                   ldir
06c1:  cd 6b 15                call    lab7
06c4:  11 c5 15                ld      de,tbl6
06c7:  0e 0f                   ld      c,0fh
06c9:  cd 05 00                call    5
06cc:  3c                      inc     a
06cd:  ca 0b 15                jp      z,lab9
06d0:  ed 5b ba 15     lab11:  ld      de,(wrd1)
06d4:  0e 1a                   ld      c,1ah
06d6:  cd 05 00                call    5
06d9:  11 c5 15                ld      de,tbl6
06dc:  0e 14                   ld      c,14h
06de:  cd 05 00                call    5
06e1:  01 80 00                ld      bc,80h
06e4:  2a ba 15                ld      hl,(wrd1)
06e7:  09                      add     hl,bc
06e8:  22 ba 15                ld      (wrd1),hl
06eb:  b7                      or      a
06ec:  28 e2                   jr      z,lab11
06ee:  21 9c 32                ld      hl,329ch
06f1:  22 ba 15                ld      (wrd1),hl
06f4:  c3 75 07                jp      lab12
 ......................................................
06f7:                  tbl11:  db      0ah,0ah,0dh
06fa:                          db      "  Zadejte typ klavesnice(1..3)"
0718:                          db      0ah,0ah,0dh
071b:                          db      "    1 = K 7606 / K 7636"
0732:                          db      0ah,0dh
0734:                          db      "    2 = K 7637  "
0744:                          db      0ah,0dh
0746:                          db      "    3 = BC 25          "
075d:                          db      0ah,0dh
075f:                          db      "$"
0760:                  tbl12:  db      0ah,0dh
0762:                          db      "  Typ klavesnice: $"
0775:  11 f7 06        lab12:  ld      de,tbl11
0778:  0e 09                   ld      c,9
077a:  cd 05 00                call    5
077d:  11 60 07        lab16:  ld      de,tbl12
0780:  0e 09                   ld      c,9
0782:  cd 05 00                call    5
0785:  3e 33                   ld      a,"3"
0787:  32 c4 15                ld      (byt2),a
078a:  cd f5 08                call    lab13
078d:  28 ee                   jr      z,lab16
078f:  01 36 30                ld      bc,3036h
0792:  3d                      dec     a
0793:  28 09                   jr      z,lab17
0795:  01 37 33                ld      bc,3337h
0798:  3d                      dec     a
0799:  28 03                   jr      z,lab17
079b:  01 43 42                ld      bc,4243h
079e:  dd 21 fc 15     lab17:  ld      ix,tbl17
07a2:  dd 70 04                ld      (ix+4),b
07a5:  dd 71 05                ld      (ix+5),c
07a8:  dd 21 41 15             ld      ix,tbl18
07ac:  dd 70 21                ld      (ix+21h),b
07af:  dd 71 22                ld      (ix+22h),c
07b2:  c3 21 08                jp      lab18
 ......................................................
07b5:                  tbl14:  db      0ah,0ah,0dh
07b8:                          db      "  Zadejte format obrazovky"
07d2:                          db      " (1..2)  "
07db:                          db      0ah,0ah,0dh
07de:                          db      "    1 = 64 x 16 - znaku "
07f6:                          db      0ah,0dh
07f8:                          db      "    2 = 80 x 24 - znaku "
0810:                          db      0ah
0811:                          db      "$"
0812:                  tbl15:  db      0ah,0dh
0814:                          db      "  Format :  $"
0821:  11 b5 07        lab18:  ld      de,tbl14
0824:  0e 09                   ld      c,9
0826:  cd 05 00                call    5
0829:  11 12 08        lab19:  ld      de,tbl15
082c:  0e 09                   ld      c,9
082e:  cd 05 00                call    5
0831:  3e 32                   ld      a,"2"
0833:  32 c4 15                ld      (byt2),a
0836:  cd f5 08                call    lab13
0839:  28 ee                   jr      z,lab19
083b:  06 47                   ld      b,"G"
083d:  3d                      dec     a
083e:  20 14                   jr      nz,lab20
0840:  06 4b                   ld      b,"K"
0842:  21 ff 04                ld      hl,tbl54
0845:  22 e0 1a                ld      (wrd11),hl
0848:  21 40 fc                ld      hl,0fc40h
084b:  22 13 1b                ld      (1b13h),hl
084e:  21 3f dd                ld      hl,0dd3fh
0851:  22 9a 1c                ld      (1c9ah),hl
0854:  dd 21 fc 15     lab20:  ld      ix,tbl17
0858:  dd 70 04                ld      (ix+4),b
085b:  dd 21 41 15             ld      ix,tbl18
085f:  dd 70 21                ld      (ix+21h),b
0862:  21 03 16                ld      hl,tbl16
0865:  3a 1f 04                ld      a,(byt5)
0868:  77                      ld      (hl),a
0869:  dd 21 41 15             ld      ix,tbl18
086d:  dd 77 24                ld      (ix+24h),a
0870:  2b                      dec     hl
0871:  3a 20 04                ld      a,(byt6)
0874:  77                      ld      (hl),a
0875:  dd 77 23                ld      (ix+23h),a
0878:  11 c6 15                ld      de,tbl4
087b:  21 fc 15                ld      hl,tbl17
087e:  01 0b 00                ld      bc,0bh
0881:  ed b0                   ldir
0883:  cd 6b 15                call    lab7
0886:  11 c5 15                ld      de,tbl6
0889:  0e 0f                   ld      c,0fh
088b:  cd 05 00                call    5
088e:  3c                      inc     a
088f:  ca 3b 15                jp      z,lab21
0892:  ed 5b ba 15     lab22:  ld      de,(wrd1)
0896:  0e 1a                   ld      c,1ah
0898:  cd 05 00                call    5
089b:  11 c5 15                ld      de,tbl6
089e:  0e 14                   ld      c,14h
08a0:  cd 05 00                call    5
08a3:  01 80 00                ld      bc,80h
08a6:  2a ba 15                ld      hl,(wrd1)
08a9:  09                      add     hl,bc
08aa:  22 ba 15                ld      (wrd1),hl
08ad:  b7                      or      a
08ae:  28 e2                   jr      z,lab22
08b0:  11 ba 08                ld      de,tbl19
08b3:  0e 09                   ld      c,9
08b5:  cd 05 00                call    5
08b8:  18 03                   jr      lab23
 ......................................................
08ba:                  tbl19:  db      0dh,0ah
08bc:                          db      "$"
08bd:  11 c7 08        lab23:  ld      de,tbl20
08c0:  0e 09                   ld      c,9
08c2:  cd 05 00                call    5
08c5:  18 22                   jr      lab24
 ......................................................
08c7:                  tbl20:  db      0ah,0dh
08c9:                          db      "  Pocet disk.mechanik (1..4)"
08e5:                          db      " : $"
08e9:  3e 34           lab24:  ld      a,"4"
08eb:  32 c4 15                ld      (byt2),a
08ee:  cd f5 08                call    lab13
08f1:  28 ca                   jr      z,lab23
08f3:  18 22                   jr      lab25
 ......................................................
08f5:  11 bc 15        lab13:  ld      de,tbl13
08f8:  0e 0a                   ld      c,0ah
08fa:  cd 05 00                call    5
08fd:  3a bd 15                ld      a,(byt3)
0900:  3d                      dec     a
0901:  20 0b                   jr      nz,lab14
0903:  3a c4 15                ld      a,(byt2)
0906:  47                      ld      b,a
0907:  3a be 15                ld      a,(byt4)
090a:  fe 31                   cp      "1"
090c:  30 02                   jr      nc,lab15
090e:  af              lab14:  xor     a
090f:  c9                      ret
 ......................................................
0910:  04              lab15:  inc     b
0911:  b8                      cp      b
0912:  30 fa                   jr      nc,lab14
0914:  e6 0f                   and     0fh
0916:  c9                      ret
 ......................................................
0917:  21 01 33        lab25:  ld      hl,3301h
091a:  3c                      inc     a
091b:  77                      ld      (hl),a
091c:  32 17 16                ld      (byt7),a
091f:  21 e0 32                ld      hl,32e0h
0922:  46                      ld      b,(hl)
0923:  23                      inc     hl
0924:  66                      ld      h,(hl)
0925:  68                      ld      l,b
0926:  01 9c 54                ld      bc,549ch
0929:  09                      add     hl,bc
092a:  3d                      dec     a
092b:  01 10 00                ld      bc,10h
092e:  09              lab26:  add     hl,bc
092f:  3d                      dec     a
0930:  20 fc                   jr      nz,lab26
0932:  e5                      push    hl
0933:  21 ec 32                ld      hl,32ech
0936:  7e                      ld      a,(hl)
0937:  23                      inc     hl
0938:  66                      ld      h,(hl)
0939:  6f                      ld      l,a
093a:  23                      inc     hl
093b:  23                      inc     hl
093c:  eb                      ex      de,hl
093d:  e1                      pop     hl
093e:  73                      ld      (hl),e
093f:  23                      inc     hl
0940:  72                      ld      (hl),d
0941:  c3 20 0a                jp      lab27
 ......................................................
0944:                  tbl21:  db      0ah,0ah,0dh
0947:                          db      "  Zadejte typ mechaniky (1..4)"
0965:                          db      "  "
0967:                          db      0ah,0ah,0dh
096a:                          db      "    1 = MF 3200 (FM)"
097e:                          db      0ah,0dh
0980:                          db      "    2 = MF 6400 / K 5602"
0998:                          db      "  (MFM!)"
09a0:                          db      0ah,0dh
09a2:                          db      "    3 = K 5600.10 (MFS 1.2"
09bc:                          db      " )"
09be:                          db      0ah,0dh
09c0:                          db      "    4 = K 5600.20 (MFS 1.4"
09da:                          db      " )"
09dc:                          db      0ah
09dd:                          db      "$"
09de:                          db      0ah,0dh
09e0:                          db      "    5 = 8"
09e9:                          db      22h
09ea:                          db      " oboustran.,MFM"
09f9:                          db      0ah,0dh
09fb:                          db      "    6 = 5,25"
0a07:                          db      22h
0a08:                          db      " oboustran.,80 stop   "
0a1e:                          db      0ah
0a1f:                          db      "$"
0a20:  11 44 09        lab27:  ld      de,tbl21
0a23:  0e 09                   ld      c,9
0a25:  cd 05 00                call    5
0a28:  11 32 0a        lab102: ld      de,tbl22
0a2b:  0e 09                   ld      c,9
0a2d:  cd 05 00                call    5
0a30:  18 10                   jr      lab28
 ......................................................
0a32:                  tbl22:  db      0ah,0dh
0a34:                          db      "  Typ FD A : $"
0a42:  3a 14 16        lab28:  ld      a,(byt1)
0a45:  b7                      or      a
0a46:  28 0f                   jr      z,lab29
0a48:  3e 34                   ld      a,"4"
0a4a:  32 c4 15                ld      (byt2),a
0a4d:  cd f5 08                call    lab13
0a50:  28 d6                   jr      z,lab102
0a52:  32 18 16                ld      (byt8),a
0a55:  18 5d                   jr      lab34
 ......................................................
0a57:  21 44 de        lab29:  ld      hl,0de44h
0a5a:  7e                      ld      a,(hl)
0a5b:  23                      inc     hl
0a5c:  66                      ld      h,(hl)
0a5d:  6f                      ld      l,a
0a5e:  01 0a 00                ld      bc,0ah
0a61:  09                      add     hl,bc
0a62:  7e                      ld      a,(hl)
0a63:  23                      inc     hl
0a64:  66                      ld      h,(hl)
0a65:  6f                      ld      l,a
0a66:  cd 6b 0a                call    lab30
0a69:  18 2c                   jr      lab33
 ......................................................
0a6b:  01 15 00        lab30:  ld      bc,15h
0a6e:  09                      add     hl,bc
0a6f:  7e                      ld      a,(hl)
0a70:  01 0b 00                ld      bc,0bh
0a73:  09                      add     hl,bc
0a74:  46                      ld      b,(hl)
0a75:  cb 7f                   bit     7,a
0a77:  20 10                   jr      nz,lab31
0a79:  e6 03                   and     3
0a7b:  06 01                   ld      b,1
0a7d:  28 08                   jr      z,lab32
0a7f:  06 02                   ld      b,2
0a81:  cb 47                   bit     0,a
0a83:  28 02                   jr      z,lab32
0a85:  06 05                   ld      b,5
0a87:  78              lab32:  ld      a,b
0a88:  c9                      ret
 ......................................................
0a89:  cb 47           lab31:  bit     0,a
0a8b:  3e 06                   ld      a,6
0a8d:  c0                      ret     nz
0a8e:  78                      ld      a,b
0a8f:  fe 27                   cp      "'"
0a91:  3e 03                   ld      a,3
0a93:  c8                      ret     z
0a94:  3e 04                   ld      a,4
0a96:  c9                      ret
 ......................................................
0a97:  32 18 16        lab33:  ld      (byt8),a
0a9a:  f6 30                   or      "0"
0a9c:  5f                      ld      e,a
0a9d:  0e 02                   ld      c,2
0a9f:  cd 05 00                call    5
0aa2:  18 10                   jr      lab34
 ......................................................
0aa4:                  tbl53:  db      0ah,0dh
0aa6:                          db      "  Typ FD "
0aaf:                  byt20:  db      "B : $"
0ab4:  21 19 16        lab34:  ld      hl,tbl23
0ab7:  3a 17 16                ld      a,(byt7)
0aba:  3d                      dec     a
0abb:  3d                      dec     a
0abc:  28 26                   jr      z,lab35
0abe:  f5                      push    af
0abf:  e5                      push    hl
0ac0:  11 a4 0a        lab103: ld      de,tbl53
0ac3:  0e 09                   ld      c,9
0ac5:  cd 05 00                call    5
0ac8:  3e 36                   ld      a,"6"
0aca:  32 c4 15                ld      (byt2),a
0acd:  cd f5 08                call    lab13
0ad0:  28 ee                   jr      z,lab103
0ad2:  e1                      pop     hl
0ad3:  77                      ld      (hl),a
0ad4:  23                      inc     hl
0ad5:  c1                      pop     bc
0ad6:  05                      dec     b
0ad7:  28 3b                   jr      z,lab100
0ad9:  c5                      push    bc
0ada:  e5                      push    hl
0adb:  3a af 0a                ld      a,(byt20)
0ade:  3c                      inc     a
0adf:  32 af 0a                ld      (byt20),a
0ae2:  18 dc                   jr      lab103
 ......................................................
0ae4:  3a 14 16        lab35:  ld      a,(byt1)
0ae7:  b7                      or      a
0ae8:  28 5d                   jr      z,lab36
0aea:  18 28                   jr      lab100
 ......................................................
0aec:                  tbl52:  db      0dh,0ah,0ah
0aef:                          db      "  Jsou zadane udaje v poradku"
0b0c:                          db      " (A/N)?$"
0b14:  11 ec 0a        lab100: ld      de,tbl52
0b17:  0e 09                   ld      c,9
0b19:  cd 05 00                call    5
0b1c:  af                      xor     a
0b1d:  32 c2 15                ld      (byt10),a
0b20:  3e 42                   ld      a,"B"
0b22:  32 af 0a                ld      (byt20),a
0b25:  11 c0 15                ld      de,tbl29
0b28:  0e 0a                   ld      c,0ah
0b2a:  cd 05 00                call    5
0b2d:  3a c2 15                ld      a,(byt10)
0b30:  cb af                   res     5,a
0b32:  fe 41                   cp      "A"
0b34:  28 11                   jr      z,lab36
0b36:  fe 61                   cp      "a"
0b38:  28 0d                   jr      z,lab36
0b3a:  21 18 16                ld      hl,byt8
0b3d:  06 04                   ld      b,4
0b3f:  36 00           lab101: ld      (hl),0
0b41:  23                      inc     hl
0b42:  10 fb                   djnz    lab101
0b44:  c3 28 0a                jp      lab102
 ......................................................
0b47:  1e 00           lab36:  ld      e,0
0b49:  3a 17 16                ld      a,(byt7)
0b4c:  3d                      dec     a
0b4d:  47                      ld      b,a
0b4e:  21 18 16                ld      hl,byt8
0b51:  7e              lab38:  ld      a,(hl)
0b52:  0e 10                   ld      c,10h
0b54:  23                      inc     hl
0b55:  fe 03                   cp      3
0b57:  38 06                   jr      c,lab37
0b59:  fe 05                   cp      5
0b5b:  28 02                   jr      z,lab37
0b5d:  0e 01                   ld      c,1
0b5f:  79              lab37:  ld      a,c
0b60:  83                      add     a,e
0b61:  5f                      ld      e,a
0b62:  10 ed                   djnz    lab38
0b64:  21 9c 32                ld      hl,329ch
0b67:  01 63 00                ld      bc,63h
0b6a:  09                      add     hl,bc
0b6b:  73                      ld      (hl),e
0b6c:  3a 18 16                ld      a,(byt8)
0b6f:  11 00 00                ld      de,0
0b72:  01 3f 00        lab99:  ld      bc,3fh
0b75:  dd 21 44 16             ld      ix,1644h
0b79:  dd 09           lab39:  add     ix,bc
0b7b:  3d                      dec     a
0b7c:  20 fb                   jr      nz,lab39
0b7e:  7b                      ld      a,e
0b7f:  0f                      rrca
0b80:  0f                      rrca
0b81:  0f                      rrca
0b82:  0f                      rrca
0b83:  dd 77 17                ld      (ix+17h),a
0b86:  d5                      push    de
0b87:  21 e0 32                ld      hl,32e0h
0b8a:  7e                      ld      a,(hl)
0b8b:  23                      inc     hl
0b8c:  66                      ld      h,(hl)
0b8d:  6f                      ld      l,a
0b8e:  01 9c 54                ld      bc,549ch
0b91:  09                      add     hl,bc
0b92:  d1                      pop     de
0b93:  d5                      push    de
0b94:  19                      add     hl,de
0b95:  01 0a 00                ld      bc,0ah
0b98:  09                      add     hl,bc
0b99:  5e                      ld      e,(hl)
0b9a:  23                      inc     hl
0b9b:  56                      ld      d,(hl)
0b9c:  21 9c 54                ld      hl,549ch
0b9f:  19                      add     hl,de
0ba0:  eb                      ex      de,hl
0ba1:  dd e5                   push    ix
0ba3:  e1                      pop     hl
0ba4:  01 21 00                ld      bc,21h
0ba7:  ed b0                   ldir
0ba9:  d1                      pop     de
0baa:  1c                      inc     e
0bab:  1d                      dec     e
0bac:  20 17                   jr      nz,lab40
0bae:  d5                      push    de
0baf:  dd 21 9c 32             ld      ix,329ch
0bb3:  dd 5e 3e                ld      e,(ix+3eh)
0bb6:  dd 56 3f                ld      d,(ix+3fh)
0bb9:  eb                      ex      de,hl
0bba:  01 9c 54                ld      bc,549ch
0bbd:  09                      add     hl,bc
0bbe:  eb                      ex      de,hl
0bbf:  01 1e 00                ld      bc,1eh
0bc2:  ed b0                   ldir
0bc4:  d1                      pop     de
0bc5:  21 18 16        lab40:  ld      hl,byt8
0bc8:  7b                      ld      a,e
0bc9:  0f                      rrca
0bca:  0f                      rrca
0bcb:  0f                      rrca
0bcc:  0f                      rrca
0bcd:  47                      ld      b,a
0bce:  04                      inc     b
0bcf:  23              lab41:  inc     hl
0bd0:  10 fd                   djnz    lab41
0bd2:  7e                      ld      a,(hl)
0bd3:  b7                      or      a
0bd4:  28 08                   jr      z,lab42
0bd6:  47                      ld      b,a
0bd7:  3e 10                   ld      a,10h
0bd9:  83                      add     a,e
0bda:  5f                      ld      e,a
0bdb:  78                      ld      a,b
0bdc:  18 94                   jr      lab99
 ......................................................
0bde:  06 04           lab42:  ld      b,4
0be0:  21 1b 16                ld      hl,tbl24
0be3:  7e              lab44:  ld      a,(hl)
0be4:  b7                      or      a
0be5:  28 04                   jr      z,lab43
0be7:  fe 03                   cp      3
0be9:  38 19                   jr      c,lab98
0beb:  2b              lab43:  dec     hl
0bec:  10 f5                   djnz    lab44
0bee:  21 1b 16                ld      hl,tbl24
0bf1:  7e              lab45:  ld      a,(hl)
0bf2:  b7                      or      a
0bf3:  2b                      dec     hl
0bf4:  28 fb                   jr      z,lab45
0bf6:  dd 21 41 16             ld      ix,1641h
0bfa:  fe 03                   cp      3
0bfc:  28 16                   jr      z,lab46
0bfe:  dd 21 62 16             ld      ix,1662h
0c02:  18 10                   jr      lab46
 ......................................................
0c04:  dd 21 20 16     lab98:  ld      ix,1620h
0c08:  dd 36 1d 06             ld      (ix+1dh),6
0c0c:  fe 01                   cp      1
0c0e:  28 04                   jr      z,lab46
0c10:  dd 36 1d 04             ld      (ix+1dh),4
0c14:  58              lab46:  ld      e,b
0c15:  fd 21 9c 32             ld      iy,329ch
0c19:  fd 6e 44                ld      l,(iy+44h)
0c1c:  fd 66 45                ld      h,(iy+45h)
0c1f:  01 9c 54                ld      bc,549ch
0c22:  09                      add     hl,bc
0c23:  01 1a 00                ld      bc,1ah
0c26:  09                      add     hl,bc
0c27:  dd 36 17 00             ld      (ix+17h),0
0c2b:  3a 19 16                ld      a,(tbl23)
0c2e:  b7                      or      a
0c2f:  28 1b                   jr      z,lab47
0c31:  dd 34 17                inc     (ix+17h)
0c34:  3a 1a 16                ld      a,(wrd10)
0c37:  01 10 00                ld      bc,10h
0c3a:  09                      add     hl,bc
0c3b:  b7                      or      a
0c3c:  28 0e                   jr      z,lab47
0c3e:  dd 34 17                inc     (ix+17h)
0c41:  3a 1b 16                ld      a,(tbl24)
0c44:  09                      add     hl,bc
0c45:  b7                      or      a
0c46:  28 04                   jr      z,lab47
0c48:  dd 34 17                inc     (ix+17h)
0c4b:  09                      add     hl,bc
0c4c:  7b              lab47:  ld      a,e
0c4d:  b7                      or      a
0c4e:  28 04                   jr      z,lab48
0c50:  3d                      dec     a
0c51:  dd 77 17                ld      (ix+17h),a
0c54:  5e              lab48:  ld      e,(hl)
0c55:  23                      inc     hl
0c56:  56                      ld      d,(hl)
0c57:  21 9c 54                ld      hl,549ch
0c5a:  19                      add     hl,de
0c5b:  eb                      ex      de,hl
0c5c:  dd e5                   push    ix
0c5e:  e1                      pop     hl
0c5f:  01 21 00                ld      bc,21h
0c62:  ed b0                   ldir
0c64:  11 6f 0c                ld      de,tbl25
0c67:  0e 09                   ld      c,9
0c69:  cd 05 00                call    5
0c6c:  c3 4a 0d                jp      lab49
 ......................................................
0c6f:                  tbl25:  db      0ah,0ah,0dh
0c72:                          db      "  Zadejte typ tiskarny"
0c88:                          db      0ah,0ah,0dh
0c8b:                          db      "     1 = interf. IFSS "
0ca1:                          db      0ah,0dh
0ca3:                          db      "     2 = paralelni interface"
0cbf:                          db      " (PIO)       "
0ccc:                          db      0ah,0dh
0cce:                          db      "     3 = interface V24  "
0ce6:                          db      "      "
0cec:                          db      0ah,0dh
0cee:                          db      "   ET1 = zadna tiskarna "
0d06:                          db      "         "
0d0f:                          db      0ah
0d10:                          db      "$"
0d11:                  tbl26:  db      0ah,0dh
0d13:                          db      "  Typ tiskar.: $"
0d23:                  tbl48:  db      0ah,0ah,0dh
0d26:                          db      "  Jsou zadane udaje v poradku(A/N)?"
0d49:                          db      "$"
0d4a:  11 11 0d        lab49:  ld      de,tbl26
0d4d:  0e 09                   ld      c,9
0d4f:  cd 05 00                call    5
0d52:  11 bc 15                ld      de,tbl13
0d55:  0e 0a                   ld      c,0ah
0d57:  cd 05 00                call    5
0d5a:  3a bd 15                ld      a,(byt3)
0d5d:  b7                      or      a
0d5e:  28 5a                   jr      z,lab50
0d60:  3a be 15                ld      a,(byt4)
0d63:  fe 31                   cp      "1"
0d65:  38 e3                   jr      c,lab49
0d67:  fe 34                   cp      "4"
0d69:  30 df                   jr      nc,lab49
0d6b:  11 23 0d                ld      de,tbl48
0d6e:  0e 09                   ld      c,9
0d70:  cd 05 00                call    5
0d73:  af                      xor     a
0d74:  32 c2 15                ld      (byt10),a
0d77:  11 c0 15                ld      de,tbl29
0d7a:  0e 0a                   ld      c,0ah
0d7c:  cd 05 00                call    5
0d7f:  3a c2 15                ld      a,(byt10)
0d82:  cb af                   res     5,a
0d84:  fe 41                   cp      "A"
0d86:  28 04                   jr      z,lab96
0d88:  fe 61                   cp      "a"
0d8a:  20 be                   jr      nz,lab49
0d8c:  dd 21 9c 32     lab96:  ld      ix,329ch
0d90:  dd 6e 10                ld      l,(ix+10h)
0d93:  dd 66 11                ld      h,(ix+11h)
0d96:  01 9c 54                ld      bc,549ch
0d99:  09                      add     hl,bc
0d9a:  2b                      dec     hl
0d9b:  56                      ld      d,(hl)
0d9c:  2b                      dec     hl
0d9d:  5e                      ld      e,(hl)
0d9e:  eb                      ex      de,hl
0d9f:  09                      add     hl,bc
0da0:  eb                      ex      de,hl
0da1:  3a be 15                ld      a,(byt4)
0da4:  e6 0f                   and     0fh
0da6:  21 bc 19                ld      hl,tbl49
0da9:  3d                      dec     a
0daa:  28 09                   jr      z,lab97
0dac:  21 fc 17                ld      hl,tbl50
0daf:  3d                      dec     a
0db0:  28 03                   jr      z,lab97
0db2:  21 dc 18                ld      hl,tbl51
0db5:  01 e0 00        lab97:  ld      bc,0e0h
0db8:  ed b0                   ldir
0dba:  3a 14 16        lab50:  ld      a,(byt1)
0dbd:  b7                      or      a
0dbe:  3e 01                   ld      a,1
0dc0:  32 1d 16                ld      (byt9),a
0dc3:  ca 05 10                jp      z,lab51
0dc6:  dd 21 00 de             ld      ix,0de00h
0dca:  dd 7e 65                ld      a,(ix+65h)
0dcd:  f6 40                   or      "@"
0dcf:  fe 41                   cp      "A"
0dd1:  ca 05 10                jp      z,lab51
0dd4:  3d                      dec     a
0dd5:  32 03 0e                ld      (byt19),a
0dd8:  e6 0f                   and     0fh
0dda:  32 1e 16                ld      (byt18),a
0ddd:  11 e8 0d        lab89:  ld      de,tbl45
0de0:  0e 09                   ld      c,9
0de2:  cd 05 00                call    5
0de5:  c3 70 0f                jp      lab90
 ......................................................
0de8:                  tbl45:  db      0ah,0ah,0dh
0deb:                          db      "  Vystup. mechanika (A.."
0e03:                  byt19:  db      " ) : $"
0e09:                  tbl27:  db      0ah,0ah,0dh
0e0c:                          db      "    POZOR  !   Vymente disketu"
0e2a:                          db      "   !"
0e2e:                          db      0ah,0dh
0e30:                          db      "    Vlozte do mechaniky novou"
0e4d:                          db      " systemovou disketu     !"
0e66:                          db      " ! ! "
0e6b:                          db      0ah,0ah
0e6d:                          db      "$"
0e6e:                  tbl46:  db      0ah,0ah,0dh
0e71:                          db      "  Vlozte novou systemovou"
0e8a:                          db      " disketu    ! ! !      $"
0ea2:                  tbl40:  db      0dh,0ah
0ea4:                          db      "  Je disketa vlozena (A/N)"
0ebe:                          db      " ?  $"
0ec3:                          db      " $"
0ec5:                  tbl28:  db      0dh,0ah
0ec7:                          db      "  Byla disketa vymenena (A/N)"
0ee4:                          db      " ?  $"
0ee9:                          db      "  $"
0eec:                          db      "   "
0eef:                  tbl30:  db      0ah,0ah,0dh
0ef2:                          db      "  Vystup na mechaniku FD"
0f0a:                          db      " "
0f0b:                  byt12:  db      "  !$"
0f0f:                  tbl47:  db      0ah,0dh
0f11:                          db      "    Typ vystupni mechaniky"
0f2b:                          db      " neodpovida             "
0f43:                          db      "   "
0f46:                          db      0ah,0dh
0f48:                          db      "    FD A noveho systemu "
0f60:                          db      "   !!!         $"
0f70:  af              lab90:  xor     a
0f71:  32 be 15                ld      (byt4),a
0f74:  11 bc 15                ld      de,tbl13
0f77:  0e 0a                   ld      c,0ah
0f79:  cd 05 00                call    5
0f7c:  3a be 15                ld      a,(byt4)
0f7f:  fe 41                   cp      "A"
0f81:  da dd 0d                jp      c,lab89
0f84:  cb af                   res     5,a
0f86:  fe 45                   cp      "E"
0f88:  d2 dd 0d                jp      nc,lab89
0f8b:  e6 0f                   and     0fh
0f8d:  32 1d 16                ld      (byt9),a
0f90:  47                      ld      b,a
0f91:  3a 1e 16                ld      a,(byt18)
0f94:  00                      nop
0f95:  b8                      cp      b
0f96:  da dd 0d                jp      c,lab89
0f99:  dd 21 00 de             ld      ix,0de00h
0f9d:  dd 6e 44                ld      l,(ix+44h)
0fa0:  dd 66 45                ld      h,(ix+45h)
0fa3:  01 0a 00                ld      bc,0ah
0fa6:  09                      add     hl,bc
0fa7:  7e                      ld      a,(hl)
0fa8:  23                      inc     hl
0fa9:  66                      ld      h,(hl)
0faa:  6f                      ld      l,a
0fab:  3a 1d 16                ld      a,(byt9)
0fae:  3d              lab95:  dec     a
0faf:  28 06                   jr      z,lab91
0fb1:  01 21 00                ld      bc,21h
0fb4:  09                      add     hl,bc
0fb5:  18 f7                   jr      lab95
 ......................................................
0fb7:  cd 6b 0a        lab91:  call    lab30
0fba:  21 18 16                ld      hl,byt8
0fbd:  be                      cp      (hl)
0fbe:  28 0b                   jr      z,lab92
0fc0:  11 0f 0f                ld      de,tbl47
0fc3:  0e 09                   ld      c,9
0fc5:  cd 05 00                call    5
0fc8:  c3 dd 0d                jp      lab89
 ......................................................
0fcb:  3a 04 00        lab92:  ld      a,(4)
0fce:  4f                      ld      c,a
0fcf:  3a 1e 16                ld      a,(byt18)
0fd2:  47                      ld      b,a
0fd3:  3a 1d 16                ld      a,(byt9)
0fd6:  0c                      inc     c
0fd7:  b9                      cp      c
0fd8:  28 2b                   jr      z,lab51
0fda:  11 6e 0e                ld      de,tbl46
0fdd:  0e 09                   ld      c,9
0fdf:  cd 05 00                call    5
0fe2:  11 a2 0e        lab94:  ld      de,tbl40
0fe5:  0e 09                   ld      c,9
0fe7:  cd 05 00                call    5
0fea:  af                      xor     a
0feb:  32 c2 15                ld      (byt10),a
0fee:  11 c0 15                ld      de,tbl29
0ff1:  0e 0a                   ld      c,0ah
0ff3:  cd 05 00                call    5
0ff6:  3a c2 15                ld      a,(byt10)
0ff9:  cb af                   res     5,a
0ffb:  fe 41                   cp      "A"
0ffd:  28 32                   jr      z,lab93
0fff:  fe 61                   cp      "a"
1001:  20 df                   jr      nz,lab94
1003:  18 2c                   jr      lab93
 ......................................................
1005:  11 09 0e        lab51:  ld      de,tbl27
1008:  0e 09                   ld      c,9
100a:  cd 05 00                call    5
100d:  11 c5 0e                ld      de,tbl28
1010:  0e 09                   ld      c,9
1012:  cd 05 00                call    5
1015:  af                      xor     a
1016:  32 c2 15                ld      (byt10),a
1019:  11 c0 15                ld      de,tbl29
101c:  0e 0a                   ld      c,0ah
101e:  cd 05 00                call    5
1021:  3a c2 15                ld      a,(byt10)
1024:  cb af                   res     5,a
1026:  fe 41                   cp      "A"
1028:  28 04                   jr      z,lab52
102a:  fe 61                   cp      "a"
102c:  20 d7                   jr      nz,lab51
102e:  32 1f 16        lab52:  ld      (byt11),a
1031:  3a 1d 16        lab93:  ld      a,(byt9)
1034:  f6 40                   or      "@"
1036:  32 0b 0f                ld      (byt12),a
1039:  11 ef 0e                ld      de,tbl30
103c:  0e 09                   ld      c,9
103e:  cd 05 00                call    5
1041:  3a 18 16                ld      a,(byt8)
1044:  06 03                   ld      b,3
1046:  fe 05                   cp      5
1048:  28 0c                   jr      z,lab53
104a:  fe 02                   cp      2
104c:  28 08                   jr      z,lab53
104e:  06 07                   ld      b,7
1050:  fe 01                   cp      1
1052:  28 02                   jr      z,lab53
1054:  06 15                   ld      b,15h
1056:  78              lab53:  ld      a,b
1057:  32 9f 1a                ld      (byt13),a
105a:  c3 aa 12                jp      lab54
 ......................................................
105d:  af                      xor     a
105e:  18 02                   jr      lab122
 ......................................................
1060:  3e ff           lab55:  ld      a,0ffh
1062:  32 89 12        lab122: ld      (byt14),a
1065:  22 8a 12                ld      (wrd4),hl
1068:  ed 5b 3e 00             ld      de,(3eh)
106c:  21 62 00                ld      hl,62h
106f:  19                      add     hl,de
1070:  7e                      ld      a,(hl)
1071:  3d                      dec     a
1072:  b9                      cp      c
1073:  30 03                   jr      nc,lab56
1075:  3e 01                   ld      a,1
1077:  c9                      ret
 ......................................................
1078:  21 41 00        lab56:  ld      hl,41h
107b:  19                      add     hl,de
107c:  5e                      ld      e,(hl)
107d:  23                      inc     hl
107e:  56                      ld      d,(hl)
107f:  21 0a 00                ld      hl,0ah
1082:  19                      add     hl,de
1083:  11 10 00                ld      de,10h
1086:  79                      ld      a,c
1087:  b7              lab82:  or      a
1088:  28 04                   jr      z,lab57
108a:  19                      add     hl,de
108b:  3d                      dec     a
108c:  18 f9                   jr      lab82
 ......................................................
108e:  5e              lab57:  ld      e,(hl)
108f:  23                      inc     hl
1090:  56                      ld      d,(hl)
1091:  d5                      push    de
1092:  dd e1                   pop     ix
1094:  dd 7e 12                ld      a,(ix+12h)
1097:  b7                      or      a
1098:  20 03                   jr      nz,lab58
109a:  3e 01                   ld      a,1
109c:  c9                      ret
 ......................................................
109d:  2a 3e 00        lab58:  ld      hl,(3eh)
10a0:  11 3f 00                ld      de,3fh
10a3:  19                      add     hl,de
10a4:  5e                      ld      e,(hl)
10a5:  23                      inc     hl
10a6:  56                      ld      d,(hl)
10a7:  eb                      ex      de,hl
10a8:  22 39 12                ld      (wrd5),hl
10ab:  dd 46 0d                ld      b,(ix+0dh)
10ae:  2a 8a 12                ld      hl,(wrd4)
10b1:  dd cb 15 7e             bit     7,(ix+15h)
10b5:  20 17                   jr      nz,lab59
10b7:  11 00 0d                ld      de,0d00h
10ba:  19                      add     hl,de
10bb:  dd cb 15 46             bit     0,(ix+15h)
10bf:  28 0a                   jr      z,lab79
10c1:  dd cb 15 4e             bit     1,(ix+15h)
10c5:  28 03                   jr      z,lab81
10c7:  11 00 1a                ld      de,tbl34
10ca:  19              lab81:  add     hl,de
10cb:  05              lab79:  dec     b
10cc:  28 07                   jr      z,lab80
10ce:  c5              lab59:  push    bc
10cf:  cd 9e 11                call    lab60
10d2:  c1                      pop     bc
10d3:  10 f9                   djnz    lab59
10d5:  22 8e 12        lab80:  ld      (wrd6),hl
10d8:  2a 8a 12                ld      hl,(wrd4)
10db:  dd cb 15 7e             bit     7,(ix+15h)
10df:  28 07                   jr      z,lab64
10e1:  af                      xor     a
10e2:  cd b5 11                call    lab75
10e5:  3e 00                   ld      a,0
10e7:  c9                      ret
 ......................................................
10e8:  dd 7e 16        lab64:  ld      a,(ix+16h)
10eb:  cb df                   set     3,a
10ed:  21 6f 12                ld      hl,tbl31
10f0:  11 7c 12                ld      de,tbl32
10f3:  12                      ld      (de),a
10f4:  cb b7                   res     6,a
10f6:  77                      ld      (hl),a
10f7:  3a 89 12                ld      a,(byt14)
10fa:  b7                      or      a
10fb:  28 04                   jr      z,lab65
10fd:  35                      dec     (hl)
10fe:  eb                      ex      de,hl
10ff:  35                      dec     (hl)
1100:  eb                      ex      de,hl
1101:  dd 7e 17        lab65:  ld      a,(ix+17h)
1104:  23                      inc     hl
1105:  13                      inc     de
1106:  77                      ld      (hl),a
1107:  cb d7                   set     2,a
1109:  12                      ld      (de),a
110a:  06 08                   ld      b,8
110c:  23              lab66:  inc     hl
110d:  13                      inc     de
110e:  10 fc                   djnz    lab66
1110:  dd 7e 1b                ld      a,(ix+1bh)
1113:  12                      ld      (de),a
1114:  77                      ld      (hl),a
1115:  13                      inc     de
1116:  23                      inc     hl
1117:  dd 7e 1c                ld      a,(ix+1ch)
111a:  12                      ld      (de),a
111b:  cb d7                   set     2,a
111d:  77                      ld      (hl),a
111e:  dd 6e 1d                ld      l,(ix+1dh)
1121:  dd 66 1e                ld      h,(ix+1eh)
1124:  22 7a 12                ld      (wrd7),hl
1127:  22 87 12                ld      (wrd8),hl
112a:  dd 7e 15                ld      a,(ix+15h)
112d:  e6 03                   and     3
112f:  fe 01                   cp      1
1131:  28 3f                   jr      z,lab67
1133:  ed 5b 8a 12             ld      de,(wrd4)
1137:  ed 53 8c 12             ld      (wrd9),de
113b:  21 6f 12                ld      hl,tbl31
113e:  cd 09 12                call    lab68
1141:  78                      ld      a,b
1142:  b7                      or      a
1143:  3e 00                   ld      a,0
1145:  c0                      ret     nz
1146:  11 00 0d                ld      de,0d00h
1149:  2a 8a 12                ld      hl,(wrd4)
114c:  19                      add     hl,de
114d:  22 8a 12                ld      (wrd4),hl
1150:  dd cb 15 46             bit     0,(ix+15h)
1154:  28 40                   jr      z,lab78
1156:  eb                      ex      de,hl
1157:  ed 53 8c 12             ld      (wrd9),de
115b:  21 7c 12                ld      hl,tbl32
115e:  cd 09 12                call    lab68
1161:  78                      ld      a,b
1162:  b7                      or      a
1163:  3e 00                   ld      a,0
1165:  c0                      ret     nz
1166:  11 00 1a                ld      de,tbl34
1169:  2a 8a 12                ld      hl,(wrd4)
116c:  19                      add     hl,de
116d:  22 8a 12                ld      (wrd4),hl
1170:  18 24                   jr      lab78
 ......................................................
1172:  3a 77 12        lab67:  ld      a,(byt15)
1175:  87                      add     a,a
1176:  32 77 12                ld      (byt15),a
1179:  ed 5b 8a 12             ld      de,(wrd4)
117d:  ed 53 8c 12             ld      (wrd9),de
1181:  21 6f 12                ld      hl,tbl31
1184:  cd 09 12                call    lab68
1187:  78                      ld      a,b
1188:  b7                      or      a
1189:  3e 00                   ld      a,0
118b:  c0                      ret     nz
118c:  11 00 1a                ld      de,tbl34
118f:  2a 8a 12                ld      hl,(wrd4)
1192:  19                      add     hl,de
1193:  22 8a 12                ld      (wrd4),hl
1196:  3e 01           lab78:  ld      a,1
1198:  cd b5 11                call    lab75
119b:  3e 00                   ld      a,0
119d:  c9                      ret
 ......................................................
119e:  e5              lab60:  push    hl
119f:  dd 46 1f                ld      b,(ix+1fh)
11a2:  dd 7e 18                ld      a,(ix+18h)
11a5:  21 80 00                ld      hl,80h
11a8:  b7              lab63:  or      a
11a9:  28 04                   jr      z,lab61
11ab:  29                      add     hl,hl
11ac:  3d                      dec     a
11ad:  18 f9                   jr      lab63
 ......................................................
11af:  eb              lab61:  ex      de,hl
11b0:  e1                      pop     hl
11b1:  19              lab62:  add     hl,de
11b2:  10 fd                   djnz    lab62
11b4:  c9                      ret
 ......................................................
11b5:  22 8c 12        lab75:  ld      (wrd9),hl
11b8:  21 90 12                ld      hl,tbl35
11bb:  32 92 12                ld      (byt16),a
11be:  dd 46 16                ld      b,(ix+16h)
11c1:  3a 89 12                ld      a,(byt14)
11c4:  b7                      or      a
11c5:  28 01                   jr      z,lab76
11c7:  05                      dec     b
11c8:  70              lab76:  ld      (hl),b
11c9:  cb de                   set     3,(hl)
11cb:  23                      inc     hl
11cc:  dd 7e 17                ld      a,(ix+17h)
11cf:  77                      ld      (hl),a
11d0:  23                      inc     hl
11d1:  23                      inc     hl
11d2:  36 00                   ld      (hl),0
11d4:  23                      inc     hl
11d5:  36 01                   ld      (hl),1
11d7:  23                      inc     hl
11d8:  eb                      ex      de,hl
11d9:  dd e5                   push    ix
11db:  dd e5                   push    ix
11dd:  e1                      pop     hl
11de:  01 18 00                ld      bc,18h
11e1:  09                      add     hl,bc
11e2:  01 03 00                ld      bc,3
11e5:  ed b0                   ldir
11e7:  13                      inc     de
11e8:  01 04 00                ld      bc,4
11eb:  ed b0                   ldir
11ed:  dd e1                   pop     ix
11ef:  3a 92 12                ld      a,(byt16)
11f2:  47                      ld      b,a
11f3:  dd 7e 0d                ld      a,(ix+0dh)
11f6:  90                      sub     b
11f7:  47                      ld      b,a
11f8:  dd 4e 1f                ld      c,(ix+1fh)
11fb:  af                      xor     a
11fc:  81              lab77:  add     a,c
11fd:  10 fd                   djnz    lab77
11ff:  32 98 12                ld      (byt17),a
1202:  21 90 12                ld      hl,tbl35
1205:  ed 5b 8c 12             ld      de,(wrd9)
1209:  cd 28 12        lab68:  call    lab69
120c:  78                      ld      a,b
120d:  b7                      or      a
120e:  c0                      ret     nz
120f:  3a 89 12                ld      a,(byt14)
1212:  b7                      or      a
1213:  c8                      ret     z
1214:  34                      inc     (hl)
1215:  ed 5b 8e 12             ld      de,(wrd6)
1219:  cd 28 12                call    lab69
121c:  78                      ld      a,b
121d:  b7                      or      a
121e:  c0                      ret     nz
121f:  cd 40 12                call    lab70
1222:  06 00                   ld      b,0
1224:  c8                      ret     z
1225:  06 4b                   ld      b,"K"
1227:  c9                      ret
 ......................................................
1228:  e5              lab69:  push    hl
1229:  d5                      push    de
122a:  dd e5                   push    ix
122c:  d5                      push    de
122d:  11 9d 12                ld      de,tbl33
1230:  d5                      push    de
1231:  01 0d 00                ld      bc,0dh
1234:  ed b0                   ldir
1236:  e1                      pop     hl
1237:  d1                      pop     de
1238:  cd 00 00                db      0cdh
1239:                  wrd5:   db      0,0
123b:  dd e1                   pop     ix
123d:  d1                      pop     de
123e:  e1                      pop     hl
123f:  c9                      ret
 ......................................................
1240:  01 05 00        lab70:  ld      bc,5
1243:  09                      add     hl,bc
1244:  7e                      ld      a,(hl)
1245:  01 03 00                ld      bc,3
1248:  09                      add     hl,bc
1249:  46                      ld      b,(hl)
124a:  21 80 00                ld      hl,80h
124d:  b7              lab74:  or      a
124e:  28 04                   jr      z,lab71
1250:  29                      add     hl,hl
1251:  3d                      dec     a
1252:  18 f9                   jr      lab74
 ......................................................
1254:  eb              lab71:  ex      de,hl
1255:  21 00 00                ld      hl,0
1258:  19              lab72:  add     hl,de
1259:  10 fd                   djnz    lab72
125b:  4d                      ld      c,l
125c:  44                      ld      b,h
125d:  2a 8c 12                ld      hl,(wrd9)
1260:  ed 5b 8e 12             ld      de,(wrd6)
1264:  1a              lab73:  ld      a,(de)
1265:  be                      cp      (hl)
1266:  c0                      ret     nz
1267:  23                      inc     hl
1268:  13                      inc     de
1269:  0b                      dec     bc
126a:  79                      ld      a,c
126b:  b0                      or      b
126c:  20 f6                   jr      nz,lab73
126e:  c9                      ret
 ......................................................
126f:                  tbl31:  db      0eh,0,0,0,1,0,1ah,4
1277:                  byt15:  db      1ah,0,0
127a:                  wrd7:   db      0,0
127c:                  tbl32:  db      "N"
127d:                          db      4,0,1,1,1,1ah,0fh,1ah,0,0
1287:                  wrd8:   db      0,0
1289:                  byt14:  db      ">"
128a:                  wrd4:   db      0,0
128c:                  wrd9:   db      0,0
128e:                  wrd6:   db      0,0
1290:                  tbl35:  db      0,0
1292:                  byt16:  db      0,0,0,0,0,0
1298:                  byt17:  db      0,0,0,0,0
129d:                  tbl33:  db      0,0,0,0,0,0,0,0,0,0,0,0,0
12aa:  21 9c 1a        lab54:  ld      hl,tbl2
12ad:  3a 1d 16                ld      a,(byt9)
12b0:  3d                      dec     a
12b1:  4f                      ld      c,a
12b2:  cd 60 10                call    lab55
12b5:  b0                      or      b
12b6:  ca ea 13                jp      z,lab83
12b9:  11 cb 12                ld      de,tbl44
12bc:  0e 09                   ld      c,9
12be:  cd 05 00                call    5
12c1:  3a 14 16                ld      a,(byt1)
12c4:  b7                      or      a
12c5:  ca 05 10                jp      z,lab51
12c8:  c3 dd 0d                jp      lab89
 ......................................................
12cb:                  tbl44:  db      0ah,0dh
12cd:                          db      "  Chyba zaznamu na disketu"
12e7:                          db      "   ! ! !  $"
12f2:                  tbl41:  db      0ah,0dh
12f4:                          db      "  Bude generovana dalsi systemova"
1315:                          db      " disketa (A/"
1321:                  tbl61:  db      "N) ? $"
1327:                  tbl37:  db      0ah,0ah,0dh
132a:                          db      "  System.disketa je generovana"
1348:                          db      " !$"
134b:                  tbl38:  db      0ah,0dh
134d:                          db      "  Vyjmete system. disketu"
1366:                          db      "  !"
1369:                          db      0ah
136a:                          db      "$"
136b:                  tbl39:  db      0ah,0dh
136d:                          db      "  Bude generovan stejny system"
138b:                          db      " jeste jednou (A/N) ? $"
13a2:                          db      "   $"
13a6:                  tbl42:  db      0ah,0dh
13a8:                          db      "  Vlozte opet puvodni disketu"
13c5:                          db      " !"
13c7:                          db      0ah
13c8:                          db      "$"
13c9:                  tbl43:  db      0ah,0dh
13cb:                          db      "  Vlozena puvodni disk.(A/N)?"
13e8:                          db      " $"
13ea:  cd 6b 15        lab83:  call    lab7
13ed:  11 27 13                ld      de,tbl37
13f0:  0e 09                   ld      c,9
13f2:  cd 05 00                call    5
13f5:  11 4b 13                ld      de,tbl38
13f8:  0e 09                   ld      c,9
13fa:  cd 05 00                call    5
13fd:  11 6b 13                ld      de,tbl39
1400:  0e 09                   ld      c,9
1402:  cd 05 00                call    5
1405:  af                      xor     a
1406:  32 c2 15                ld      (byt10),a
1409:  11 c0 15                ld      de,tbl29
140c:  0e 0a                   ld      c,0ah
140e:  cd 05 00                call    5
1411:  3a c2 15                ld      a,(byt10)
1414:  cb af                   res     5,a
1416:  fe 41                   cp      "A"
1418:  28 04                   jr      z,lab84
141a:  fe 61                   cp      "a"
141c:  20 2d                   jr      nz,lab86
141e:  11 ef 0e        lab84:  ld      de,tbl30
1421:  0e 09                   ld      c,9
1423:  cd 05 00                call    5
1426:  11 a2 0e        lab85:  ld      de,tbl40
1429:  0e 09                   ld      c,9
142b:  cd 05 00                call    5
142e:  af                      xor     a
142f:  32 c2 15                ld      (byt10),a
1432:  11 c0 15                ld      de,tbl29
1435:  0e 0a                   ld      c,0ah
1437:  cd 05 00                call    5
143a:  3a c2 15                ld      a,(byt10)
143d:  cb af                   res     5,a
143f:  fe 41                   cp      "A"
1441:  ca aa 12                jp      z,lab54
1444:  fe 61                   cp      "a"
1446:  20 de                   jr      nz,lab85
1448:  c3 aa 12                jp      lab54
 ......................................................
144b:  11 f2 12        lab86:  ld      de,tbl41
144e:  0e 09                   ld      c,9
1450:  cd 05 00                call    5
1453:  af                      xor     a
1454:  32 c2 15                ld      (byt10),a
1457:  11 c0 15                ld      de,tbl29
145a:  0e 0a                   ld      c,0ah
145c:  cd 05 00                call    5
145f:  3a c2 15                ld      a,(byt10)
1462:  cb af                   res     5,a
1464:  fe 41                   cp      "A"
1466:  28 09                   jr      z,lab87
1468:  fe 61                   cp      "a"
146a:  28 05                   jr      z,lab87
146c:  ed 7b b6 15     lab4:   ld      sp,(tbl1)
1470:  c9                      ret
 ......................................................
1471:  3a 1f 16        lab87:  ld      a,(byt11)
1474:  b7                      or      a
1475:  ca 21 04                jp      z,lab1
1478:  af                      xor     a
1479:  32 1f 16                ld      (byt11),a
147c:  11 a6 13                ld      de,tbl42
147f:  0e 09                   ld      c,9
1481:  cd 05 00                call    5
1484:  21 00 00                ld      hl,0
1487:  22 18 16                ld      (byt8),hl
148a:  22 1a 16                ld      (wrd10),hl
148d:  11 c9 13        lab88:  ld      de,tbl43
1490:  0e 09                   ld      c,9
1492:  cd 05 00                call    5
1495:  af                      xor     a
1496:  32 c2 15                ld      (byt10),a
1499:  11 c0 15                ld      de,tbl29
149c:  0e 0a                   ld      c,0ah
149e:  cd 05 00                call    5
14a1:  3a c2 15                ld      a,(byt10)
14a4:  cb af                   res     5,a
14a6:  fe 41                   cp      "A"
14a8:  ca 21 04                jp      z,lab1
14ab:  fe 61                   cp      "a"
14ad:  ca 21 04                jp      z,lab1
14b0:  18 db                   jr      lab88
 ......................................................
14b2:  11 bc 14        lab3:   ld      de,tbl7
14b5:  0e 09           lab10:  ld      c,9
14b7:  cd 05 00                call    5
14ba:  18 b0                   jr      lab4
 ......................................................
14bc:                  tbl7:   db      0ah,0dh
14be:                          db      "     Chybny  soubor   SYL.SYS"
14db:                          db      " !!! $"
14e1:  11 e6 14        lab104: ld      de,tbl55
14e4:  18 cf                   jr      lab10
 ......................................................
14e6:                  tbl55:  db      0ah,0ah,0dh
14e9:                          db      "  Chyba v souboru     SYL.SYS"
1506:                          db      " !!!$"
150b:  11 11 15        lab9:   ld      de,tbl10
150e:  c3 b5 14                jp      lab10
 ......................................................
1511:                  tbl10:  db      0ah,0ah,0dh
1514:                          db      "     Chybny  soubor    CCPBDOS.SYS"
1536:                          db      " !!!$"
153b:  11 41 15        lab21:  ld      de,tbl18
153e:  c3 b5 14                jp      lab10
 ......................................................
1541:                  tbl18:  db      0ah,0ah
1543:                  wrd12:  db      0dh
1544:                          db      "        Chybny  soubor  "
155c:                          db      "  BIOS  V  !!!$"
156b:  21 d0 15        lab7:   ld      hl,tbl9
156e:  06 15                   ld      b,15h
1570:  af                      xor     a
1571:  23              lab8:   inc     hl
1572:  77                      ld      (hl),a
1573:  10 fc                   djnz    lab8
1575:  c9                      ret
 ......................................................
1576:                          db      0c7h,0c7h,0c7h,0c7h,0c7h,0c7h,0c7h
157d:                          db      0c7h,0c7h,0c7h,0c7h,0c7h,0c7h,0c7h
1584:                          db      0c7h,0c7h,0c7h,0c7h,0c7h,0c7h,0c7h
158b:                          db      0c7h,0c7h,0c7h,0c7h,0c7h,0c7h,0c7h
1592:                          db      0c7h,0c7h,0c7h,0c7h,0c7h,0c7h,0c7h
1599:                          db      0c7h,0c7h,0c7h,0c7h,0c7h,0c7h,0c7h
15a0:                          db      0c7h,0c7h,0c7h,0c7h,0c7h,0c7h,0c7h
15a7:                          db      0c7h,0c7h,0c7h,0c7h,0c7h,0c7h,0c7h
15ae:                          db      0c7h,0c7h,0c7h,0c7h,0c7h,0c7h,0c7h
15b5:                          db      0c7h
15b6:                  tbl1:   db      0,0
15b8:                  wrd3:   db      0,0
15ba:                  wrd1:   db      0,0
15bc:                  tbl13:  db      2
15bd:                  byt3:   db      0
15be:                  byt4:   db      0,0
15c0:                  tbl29:  db      2,0
15c2:                  byt10:  db      0,0
15c4:                  byt2:   db      0
15c5:                  tbl6:   db      0
15c6:                  tbl4:   db      "          "
15d0:                  tbl9:   db      " "
15d1:                          db      0,0,0,0,0,0,0,0,0,0,0,0,0,0,0,0,0
15e2:                          db      0,0,0,0
15e6:                  tbl5:   db      "SYL     SYS"
15f1:                  tbl8:   db      "CCPBDOS SYS"
15fc:                  tbl17:  db      "BIOS   "
1603:                  tbl16:  db      " SYS"
1607:                  tbl57:  db      6
1608:                  byt23:  db      0,0,0,0,0,0,0,0,0,0,0
1613:                  tbl60:  db      0
1614:                  byt1:   db      0,0,0
1617:                  byt7:   db      0
1618:                  byt8:   db      0
1619:                  tbl23:  db      0
161a:                  wrd10:  db      0
161b:                  tbl24:  db      0,0
161d:                  byt9:   db      0
161e:                  byt18:  db      0
161f:                  byt11:  db      0,1ah,0,3,7,0,0f2h,0,3fh,0,0c0h,0
162b:                          db      10h,0,2,0,0,0,1,0,61h,0deh,0,6,0
1638:                          db      0,1ah,4,0ffh,84h,6,15h,1ah,4ch,1ah
1642:                          db      0,3,7,0,7ah,0,3fh,0,0c0h,0,10h,0
164e:                          db      2,0,0,0,1,0,61h,0deh,82h,46h,0,0
165a:                          db      19h,0fh,19h,4,8,15h,1ah,27h,1ah,0
1664:                          db      3,7,0,0fch,0,3fh,0,0c0h,0,10h,0,2
1670:                          db      0,0,0,1,0,61h,0deh,82h,46h,0,0,1ah
167c:                          db      0fh,29h,4,6,15h,1ah,4fh,20h,0,4,0fh
1687:                          db      1,93h,0,3fh,0,80h,0,10h,0,3,0,3,22h
1694:                          db      1,1,5fh,0deh,0ch,6,0,3,4,4,0ffh,84h
16a0:                          db      6,15h,4,4ch,6,0,0,0,5,0,1ah,4,16h
16ad:                          db      0ffh,84h,6,15h,0,0c8h,6,0,1,0,1,3
16b9:                          db      4,4,2,0ffh,84h,6,15h,0,0d3h,40h,0
16c4:                          db      4,0fh,0,2bh,1,7fh,0,0c0h,0,20h,0
16cf:                          db      2,0,3,22h,1,1,5fh,0deh,0eh,46h,0
16da:                          db      3,8,0fh,27h,80h,4,15h,8,4ch,6,0,0
16e6:                          db      0,5,0,1ah,4,16h,27h,84h,4,15h,0,0c8h
16f2:                          db      46h,0,1,0,1,3,8,0fh,2,27h,80h,4,15h
16ff:                          db      0,0d3h,20h,0,4,0fh,1,49h,0,3fh,0
170a:                          db      80h,0,10h,0,3,0,1,0,4,1,5fh,0deh
1716:                          db      86h,46h,0,1,10h,0fh,19h,4,8,15h,10h
1721:                          db      27h,46h,0,0,0,3,1,10h,0fh,0eh,19h
172c:                          db      4,8,15h,0,0c8h,46h,0,1,0,1,1,10h
1738:                          db      0fh,8,19h,4,8,15h,0,0d6h,20h,0,4
1743:                          db      0fh,1,99h,0,3fh,0,80h,0,10h,0,3,0
174f:                          db      1,0,4,1,5fh,0deh,86h,46h,0,1,10h
175a:                          db      0fh,29h,4,6,15h,10h,4fh,46h,0,0,0
1765:                          db      3,1,10h,0fh,0eh,29h,4,6,15h,0,0c8h
1770:                          db      46h,0,1,0,1,1,10h,0fh,8,29h,4,6,15h
177d:                          db      0,0d6h,80h,0,4,0fh,0,5fh,2,0ffh,0
1788:                          db      0f0h,0,40h,0,1,0,3,34h,1,1,5fh,0deh
1794:                          db      0fh,0c6h,0,3,8,0fh,27h,80h,4,15h
179e:                          db      10h,4ch,86h,0,0,0,5,0,1ah,4,16h,27h
17aa:                          db      84h,4,15h,0,0c8h,0c6h,4,0,1,1,1,1ah
17b6:                          db      0fh,0bh,27h,80h,4,15h,0,0d3h,40h
17bf:                          db      0,4,0fh,0,37h,1,7fh,0,0c0h,0,20h
17ca:                          db      0,2,1,0,4,1,5fh,0deh,87h,0c6h,0,1
17d6:                          db      10h,0fh,29h,4,6,15h,20h,4fh,0c6h
17df:                          db      0,0,0,3,1,10h,0fh,0eh,29h,4,6,15h
17eb:                          db      0,0c8h,0c6h,4,0,1,1,1,10h,0fh,8,29h
17f7:                          db      4,6,15h,0,0d6h
17fc:                  tbl50:  db      18h,1dh,18h,35h,18h,5ch,0,50h,0fbh
1805:                          db      0edh,73h,0e9h,0f7h,31h,0e9h,0f7h
180c:                          db      0f5h,0dbh,54h,0e6h,7,32h,0e4h,0f7h
1814:                          db      0f1h,0edh,7bh,0e9h,0f7h,0edh,4dh
181b:                          db      3ah,0e4h,0f7h,0b7h,3eh,1,0c8h,78h
1823:                          db      0b1h,3eh,0,0c0h,0d5h,0eh,80h,0cdh
182b:                          db      0ch,0deh,0d1h,0afh,1,0ffh,0ffh,0d3h
1833:                          db      54h,0c9h,23h,23h,22h,0e2h,0f7h,3eh
183b:                          db      0e2h,0d3h,57h,3eh,8fh,0d3h,55h,3eh
1843:                          db      7fh,0d3h,57h,0d3h,56h,3eh,0ffh,0d3h
184b:                          db      57h,3dh,0d3h,57h,0d3h,56h,0dbh,54h
1853:                          db      3eh,87h,0d3h,57h,32h,0e4h,0f7h,0afh
185b:                          db      0d3h,54h,0c9h,3eh,7,32h,0e4h,0f7h
1863:                          db      1,77h,0,9,7eh,3ch,7bh,0cbh,0bfh,28h
186d:                          db      8,0beh,23h,7eh,28h,3,23h,18h,0f1h
1876:                          db      0d3h,54h,0c9h,0ffh,0c7h,0c7h,0c7h
187d:                          db      0c7h,0c7h,0c7h,0c7h,0c7h,0c7h,0c7h
1884:                          db      0c7h,0c7h,0c7h,0c7h,0c7h,0c7h,0c7h
188b:                          db      0c7h,0c7h,0c7h,0c7h,0c7h,0c7h,0c7h
1892:                          db      0c7h,0c7h,0c7h,0c7h,0c7h,0c7h,0c7h
1899:                          db      0c7h,0c7h,0c7h,0c7h,0c7h,0c7h,0c7h
18a0:                          db      0c7h,0c7h,0c7h,0c7h,0c7h,0c7h,0c7h
18a7:                          db      0c7h,0c7h,0c7h,0c7h,0c7h,0c7h,0c7h
18ae:                          db      0c7h,0c7h,0c7h,0c7h,0c7h,0c7h,0c7h
18b5:                          db      0c7h,0c7h,0c7h,0c7h,0c7h,0c7h,0c7h
18bc:                          db      0c7h,0c7h,0c7h,0c7h,0c7h,0c7h,0c7h
18c3:                          db      0c7h,0c7h,0c7h,0c7h,0c7h,0c7h,0c7h
18ca:                          db      0c7h,0c7h,0c7h,0c7h,0c7h,0c7h,0c7h
18d1:                          db      0c7h,0c7h,0c7h,0c7h,0c7h,0c7h,0c7h
18d8:                          db      0c7h,0c7h,0c7h,0c7h
18dc:                  tbl51:  db      18h,0dh,18h,1ah,18h,28h,0,1,0,19h
18e6:                          db      0,4,44h,5,68h,3eh,10h,0d3h,51h,0dbh
18f0:                          db      51h,0e6h,24h,0feh,24h,3eh,0,0c0h
18f8:                          db      3ch,0c9h,3eh,5,0d3h,0ch,0eh,0ch,23h
1901:                          db      0edh,0a3h,0eh,51h,6,7,0edh,0b3h,0c9h
190a:                          db      7bh,0cbh,0bfh,0d3h,50h,0c9h,0c7h
1911:                          db      0c7h,0c7h,0c7h,0c7h,0c7h,0c7h,0c7h
1918:                          db      0c7h,0c7h,0c7h,0c7h,0c7h,0c7h,0c7h
191f:                          db      0c7h,0c7h,0c7h,0c7h,0c7h,0c7h,0c7h
1926:                          db      0c7h,0c7h,0c7h,0c7h,0c7h,0c7h,0c7h
192d:                          db      0c7h,0c7h,0c7h,0c7h,0c7h,0c7h,0c7h
1934:                          db      0c7h,0c7h,0c7h,0c7h,0c7h,0c7h,0c7h
193b:                          db      0c7h,0c7h,0c7h,0c7h,0c7h,0c7h,0c7h
1942:                          db      0c7h,0c7h,0c7h,0c7h,0c7h,0c7h,0c7h
1949:                          db      0c7h,0c7h,0c7h,0c7h,0c7h,0c7h,0c7h
1950:                          db      0c7h,0c7h,0c7h,0c7h,0c7h,0c7h,0c7h
1957:                          db      0c7h,0c7h,0c7h,0c7h,0c7h,0c7h,0c7h
195e:                          db      0c7h,0c7h,0c7h,0c7h,0c7h,0c7h,0c7h
1965:                          db      0c7h,0c7h,0c7h,0c7h,0c7h,0c7h,0c7h
196c:                          db      0c7h,0c7h,0c7h,0c7h,0c7h,0c7h,0c7h
1973:                          db      0c7h,0c7h,0c7h,0c7h,0c7h,0c7h,0c7h
197a:                          db      0c7h,0c7h,0c7h,0c7h,0c7h,0c7h,0c7h
1981:                          db      0c7h,0c7h,0c7h,0c7h,0c7h,0c7h,0c7h
1988:                          db      0c7h,0c7h,0c7h,0c7h,0c7h,0c7h,0c7h
198f:                          db      0c7h,0c7h,0c7h,0c7h,0c7h,0c7h,0c7h
1996:                          db      0c7h,0c7h,0c7h,0c7h,0c7h,0c7h,0c7h
199d:                          db      0c7h,0c7h,0c7h,0c7h,0c7h,0c7h,0c7h
19a4:                          db      0c7h,0c7h,0c7h,0c7h,0c7h,0c7h,0c7h
19ab:                          db      0c7h,0c7h,0c7h,0c7h,0c7h,0c7h,0c7h
19b2:                          db      0c7h,0c7h,0c7h,0c7h,0c7h,0c7h,0c7h
19b9:                          db      0c7h,0c7h,0c7h
19bc:                  tbl49:  db      18h,11h,18h,36h,18h,48h,0,49h,1,0
19c6:                          db      19h,0,3,41h,4,45h,5,28h,7fh,0dbh
19d0:                          db      5eh,0e6h,7fh,0feh,11h,28h,17h,0feh
19d8:                          db      13h,20h,3,3eh,0,0c9h,0feh,14h,20h
19e1:                          db      0f9h,0d5h,18h,2bh,0eh,80h,0cdh,0ch
19e9:                          db      0deh,0d1h,1,0ffh,0ffh,0dbh,5fh,0e6h
19f1:                          db      4,0c8h,3eh,1,0c9h,3eh,5,0d3h,58h
19fa:                          db      0eh,58h,23h,23h,0edh,0a3h
1a00:                  tbl34:  db      0eh,5fh,6,9,0edh,0b3h,0dh,0edh,0a3h
1a09:                          db      0c9h,7bh,0cbh,0bfh,0d3h,5eh,0c9h
1a10:                          db      1,5bh,1bh,11h,6eh,35h,0dbh,5fh,0cbh
1a19:                          db      57h,28h,0fah,78h,6,0,0b7h,20h,12h
1a22:                          db      79h,0eh,0,0b7h,20h,0ch,7ah,16h,0
1a2b:                          db      0b7h,20h,6,7bh,1eh,0,0b7h,28h,4,0d3h
1a35:                          db      5eh,18h,0deh,0dbh,5fh,0cbh,47h,28h
1a3d:                          db      0fah,0dbh,5eh,0e6h,7fh,0feh,6eh,20h
1a45:                          db      0f2h,18h,9dh,0c7h,0c7h,0c7h,0c7h
1a4c:                          db      0c7h,0c7h,0c7h,0c7h,0c7h,0c7h,0c7h
1a53:                          db      0c7h,0c7h,0c7h,0c7h,0c7h,0c7h,0c7h
1a5a:                          db      0c7h,0c7h,0c7h,0c7h,0c7h,0c7h,0c7h
1a61:                          db      0c7h,0c7h,0c7h,0c7h,0c7h,0c7h,0c7h
1a68:                          db      0c7h,0c7h,0c7h,0c7h,0c7h,0c7h,0c7h
1a6f:                          db      0c7h,0c7h,0c7h,0c7h,0c7h,0c7h,0c7h
1a76:                          db      0c7h,0c7h,0c7h,0c7h,0c7h,0c7h,0c7h
1a7d:                          db      0c7h,0c7h,0c7h,0c7h,0c7h,0c7h,0c7h
1a84:                          db      0c7h,0c7h,0c7h,0c7h,0c7h,0c7h,0c7h
1a8b:                          db      0c7h,0c7h,0c7h,0c7h,0c7h,0c7h,0c7h
1a92:                          db      0c7h,0c7h,0c7h,0c7h,0c7h,0c7h,0c7h
1a99:                          db      0c7h,0c7h,0c7h
1a9c:                  tbl2:   db      0,6,0
1a9f:                  byt13:  db      0b7h,20h,12h,79h,0eh,0,0b7h,20h,0ch
1aa8:                          db      7ah,16h,0,0b7h,20h,6,7bh,1eh,0,0b7h
1ab2:                          db      28h,4,0d3h,5eh,18h,0deh,0dbh,5fh
1aba:                          db      0cbh,47h,28h,0fah,0dbh,5eh,0e6h,7fh
1ac2:                          db      0feh,6eh,20h,0f2h,18h,9dh,0c7h,0c7h
1aca:                          db      0c7h,0c7h,0c7h,0c7h,0c7h,0c7h,0c7h
1ad1:                          db      0c7h,0c7h,0c7h,0c7h,0c7h,0c7h,0c7h
1ad8:                          db      0c7h,0c7h,0c7h,0c7h,0c7h,0c7h,0c7h
1adf:                          db      0c7h
1ae0:                  wrd11:  db      0c7h,0c7h,0c7h,0c7h,0c7h,0c7h,0c7h
1ae7:                          db      0c7h,0c7h,0c7h,0c7h,0c7h,0c7h,0c7h
1aee:                          db      0c7h,0c7h,0c7h,0c7h,0c7h,0c7h,0c7h
1af5:                          db      0c7h,0c7h,0c7h,0c7h,0c7h,0c7h,0c7h
1afc:                          db      0c7h,0c7h,0c7h,0c7h,0,0,0,0,0,0,0
