; -----------------------------------------------------------------------------
;         Nalezen¡ dal¨¡ho souboru
; -----------------------------------------------------------------------------
0000:2FD3 BF0100         MOV    DI,0001
0000:2FD6 EB02           JMP    2FDA
; -----------------------------------------------------------------------------
;         Nalezen¡ prvn¡ho souboru
; -----------------------------------------------------------------------------
0000:2FD8 33FF           XOR    DI,DI
0000:2FDA 36C706180400E5*MOV    Word Ptr SS:[0418],E500
0000:2FE1 8BF2           MOV    SI,DX            ; adresa FCB
0000:2FE3 AC             LODSB                   ; disk nebo identifik tor FF
0000:2FE4 36A21704       MOV    SS:[0417],AL     ; 1.bajt zadan‚ho FCB
0000:2FE8 32E4           XOR    AH,AH            ; AH <- 0 atributy FCB
0000:2FEA 3CFF           CMP    AL,FF            ; je roz¨¡©en¡ FCB ?
0000:2FEC 750A           JNZ    2FF8             ; nen¡ roz¨¡©en˜ FCB
0000:2FEE 83C207         ADD    DX,+07           ; oprava offsetu roz¨¡©. FCB
0000:2FF1 83C606         ADD    SI,+06           ; roz¨¡©. FCB - 1
0000:2FF4 8A64FF         MOV    AH,[SI-01]       ; atributy FCB
0000:2FF7 AC             LODSB                   ; disk z FCB
0000:2FF8 E89CEC       * CALL   1C97             ; nastav. pracovn¡ho log. disku
0000:2FFB 72D5           JB     2FD2             ; chybn‚ zad n¡ disku

0000:2FFD 1E             PUSH   DS
0000:2FFE 52             PUSH   DX
0000:2FFF 56             PUSH   SI
0000:3000 50             PUSH   AX
0000:3001 57             PUSH   DI
0000:3002 16             PUSH   SS
0000:3003 07             POP    ES
0000:3004 BFEF03         MOV    DI,03EF
0000:3007 E82800         CALL   3032             ; p©enos ‡ sti textu specifik.
0000:300A 5F             POP    DI
0000:300B 7217           JB     3024
0000:300D 0BFF           OR     DI,DI
0000:300F 7513           JNZ    3024
0000:3011 16             PUSH   SS
0000:3012 1F             POP    DS
0000:3013 E8F9E3         CALL   140F             ; nalezen¡ z hlav¡ znak. za©¡z.
0000:3016 730C           JNB    3024
0000:3018 E8C8F2         CALL   22E3             ; poskytnut¡ tabulky disku
0000:301B 36C606FB0316   MOV    Byte Ptr SS:[03FB],16
0000:3021 E86BE6         CALL   168F             ; aktualizace aktu l. adres ©e
0000:3024 58           * POP    AX
0000:3025 368826FB03     MOV    SS:[03FB],AH
0000:302A 5E             POP    SI
0000:302B 5A             POP    DX
0000:302C 1F             POP    DS
0000:302D 16             PUSH   SS
0000:302E 07             POP    ES
0000:302F BFEF03         MOV    DI,03EF

                                               ;* p©enos ‡ sti textu specifikace
0000:3032 803C20       * CMP    Byte Ptr [SI],20 ; je mezera ?
0000:3035 F9             STC                     ; p©¡znak konce
0000:3036 749A           JZ     2FD2             ; je mezera - n vrat
0000:3038 B90B00         MOV    CX,000B          ; max. po‡et znak– = 11
0000:303B E80E00       * CALL   304C             ; ‡ten¡ znaku
0000:303E 720B           JB     304B             ; konec zad n¡
0000:3040 7505           JNZ    3047             ; nen¡ oddˆlova‡
0000:3042 3C20           CMP    AL,20            ; je mezera ?
0000:3044 F9             STC                     ;
0000:3045 758B           JNZ    2FD2             ; nen¡ mezera - konec
0000:3047 AA             STOSB                   ; ulo‘en¡ znaku
0000:3048 E2F1           LOOP   303B             ; dal¨¡ znak
0000:304A F8             CLC
0000:304B C3           * RET
; -----------------------------------------------------------------------------
;         €ten¡ znaku ze zadan‚ specifikace souboru
; -----------------------------------------------------------------------------
                                               ;* ‡ten¡ znaku
0000:304C AC           * LODSB                   ; znak jm‚na souboru
0000:304D 3C61           CMP    AL,"a"
0000:304F 7206           JB     3057             ; nen¡ mal‚ p¡smeno
0000:3051 3C7A           CMP    AL,"z"
0000:3053 7702           JA     3057             ; nen¡ mal‚ p¡smeno
0000:3055 2C20           SUB    AL,20            ; korekce na velk‚ p¡smeno
0000:3057 56           * PUSH   SI
0000:3058 368B36A401     MOV    SI,SS:[01A4]     ; tabulka n rodn¡ch informac¡
0000:305D 83C612         ADD    SI,+12           ; procedura mapov n¡ znak–
0000:3060 0E             PUSH   CS               ; p©ednastaven¡ pro CALL FAR
0000:3061 2EFF14         CALL   CS:[SI]          ; p©ek¢dov n¡ na velk  p¡smena
0000:3064 5E             POP    SI
0000:3065 3C2E           CMP    AL,2E            ; je to te‡ka ?
0000:3067 74E2           JZ     304B             ; je te‡ka - konec
0000:3069 3C22           CMP    AL,22            ; jsou to uvozovky ?
0000:306B 74DE           JZ     304B             ; uvozovky - konec
0000:306D E83100         CALL   30A1             ; test odˆlova‡e param., cesty
0000:3070 74D9           JZ     304B             ; oddˆlova‡ param. nebo cesty
0000:3072 3C5B           CMP    AL,5B            ; je "[" ?
0000:3074 74D5           JZ     304B             ; je "["
0000:3076 3C5D           CMP    AL,5D            ; je "]" ?
0000:3078 74D1           JZ     304B             ; je "]"
0000:307A 3C3A         * CMP    AL,3A            ; je ":" ?
0000:307C 74CD           JZ     304B             ; je ":"
0000:307E 3C3C           CMP    AL,3C            ; je "<" ?
0000:3080 74C9           JZ     304B             ; je "<"
0000:3082 3C7C           CMP    AL,7C            ; je "|" ?
0000:3084 74C5           JZ     304B             ; je "|"
0000:3086 3C3E           CMP    AL,3E            ; je ">" ?
0000:3088 74C1           JZ     304B             ; je ">"
0000:308A 3C2B           CMP    AL,2B            ; je "+" ?
0000:308C 74BD           JZ     304B             ; je "+"
0000:308E 3C3D           CMP    AL,3D            ; je "=" ?
0000:3090 74B9           JZ     304B             ; je "="
0000:3092 3C3B           CMP    AL,3B            ; je ";" ?
0000:3094 74B5           JZ     304B             ; je ";"
0000:3096 3C2C           CMP    AL,2C            ; je "," ?
0000:3098 74B1           JZ     304B             ; je ","
0000:309A 3C09         * CMP    AL,09            ; je tabel tor ?
0000:309C 74AD           JZ     304B             ; je tabel tor
0000:309E 3C20           CMP    AL,20            ; je mezera ?
0000:30A0 C3           * RET                     ; je mezera
; -----------------------------------------------------------------------------
;         Test, zda je oddˆlova‡ parametr– nebo cesty
; -----------------------------------------------------------------------------
0000:30A1 3C2F           CMP    AL,2F                         ;'/'
0000:30A3 74FB           JZ     30A0             ; je oddˆlova‡ parametr– "/"
0000:30A5 3C5C           CMP    AL,5C            ; je oddˆlova‡ cesty "\" ?
0000:30A7 C3             RET
; -----------------------------------------------------------------------------
;         Slu‘ba 4dh - poskytnut¡ n vratov‚ho k¢du procesu
; -----------------------------------------------------------------------------
0000:30A8 36A18204       MOV    AX,SS:[0482]
0000:30AC 33D2           XOR    DX,DX
0000:30AE 3689168204     MOV    SS:[0482],DX
0000:30B3 E991D8         JMP    0947             ; n vrat z INT 21h s funkc¡ OK

0000:30b6                dd     0                ; ukazatel bloku parametr– EXEC
0000:30ba                db     0                ; po‘adovan  operace
0000:30bb                dw     0                ; identifik tor souboru (prog.)
0000:30bd                dw     0                ; reloka‡n¡ faktor

0000:30bf                dw     0                ; velikost progr. v odstavc¡ch


0000:30B0  16 82 04 E9 91 D8 00 00-00 00 00 00 00 00 00 00  ...i.X..........
0000:30C0  00 00 00 00 00 00 00 00-00 00 00 00 00 00 00 00  ................

0000:30c1                dd     0                ; startovac¡ adresa CS:IP
0000:30c5                dd     0                ; adresa z sobn¡ku SS:SP
0000:30c9                dw     0                ; segment prost©ed¡ programu

0000:30cb                dw     0                ; velikost p©idˆl. bloku prog.
0000:30cd                dw     0                ; segment PSP programu
0000:30cf                db     0
0000:30d0                db     1ch dup(0)       ; buffer k na‡ten¡ z hlav¡ EXE
0000:30ec                dw     0                ; adresa k na‡ten¡ souboru
; -----------------------------------------------------------------------------
;         Slu‘ba 4bh - na‡ten¡ nebo proveden¡ programu
; -----------------------------------------------------------------------------
0000:30EE 3C03           CMP    AL,03            ; je funkce OK ?
0000:30F0 7607           JBE    30F9             ; ‡¡slo funkce je OK
0000:30F2 B001           MOV    AL,01            ; chyba - neplatn  funkce
0000:30F4 E95AD8         JMP    0951             ; n vrat z INT 21h s chybou CY

0000:30F7 EBFB           JMP    30F4             ; n vrat s chybou

0000:30F9 3C02         * CMP    AL,02            ; je funkce 2 ?
0000:30FB 74F5           JZ     30F2             ; po‘adovan  funkce 2 - chyba
0000:30FD 36891EB630     MOV    SS:[30B6],BX     ; offset bloku parametr–
0000:3102 368C06B830     MOV    SS:[30B8],ES     ; segment bloku parametr–
0000:3107 36A2BA30       MOV    SS:[30BA],AL     ; po‘adovan  operace
0000:310B 36C606CF3000   MOV    Byte Ptr SS:[30CF],00
0000:3111 32C0           XOR    AL,AL            ; otev©en¡ pro ‡ten¡
0000:3113 E86B09         CALL   3A81             ; otev©en¡ zadan‚ho souboru
0000:3116 72DF           JB     30F7             ; chyba - soubor nenalezen
0000:3118 36A3BB30       MOV    SS:[30BB],AX     ; identifik tor souboru
0000:311C 8BD8           MOV    BX,AX            ; identifik tor souboru
0000:311E 32C0           XOR    AL,AL            ; podfunkce zji¨tˆn¡ informac¡
0000:3120 E8CA0E         CALL   3FED             ; zji¨tˆn¡ informac¡ o souboru
0000:3123 F6C280         TEST   DL,80            ; je to diskov˜ soubor ?
0000:3126 7404           JZ     312C             ; je to diskov˜ soubor OK
0000:3128 B002           MOV    AL,02            ; chyba - soubor nenalezen
0000:312A EBCB           JMP    30F7             ; n vrat s chybou
0000:312C 36C706CD300000*MOV    Word Ptr SS:[30CD],0000
0000:3133 36F606BA3002   TEST   Byte Ptr SS:[30BA],02 ; je funkce 3 ?
0000:3139 7552           JNZ    318D             ; je funkce 3
0000:313B 36C536B630     LDS    SI,SS:[30B6]     ; adresa bloku parametr–
0000:3140 8B04           MOV    AX,[SI]          ; segment prost©ed¡
0000:3142 0BC0           OR     AX,AX            ; je segment zad n ?
0000:3144 7510           JNZ    3156             ; segment je zad n OK
0000:3146 368E1E8B01     MOV    DS,SS:[018B]     ; segment aktivn¡ho PSP
0000:314B A12C00         MOV    AX,[002C]        ; adresa aktivn¡ho prost©ed¡
0000:314E 36A3C930       MOV    SS:[30C9],AX     ; adresa prost©ed¡
0000:3152 0BC0           OR     AX,AX            ; je nˆjak‚ prost©ed¡ ?
0000:3154 7437           JZ     318D             ; nen¡ ‘ dn‚ prost©ed¡
                                               ;* zji¨tˆn¡ velikost prost©ed¡
0000:3156 FC           * CLD                     ; smˆr nahoru
0000:3157 8EC0           MOV    ES,AX            ; segment prost©ed¡
0000:3159 33FF           XOR    DI,DI            ; za‡ tek prost©ed¡
0000:315B B9FF7F         MOV    CX,7FFF          ; max. d‚lka prost©ed¡
0000:315E 32C0           XOR    AL,AL            ; koncov˜ bajt 0
0000:3160 F2           * REPNZ
0000:3161 AE             SCASB                   ; nalezen¡ konce 1 ©etˆzce
0000:3162 7405           JZ     3169             ; ©etˆzec nalezen OK
0000:3164 B00A           MOV    AL,0A            ; chyba - neplatn‚ prost©ed¡
0000:3166 E98E00         JMP    31F7             ; n vrat s chybou
0000:3169 AE           * SCASB                   ; je to posledn¡ ©etˆzec ?
0000:316A 75F4           JNZ    3160             ; nen¡ posledn¡ ©etˆzec - dal¨¡
                                               ;* vytvo©en¡ segmentu prost©ed¡
0000:316C 57             PUSH   DI               ; adresa konce prost©ed¡
0000:316D 8BDF           MOV    BX,DI            ; adresa konce prost©ed¡
0000:316F 83C30F         ADD    BX,+0F           ; zaokrouhlen¡ na odstavec
0000:3172 B104           MOV    CL,04            ; po‡et rotac¡ = 4
0000:3174 D3EB           SHR    BX,CL            ; p©evod na odstavce
0000:3176 06             PUSH   ES
0000:3177 E803E0         CALL   117D             ; p©idˆlen¡ aloka‡n¡ho bloku
0000:317A 1F             POP    DS               ; segment vzorov‚ho prost©ed¡
0000:317B 59             POP    CX               ; velikost prost©ed¡
0000:317C 7303           JNB    3181             ; blok p©idˆlen OK
0000:317E EB71           JMP    31F1             ; chyba p©idˆlen¡ blok pamˆti
0000:3180 90             NOP
                                               ;* kopie prost©ed¡
0000:3181 8EC0         * MOV    ES,AX            ; segment nov‚ho bloku
0000:3183 36A3C930       MOV    SS:[30C9],AX     ; segment nov‚ho prost©ed¡
0000:3187 33F6           XOR    SI,SI            ; po‡ te‡n¡ offset vzoru
0000:3189 33FF           XOR    DI,DI            ; po‡ te‡n¡ offset nov‚ho pros.
0000:318B F3             REPZ
0000:318C A4             MOVSB                   ; p©enos prost©ed¡

0000:318D 16           * PUSH   SS
0000:318E 1F             POP    DS               ; DS <- CS
0000:318F B91E00         MOV    CX,001E          ; velikost z hlav¡ EXE
0000:3192 8B1EBB30       MOV    BX,[30BB]        ; identifik tor souboru
0000:3196 BAD030         MOV    DX,30D0          ; adresa k na‡ten¡ z hlav¡ EXE
0000:3199 06             PUSH   ES
0000:319A 1E             PUSH   DS
0000:319B E87203         CALL   3510
0000:319E E8A40D         CALL   3F45             ; na‡ten¡ z hlav¡ EXE ze soub.
0000:31A1 E87503         CALL   3519
0000:31A4 1F             POP    DS
0000:31A5 07             POP    ES
0000:31A6 724D           JB     31F5             ; chyba ‡ten¡
0000:31A8 3D1E00         CMP    AX,001E          ; souhlas¡ po‡et bajt– ?
0000:31AB 7519           JNZ    31C6             ; je men¨¡ soubor
0000:31AD 833EDC3000     CMP    Word Ptr [30DC],+00
0000:31B2 7505           JNZ    31B9
0000:31B4 C606CF30FF     MOV    Byte Ptr [30CF],FF
0000:31B9 A1D030         MOV    AX,[30D0]        ; prvn¡ 2 znaky programu
0000:31BC 3D4D5A         CMP    AX,5A4D          ; je "MZ" ?
0000:31BF 7408           JZ     31C9             ; je to program EXE
0000:31C1 3D5A4D         CMP    AX,4D5A          ; je "ZM" ?
0000:31C4 7403           JZ     31C9             ; je to program EXE

0000:31C6 E97D01       * JMP    3346             ; nen¡ to program EXE

0000:31C9 A1D430       * MOV    AX,[30D4]        ; d‚lka souboru
0000:31CC B105           MOV    CL,05            ; po‡et rotac¡
0000:31CE D3E0           SHL    AX,CL            ; d‚lka souboru v odstavc¡ch
0000:31D0 2B06D830       SUB    AX,[30D8]        ; ode‡ten¡ velikosti z hlav¡
0000:31D4 A3BF30         MOV    [30BF],AX        ; velikost progr. v odstavc¡ch
0000:31D7 F606BA3002     TEST   Byte Ptr [30BA],02 ; je spu¨tˆn¡ programu ?
0000:31DC 7429           JZ     3207             ; je spu¨tˆn¡ programu
0000:31DE C43EB630       LES    DI,[30B6]        ; ukazatel parametr– EXEC
0000:31E2 268B05         MOV    AX,ES:[DI]       ; adresa segmentu k na‡ten¡
0000:31E5 A3EC30         MOV    [30EC],AX        ; adresa k na‡ten¡ programu
0000:31E8 268B4502       MOV    AX,ES:[DI+02]    ; reloka‡n¡ faktor
0000:31EC A3BD30         MOV    [30BD],AX        ; reloka‡n¡ faktor
0000:31EF EB78           JMP    3269

                                               ;* chyba - nedostatek pamˆti
0000:31F1 B008         * MOV    AL,08            ; chyba - nedostatek pamˆti
0000:31F3 EB02           JMP    31F7             ; n vrat s chybou

                                               ;* chyba - neplatn˜ fotm t EXE
0000:31F5 B00B         * MOV    AL,0B            ; chyba - neplatn˜ form t
0000:31F7 50             PUSH   AX
0000:31F8 368B1EBB30     MOV    BX,SS:[30BB]     ; identifik tor souboru
0000:31FD E81003         CALL   3510
0000:3200 E8A20C         CALL   3EA5             ; uzav©en¡ souboru
0000:3203 58             POP    AX
0000:3204 E94AD7         JMP    0951             ; n vrat z INT 21h s chybou CY

                                               ;* je spu¨tˆn¡ programu
0000:3207 50             PUSH   AX               ; velikost progr. v odstavc¡ch
0000:3208 BBFFFF         MOV    BX,FFFF          ; max. velikost bloku
0000:320B 1E             PUSH   DS
0000:320C E86EDF         CALL   117D             ; p©idˆlen¡ max. bloku pamˆti
0000:320F 1F             POP    DS
0000:3210 58             POP    AX
0000:3211 051000         ADD    AX,0010          ; zaokrouhlen¡ velikosti progr.
0000:3214 83FB11         CMP    BX,+11           ; je men¨¡ pamˆŸ ne‘ 17 bajt– ?
0000:3217 72D8           JB     31F1             ; nedostatek pamˆti
0000:3219 3BC3           CMP    AX,BX            ; je men¨¡ pamˆŸ ne‘ po‘aduje ?
0000:321B 77D4           JA     31F1             ; pamˆŸ nesta‡¡
0000:321D 803ECF3000     CMP    Byte Ptr [30CF],00
0000:3222 7518           JNZ    323C
0000:3224 0306DA30       ADD    AX,[30DA]        ; p©i‡ten¡ minim ln¡ pamˆti
0000:3228 72C7           JB     31F1             ; chyba - nedostatek pamˆti
0000:322A 3BC3           CMP    AX,BX            ; je dost pamˆti ?
0000:322C 77C3           JA     31F1             ; nedostatek pamˆti
0000:322E 2B06DA30       SUB    AX,[30DA]        ; n vrat velikosti programu
0000:3232 0306DC30       ADD    AX,[30DC]        ; p©i‡ten¡ max. pamˆti
0000:3236 7204           JB     323C             ; p©ete‡en¡
0000:3238 3BC3           CMP    AX,BX            ; je men¨¡ ?
0000:323A 7602           JBE    323E             ; je men¨¡
0000:323C 8BC3         * MOV    AX,BX            ; omezen¡ na volnou pamˆŸ
0000:323E 1E           * PUSH   DS
0000:323F 8BD8           MOV    BX,AX            ; po‘adovan  velikost pamˆti
0000:3241 891ECB30       MOV    [30CB],BX        ; velikost p©idˆl. bloku prog.
0000:3245 E835DF         CALL   117D             ; p©idˆlen¡ bloku programu
0000:3248 1F             POP    DS
0000:3249 72A6           JB     31F1             ; chyba - nedostatek pamˆti
0000:324B A3CD30         MOV    [30CD],AX        ; segment PSP programu
0000:324E 051000         ADD    AX,0010          ; za‡ tek segmentu programu
0000:3251 803ECF3000     CMP    Byte Ptr [30CF],00 ; je program COM ?
0000:3256 740B           JZ     3263             ; je program COM
0000:3258 0306CB30       ADD    AX,[30CB]        ; velikost p©idˆl. bloku progr.
0000:325C 2B06BF30       SUB    AX,[30BF]        ; - velikost prog. v odst.
0000:3260 2D1000         SUB    AX,0010          ; ode‡ten¡ PSP
0000:3263 A3BD30       * MOV    [30BD],AX        ; reloka‡n¡ faktor
0000:3266 A3EC30         MOV    [30EC],AX        ; adresa k na‡ten¡ programu

                                               ;* na‡ten¡ programu s relokac¡
0000:3269 8B16D830     * MOV    DX,[30D8]        ; velikost z hlav¡ (odstavce)
0000:326D 52             PUSH   DX
0000:326E B104           MOV    CL,04
0000:3270 D3E2           SHL    DX,CL            ; velikost z hlav¡ (v bajtech)
0000:3272 58             POP    AX
0000:3273 B10C           MOV    CL,0C
0000:3275 D3E8           SHR    AX,CL            ; velikost z hlav¡ (po 64KB)
0000:3277 8BC8           MOV    CX,AX            ; velikost z hlav¡ (po 64KB)
0000:3279 8B1EBB30       MOV    BX,[30BB]        ; identifik tor souboru
0000:327D 1E             PUSH   DS
0000:327E 32C0           XOR    AL,AL
0000:3280 E8180D         CALL   3F9B             ; nastaven¡ na za‡ tek programu
0000:3283 1F             POP    DS

0000:3284 8B1EBF30     * MOV    BX,[30BF]        ; velikost programu v odst.
0000:3288 81FB0010       CMP    BX,1000          ; je > 64 KB ?
0000:328C 7203           JB     3291             ; je men¨¡ ne‘ 64 KB
0000:328E BBE00F         MOV    BX,0FE0          ; omezen¡ velikosti
0000:3291 291EBF30     * SUB    [30BF],BX        ; sn¡‘en¡ velikosti programu
0000:3295 53             PUSH   BX
0000:3296 B104           MOV    CL,04
0000:3298 D3E3           SHL    BX,CL            ; velikost bloku v bajtech
0000:329A 8BCB           MOV    CX,BX            ; velikost bloku v bajtech
0000:329C 8B1EBB30       MOV    BX,[30BB]        ; identifik tor souboru
0000:32A0 1E             PUSH   DS
0000:32A1 8E1EEC30       MOV    DS,[30EC]        ; adresa k na‡ten¡ programu
0000:32A5 33D2           XOR    DX,DX            ; po‡ te‡n¡ offset
0000:32A7 51             PUSH   CX
0000:32A8 E86502         CALL   3510
0000:32AB E8970C         CALL   3F45             ; na‡ten¡ bloku programu
0000:32AE E86802         CALL   3519
0000:32B1 59             POP    CX
0000:32B2 1F             POP    DS
0000:32B3 3BC8           CMP    CX,AX            ; souhlas¡ po‡et na‡ten˜ch dat?
0000:32B5 5B             POP    BX
0000:32B6 750B           JNZ    32C3             ; po‡et dat nesouhlas¡
0000:32B8 011EEC30       ADD    [30EC],BX        ; zv˜¨en¡ adresy programu
0000:32BC 833EBF3000     CMP    Word Ptr [30BF],+00 ; je to program EXE ?
0000:32C1 75C1           JNZ    3284             ; nen¡ to program EXE
0000:32C3 8B0EBD30     * MOV    CX,[30BD]        ; reloka‡n¡ faktor
0000:32C7 A1DE30         MOV    AX,[30DE]        ; rel. faktor SS
0000:32CA 03C1           ADD    AX,CX            ; relokace z sobn¡ku
0000:32CC A3C730         MOV    [30C7],AX        ; adresa SS
0000:32CF A1E030         MOV    AX,[30E0]        ; hodnota SP
0000:32D2 A3C530         MOV    [30C5],AX        ; offset SP
0000:32D5 C406E430       LES    AX,[30E4]        ; adresa CS:IP
0000:32D9 A3C130         MOV    [30C1],AX        ; offset start. resy CS:IP
0000:32DC 8CC0           MOV    AX,ES            ; offset za‡ tku programu
0000:32DE 03C1           ADD    AX,CX            ; relokace start. adresy CS:IP
0000:32E0 A3C330         MOV    [30C3],AX        ; segment start. adresy CS:IP
0000:32E3 33C9           XOR    CX,CX            ; CX <- 0
0000:32E5 8B16E830       MOV    DX,[30E8]        ; offset 1. relok. polo‘ky
0000:32E9 8B1EBB30       MOV    BX,[30BB]        ; identifik tor souboru
0000:32ED 1E             PUSH   DS
0000:32EE 33C0           XOR    AX,AX
0000:32F0 E8A80C         CALL   3F9B             ; nastaven¡ na relok. polo‘ku
0000:32F3 1F             POP    DS
0000:32F4 7303           JNB    32F9
0000:32F6 E9FCFE       * JMP    31F5             ; chyba
0000:32F9 8B16D630       MOV    DX,[30D6]        ; po‡et relok. polo‘ek
0000:32FD 52           * PUSH   DX
0000:32FE BAD030         MOV    DX,30D0          ; adresa k na‡ten¡ polo‘ek
0000:3301 B91C00         MOV    CX,001C          ; na‡ten¡ 7 polo‘ek
0000:3304 368B1EBB30     MOV    BX,SS:[30BB]     ; identifik tor souboru
0000:3309 1E             PUSH   DS
0000:330A E80302         CALL   3510
0000:330D E8350C         CALL   3F45             ; na‡ten¡ 3 relok. polo‘ek
0000:3310 E80602         CALL   3519
0000:3313 07             POP    ES
0000:3314 5A             POP    DX
0000:3315 72DF           JB     32F6             ; chyba
0000:3317 B90700         MOV    CX,0007          ; po‡et polo‘ek k relokaci
0000:331A BFD030         MOV    DI,30D0          ; po‡ te‡n¡ adresa relok. pol.
0000:331D 368B36BD30     MOV    SI,SS:[30BD]     ; reloka‡n¡ faktor
0000:3322 83FA00         CMP    DX,+00           ; jsou ji‘ v¨echny polo‘ky ?
0000:3325 7503           JNZ    332A             ; je¨tˆ nejsou v¨echny
0000:3327 E9B800         JMP    33E2             ; jsou ji‘ v¨echny
0000:332A 26C51D       * LDS    BX,ES:[DI]       ; relokovan  polo‘ka
0000:332D 8CD8           MOV    AX,DS            ; segment za‡ tku programu
0000:332F 03C6           ADD    AX,SI            ; relokace adresy
0000:3331 8ED8           MOV    DS,AX            ; segment relokace
0000:3333 8B07           MOV    AX,[BX]          ; slovo k relokaci
0000:3335 03C6           ADD    AX,SI            ; relokace polo‘ky
0000:3337 8907           MOV    [BX],AX          ; nov  hodnota polo‘ky
0000:3339 83C704         ADD    DI,+04           ; adresa dal¨¡ polo‘ky
0000:333C 4A             DEC    DX               ; sn¡‘en¡ ‡¡ta‡e
0000:333D E2E3           LOOP   3322             ; relokace dal¨¡ polo‘ky
0000:333F 06             PUSH   ES
0000:3340 1F             POP    DS
0000:3341 EBBA           JMP    32FD             ; na‡ten¡ dal¨¡ho bloku

0000:3343 E9ABFE         JMP    31F1             ; chyba - nedostatek pamˆti

0000:3346 36F606BA3002   TEST   Byte Ptr SS:[30BA],02 ; po‘aduje se start ?
0000:334C 740C           JZ     335A             ; po‘aduje se start
0000:334E 36C536B630     LDS    SI,SS:[30B6]     ; ukazatel parametr– EXEC
0000:3353 AD             LODSW                   ; segment k na‡ten¡ programu
0000:3354 36A3EC30       MOV    SS:[30EC],AX     ; segment k na‡ten¡ programu
0000:3358 EB30           JMP    338A

0000:335A BBFFFF         MOV    BX,FFFF
0000:335D E81DDE         CALL   117D             ; p©idˆlen¡ max. bloku
0000:3360 0BDB           OR     BX,BX            ; je nˆjak˜ blok ?
0000:3362 74DF           JZ     3343             ; nedostate‡n  velikost bloku
0000:3364 36891ECB30     MOV    SS:[30CB],BX     ; velikost p©idˆlen‚ho bloku
0000:3369 53             PUSH   BX
0000:336A E810DE         CALL   117D             ; p©idˆlen¡ bloku
0000:336D 5B             POP    BX
0000:336E 36A3CD30       MOV    SS:[30CD],AX     ; segment PSP programu
0000:3372 051000         ADD    AX,0010
0000:3375 36A3EC30       MOV    SS:[30EC],AX     ; segment za‡ tku programu
0000:3379 83EB10         SUB    BX,+10
0000:337C 81FB0010       CMP    BX,1000
0000:3380 7308           JNB    338A
0000:3382 8BC3           MOV    AX,BX
0000:3384 B104           MOV    CL,04
0000:3386 D3E0           SHL    AX,CL
0000:3388 EB03           JMP    338D

0000:338A B8FFFF         MOV    AX,FFFF
0000:338D 50             PUSH   AX
0000:338E 368B1EBB30     MOV    BX,SS:[30BB]
0000:3393 33C9           XOR    CX,CX
0000:3395 8BD1           MOV    DX,CX
0000:3397 33C0           XOR    AX,AX
0000:3399 E8FF0B         CALL   3F9B             ; p©em¡stˆn¡ ukazatele souboru
0000:339C 368B1EBB30     MOV    BX,SS:[30BB]
0000:33A1 59             POP    CX
0000:33A2 368E1EEC30     MOV    DS,SS:[30EC]     ; segment za‡ tku programu
0000:33A7 33D2           XOR    DX,DX            ; po‡ te‡n¡ offset k na‡ten¡
0000:33A9 51             PUSH   CX
0000:33AA E86301         CALL   3510
0000:33AD E8950B         CALL   3F45             ; na‡ten¡ bloku programu
0000:33B0 E86601         CALL   3519
0000:33B3 5E             POP    SI
0000:33B4 3BC6           CMP    AX,SI
0000:33B6 748B           JZ     3343
0000:33B8 36F606BA3002   TEST   Byte Ptr SS:[30BA],02
0000:33BE 7522           JNZ    33E2
0000:33C0 36A1EC30       MOV    AX,SS:[30EC]
0000:33C4 2D1000         SUB    AX,0010
0000:33C7 36A3C330       MOV    SS:[30C3],AX
0000:33CB 36C706C1300001 MOV    Word Ptr SS:[30C1],0100
0000:33D2 4E             DEC    SI
0000:33D3 368936C530     MOV    SS:[30C5],SI
0000:33D8 36A3C730       MOV    SS:[30C7],AX
0000:33DC 8ED8           MOV    DS,AX
0000:33DE C7040000       MOV    Word Ptr [SI],0000
0000:33E2 368B1EBB30     MOV    BX,SS:[30BB]
0000:33E7 E82601         CALL   3510
0000:33EA E8B80A         CALL   3EA5             ; uzav©en¡ souboru
0000:33ED E82901         CALL   3519
0000:33F0 36F606BA3002   TEST   Byte Ptr SS:[30BA],02
0000:33F6 7403           JZ     33FB
0000:33F8 E94CD5         JMP    0947             ; n vrat z INT 21h s funkc¡ OK

0000:33FB 368B16CD30     MOV    DX,SS:[30CD]
0000:3400 BE0100         MOV    SI,0001
0000:3403 36A1C930       MOV    AX,SS:[30C9]
0000:3407 0BC0           OR     AX,AX
0000:3409 7405           JZ     3410
0000:340B 48             DEC    AX
0000:340C 8ED8           MOV    DS,AX
0000:340E 8914           MOV    [SI],DX
0000:3410 36A1CD30       MOV    AX,SS:[30CD]
0000:3414 48             DEC    AX
0000:3415 8ED8           MOV    DS,AX
0000:3417 8914           MOV    [SI],DX
0000:3419 52             PUSH   DX
0000:341A 36C6068D01FF   MOV    Byte Ptr SS:[018D],FF
0000:3420 E8C1D7         CALL   0BE4             ; vytvo©en¡ PSP podle aktivn¡ho
0000:3423 5A             POP    DX
0000:3424 36FF36C930     PUSH   SS:[30C9]
0000:3429 268F062C00     POP    ES:[002C]
0000:342E 368B36CB30     MOV    SI,SS:[30CB]
0000:3433 03F2           ADD    SI,DX
0000:3435 2689360200     MOV    ES:[0002],SI
0000:343A 36C536B630     LDS    SI,SS:[30B6]
0000:343F 1E             PUSH   DS
0000:3440 56             PUSH   SI
0000:3441 C57406         LDS    SI,[SI+06]
0000:3444 B90C00         MOV    CX,000C
0000:3447 51             PUSH   CX
0000:3448 BF5C00         MOV    DI,005C
0000:344B 8A1C           MOV    BL,[SI]
0000:344D F3             REPZ
0000:344E A4             MOVSB
0000:344F 33C0           XOR    AX,AX
0000:3451 AB             STOSW
0000:3452 AB             STOSW
0000:3453 59             POP    CX
0000:3454 5E             POP    SI
0000:3455 1F             POP    DS
0000:3456 1E             PUSH   DS
0000:3457 56             PUSH   SI
0000:3458 C5740A         LDS    SI,[SI+0A]
0000:345B BF6C00         MOV    DI,006C
0000:345E 8A3C           MOV    BH,[SI]
0000:3460 F3             REPZ
0000:3461 A4             MOVSB
0000:3462 AB             STOSW
0000:3463 AB             STOSW
0000:3464 5E             POP    SI
0000:3465 1F             POP    DS
0000:3466 C57402         LDS    SI,[SI+02]
0000:3469 B98000         MOV    CX,0080
0000:346C 8BF9           MOV    DI,CX
0000:346E F3             REPZ
0000:346F A4             MOVSB
0000:3470 FEC9           DEC    CL
0000:3472 363A3E0001     CMP    BH,SS:[0100]     ; po‡et instalovan˜ch log.disk–
0000:3477 7604           JBE    347D
0000:3479 8AF9           MOV    BH,CL
0000:347B EB02           JMP    347F
0000:347D 32FF           XOR    BH,BH
0000:347F 363A1E0001     CMP    BL,SS:[0100]     ; po‡et instalovan˜ch log.disk–
0000:3484 7604           JBE    348A
0000:3486 8AD9           MOV    BL,CL
0000:3488 EB02           JMP    348C
0000:348A 32DB           XOR    BL,BL
0000:348C E853D3         CALL   07E2             ; nastaven¡ ukazat. na registry
0000:348F FF7414         PUSH   [SI+14]
0000:3492 FF7412         PUSH   [SI+12]
0000:3495 FF7414         PUSH   [SI+14]
0000:3498 FF7412         PUSH   [SI+12]
0000:349B 268F060A00     POP    ES:[000A]
0000:34A0 268F060C00     POP    ES:[000C]
0000:34A5 33C0           XOR    AX,AX
0000:34A7 8ED8           MOV    DS,AX
0000:34A9 8F068800       POP    [0088]
0000:34AD 8F068A00       POP    [008A]
0000:34B1 36C706DF008000 MOV    Word Ptr SS:[00DF],0080 ; adresa diskov˜ch p©enos– DTA
0000:34B8 368E1E8B01     MOV    DS,SS:[018B]     ; segment aktivn¡ho PSP
0000:34BD 368C1EE100     MOV    SS:[00E1],DS
0000:34C2 36F606BA3001   TEST   Byte Ptr SS:[30BA],01
0000:34C8 7426           JZ     34F0
0000:34CA 36C536C530     LDS    SI,SS:[30C5]
0000:34CF 36C43EB630     LES    DI,SS:[30B6]
0000:34D4 268C5D10       MOV    ES:[DI+10],DS
0000:34D8 4E             DEC    SI
0000:34D9 4E             DEC    SI
0000:34DA 891C           MOV    [SI],BX
0000:34DC 2689750E       MOV    ES:[DI+0E],SI
0000:34E0 36C506C130     LDS    AX,SS:[30C1]
0000:34E5 268C5D14       MOV    ES:[DI+14],DS
0000:34E9 26894512       MOV    ES:[DI+12],AX
0000:34ED E957D4         JMP    0947             ; n vrat z INT 21h s funkc¡ OK
0000:34F0 36C536C130     LDS    SI,SS:[30C1]
0000:34F5 FA             CLI
0000:34F6 36C606230100   MOV    Byte Ptr SS:[0123],00 ; p©¡znak obsluhy DOS
0000:34FC 368E16C730     MOV    SS,SS:[30C7]
0000:3501 2E8B26C530     MOV    SP,CS:[30C5]
0000:3506 FB             STI
0000:3507 1E             PUSH   DS
0000:3508 56             PUSH   SI
0000:3509 8EC2           MOV    ES,DX
0000:350B 8EDA           MOV    DS,DX
0000:350D 8BC3           MOV    AX,BX
0000:350F CB             RETF
; -----------------------------------------------------------------------------

0000:3510 53             PUSH   BX
0000:3511 BB0000         MOV    BX,0000
0000:3514 E80D00         CALL   3524
0000:3517 5B             POP    BX
0000:3518 C3             RET

0000:3519 53             PUSH   BX
0000:351A 2E8B1E8B01     MOV    BX,CS:[018B]     ; segment aktivn¡ho PSP
0000:351F E80200         CALL   3524
0000:3522 5B             POP    BX
0000:3523 C3             RET

0000:3524 1E             PUSH   DS
0000:3525 50             PUSH   AX
0000:3526 2EA1C930       MOV    AX,CS:[30C9]
0000:352A 0BC0           OR     AX,AX
0000:352C 7407           JZ     3535
0000:352E 48             DEC    AX
0000:352F 8ED8           MOV    DS,AX
0000:3531 891E0100       MOV    [0001],BX
0000:3535 2EA1CD30     * MOV    AX,CS:[30CD]
0000:3539 0BC0           OR     AX,AX
0000:353B 7407           JZ     3544
0000:353D 48             DEC    AX
0000:353E 8ED8           MOV    DS,AX
0000:3540 891E0100       MOV    [0001],BX
0000:3544 58             POP    AX
0000:3545 1F             POP    DS
0000:3546 C3             RET
; -----------------------------------------------------------------------------
;         Slu‘ba 31h - ukon‡en¡ programu jako rezidentn¡
; -----------------------------------------------------------------------------
0000:3547 50             PUSH   AX
0000:3548 36C606840403   MOV    Byte Ptr SS:[0484],03
0000:354E 368E068B01     MOV    ES,SS:[018B]     ; segment aktivn¡ho PSP
0000:3553 83FA06         CMP    DX,+06
0000:3556 7303           JNB    355B
0000:3558 BA0600         MOV    DX,0006
0000:355B 8BDA           MOV    BX,DX
0000:355D 53             PUSH   BX
0000:355E 06             PUSH   ES
0000:355F E808DD         CALL   126A
0000:3562 1F             POP    DS
0000:3563 5B             POP    BX
0000:3564 7207           JB     356D
0000:3566 8CD8           MOV    AX,DS
0000:3568 03C3           ADD    AX,BX
0000:356A A30200         MOV    [0002],AX
0000:356D 58             POP    AX
0000:356E EB24           JMP    3594

; -----------------------------------------------------------------------------
;         Obsluha INT 27h
; -----------------------------------------------------------------------------
0000:3570 B80031         MOV    AX,3100          ; slu‘ba ponech n¡ rezidentn¡m
0000:3573 83C20F         ADD    DX,+0F           ; zaokrouhlen¡ na odstavec
0000:3576 B104           MOV    CL,04
0000:3578 D3EA           SHR    DX,CL            ; p©epo‡et na segment
0000:357A E94ED1         JMP    06CB             ; obsluha INT 21h
; -----------------------------------------------------------------------------
;         Slu‘ba 4ch - ukon‡en¡ programu s n vratov˜m k¢dem
; -----------------------------------------------------------------------------
0000:357D 32E4           XOR    AH,AH
0000:357F 368626D600     XCHG   AH,SS:[00D6]
0000:3584 0AE4           OR     AH,AH
0000:3586 36C606840400   MOV    Byte Ptr SS:[0484],00
0000:358C 7406           JZ     3594
0000:358E 36C606840401   MOV    Byte Ptr SS:[0484],01
0000:3594 E84BD2         CALL   07E2             ; nastaven¡ ukazat. na registry
0000:3597 36FF368B01     PUSH   SS:[018B]        ; segment aktivn¡ho PSP
0000:359C 8F4414         POP    [SI+14]
0000:359F E973D4         JMP    0A15

; -----------------------------------------------------------------------------
;         Slu‘ba 01h - vstup znaku z kl vesnice s echem
; -----------------------------------------------------------------------------
0000:35A2 E8D000         CALL   3675
0000:35A5 50             PUSH   AX
0000:35A6 E80400         CALL   35AD
0000:35A9 58             POP    AX
0000:35AA C3             RET
; -----------------------------------------------------------------------------
;         Slu‘ba 02h - v˜stup znaku na displej
; -----------------------------------------------------------------------------
0000:35AB 8AC2           MOV    AL,DL            ; znak k zobrazen¡
                                               ;* zobrazen¡ znaku AL
0000:35AD 3C20           CMP    AL,20                         ;' '
0000:35AF 7243           JB     35F4
0000:35B1 3C7F           CMP    AL,7F
0000:35B3 7405           JZ     35BA
0000:35B5 36FE06D800     INC    Byte Ptr SS:[00D8]
0000:35BA 1E             PUSH   DS
0000:35BB 56             PUSH   SI
0000:35BC 36FE06DE00     INC    Byte Ptr SS:[00DE]
0000:35C1 368026DE0003   AND    Byte Ptr SS:[00DE],03
0000:35C7 7505           JNZ    35CE
0000:35C9 50             PUSH   AX
0000:35CA E8AFF6         CALL   2C7C
0000:35CD 58             POP    AX
0000:35CE E8BCD5         CALL   0B8D
0000:35D1 5E             POP    SI
0000:35D2 1F             POP    DS
0000:35D3 36F606DA00FF   TEST   Byte Ptr SS:[00DA],FF ; bit 0: p©¡znak ^P
0000:35D9 74CF           JZ     35AA
0000:35DB 53             PUSH   BX
0000:35DC 1E             PUSH   DS
0000:35DD 56             PUSH   SI
0000:35DE BB0100         MOV    BX,0001
0000:35E1 E8A0E6         CALL   1C84             ; nalezen¡ popisova‡e souboru
0000:35E4 720C           JB     35F2
0000:35E6 F6441880       TEST   Byte Ptr [SI+18],80
0000:35EA 7406           JZ     35F2
0000:35EC BB0400         MOV    BX,0004
0000:35EF EB7D           JMP    366E
0000:35F1 C3             RET

0000:35F2 EB7D           JMP    3671
0000:35F4 3C0D           CMP    AL,0D
0000:35F6 7420           JZ     3618
0000:35F8 3C08           CMP    AL,08
0000:35FA 7426           JZ     3622
0000:35FC 3C09           CMP    AL,09
0000:35FE 75BA           JNZ    35BA
0000:3600 36A0D800       MOV    AL,SS:[00D8]
0000:3604 0CF8           OR     AL,F8
0000:3606 F6D8           NEG    AL
0000:3608 51             PUSH   CX
0000:3609 8AC8           MOV    CL,AL
0000:360B B500           MOV    CH,00
0000:360D E307           JCXZ   3616
0000:360F B020           MOV    AL,20                         ;' '
0000:3611 E899FF         CALL   35AD             ;* v˜stup znaku AL na displej
0000:3614 E2F9           LOOP   360F
0000:3616 59             POP    CX
0000:3617 C3             RET

0000:3618 36C606D80000   MOV    Byte Ptr SS:[00D8],00
0000:361E EB9A           JMP    35BA
0000:3620 EB8B           JMP    35AD            ;* v˜stup znaku AL na displej
0000:3622 36FE0ED800     DEC    Byte Ptr SS:[00D8]
0000:3627 EB91           JMP    35BA
                                               ;* zobrazen¡ ©¡dic¡ho znaku s ^
0000:3629 3C20           CMP    AL,20                         ;' '
0000:362B 73F3           JNB    3620
0000:362D 3C09           CMP    AL,09
0000:362F 74EF           JZ     3620
0000:3631 50             PUSH   AX
0000:3632 B05E           MOV    AL,5E                         ;'^'
0000:3634 E876FF         CALL   35AD             ;* v˜stup znaku AL na displej
0000:3637 58             POP    AX
0000:3638 0C40           OR     AL,40                         ;'@'
0000:363A E870FF         CALL   35AD             ;* v˜stup znaku AL na displej
0000:363D C3             RET
; -----------------------------------------------------------------------------
;         Slu‘ba 03h - vstup znaku z p©¡davn‚ho za©¡zen¡ AUX
; -----------------------------------------------------------------------------
0000:363E E83BF6         CALL   2C7C
0000:3641 BB0300         MOV    BX,0003
0000:3644 E83DE6         CALL   1C84             ; nalezen¡ popisova‡e souboru
0000:3647 72F4           JB     363D
0000:3649 EB03           JMP    364E
0000:364B E819F6         CALL   2C67             ; obsluha ‡ek n¡ - INT 28h
0000:364E B401           MOV    AH,01            ; funkce testu stavu vstupu
0000:3650 E86BDC         CALL   12BE             ; obsluha funkc¡ konzoly
0000:3653 74F6           JZ     364B
0000:3655 32E4           XOR    AH,AH            ; funkce vstupu z konzoly
0000:3657 E864DC         CALL   12BE             ; obsluha funkc¡ konzoly
0000:365A C3             RET
; -----------------------------------------------------------------------------
;         Slu‘ba 04h - v˜stup znaku na p©¡davn‚ za©¡zen¡ AUX
; -----------------------------------------------------------------------------
0000:365B 53             PUSH   BX
0000:365C BB0300         MOV    BX,0003
0000:365F EB04           JMP    3665
; -----------------------------------------------------------------------------
;         Slu‘ba 05h - v˜stup znaku na tiskov‚ za©¡zen¡
; -----------------------------------------------------------------------------
0000:3661 53             PUSH   BX
0000:3662 BB0400         MOV    BX,0004
0000:3665 8AC2           MOV    AL,DL
0000:3667 50             PUSH   AX
0000:3668 E811F6         CALL   2C7C
0000:366B 58             POP    AX
0000:366C 1E             PUSH   DS
0000:366D 56             PUSH   SI
0000:366E E842D5         CALL   0BB3
0000:3671 5E             POP    SI
0000:3672 1F             POP    DS
0000:3673 5B             POP    BX
0000:3674 C3             RET
; -----------------------------------------------------------------------------
;         Slu‘ba 08h - vstup znaku z konzoly bez echa
; -----------------------------------------------------------------------------
0000:3675 1E             PUSH   DS
0000:3676 56             PUSH   SI
0000:3677 E802F6         CALL   2C7C
0000:367A 74FB           JZ     3677
0000:367C 32E4           XOR    AH,AH            ; funkce vstupu z konzoly
0000:367E E83DDC         CALL   12BE             ; obsluha funkc¡ konzoly
0000:3681 5E             POP    SI
0000:3682 1F             POP    DS
0000:3683 C3             RET
; -----------------------------------------------------------------------------
;         Slu‘ba 09h - v˜stup textov‚ho ©etˆzce
; -----------------------------------------------------------------------------
0000:3684 8BF2           MOV    SI,DX
0000:3686 AC             LODSB
0000:3687 3C24           CMP    AL,24                         ;'$'
0000:3689 74F8           JZ     3683
0000:368B E81FFF         CALL   35AD             ;* v˜stup znaku AL na displej
0000:368E EBF6           JMP    3686
; -----------------------------------------------------------------------------
;         Slu‘ba 0ah - vstup textu ze vstupn¡ho za©¡zen¡
; -----------------------------------------------------------------------------
0000:3690 8CD0           MOV    AX,SS
0000:3692 8EC0           MOV    ES,AX                      ; SS -> ES (£schova)
0000:3694 8BF2           MOV    SI,DX                 ; DX -> SI adr.vst.bufferu
0000:3696 32ED           XOR    CH,CH
0000:3698 AD             LODSW                        ; max.a skute‡.po‡et znak–
0000:3699 0AC0           OR     AL,AL                 ; nenul.d‚lka bufferu ?
0000:369B 74E6           JZ     3683   ;(ret)         ; d‚lka bufferu 0 - konec
0000:369D 8ADC           MOV    BL,AH                 ; BL-po‡et zadan˜ch znak–
0000:369F 8AFD           MOV    BH,CH                 ;
0000:36A1 3AC3           CMP    AL,BL                 ; zad n max.po‡et znak– ?
0000:36A3 7605           JBE    36AA (N1)             ; ne - m–‘eme p©evz¡t
0000:36A5 80380D         CMP    Byte Ptr [BX+SI],0D   ; je zadan˜ znak CR ?
0000:36A8 7402           JZ     36AC (N2)             ; ano
0000:36AA 8ADD     N1:   MOV    BL,CH
0000:36AC 8AD0     N2:   MOV    DL,AL
0000:36AE 4A             DEC    DX
0000:36AF 36A0D800 N12:  MOV    AL,SS:[00D8]
0000:36B3 36A2D900       MOV    SS:[00D9],AL          ; SS:[00D8] -> SS:[00D9]
0000:36B7 56             PUSH   SI
0000:36B8 BFE002         MOV    DI,02E0
0000:36BB 36882E2E04     MOV    SS:[042E],CH
0000:36C0 8AFD           MOV    BH,CH
0000:36C2 8AF5           MOV    DH,CH
0000:36C4 E8AEFF         CALL   3675               ; vstup znaku z konz.bez echa
0000:36C7 3C0A           CMP    AL,0A              ; LF
0000:36C9 7503           JNZ    36CE (N3)
0000:36CB E8A7FF   N4:   CALL   3675           ;* vstup znaku z konz.bez echa
0000:36CE 3C06     N3:   CMP    AL,06              ; ACK
0000:36D0 74F9           JZ     36CB (N4)
0000:36D2 363A069F09     CMP    AL,SS:[099F]
0000:36D7 7438           JZ     3711 (N5)
0000:36D9 3C7F           CMP    AL,7F
0000:36DB 742B           JZ     3708 (N6)
0000:36DD 3C08           CMP    AL,08              ; BS
0000:36DF 7427           JZ     3708 (N6)
0000:36E1 3C0D           CMP    AL,0D              ; CR
0000:36E3 742F           JZ     3714 (N7)
0000:36E5 3C0A           CMP    AL,0A              ; LF
0000:36E7 744F           JZ     3738 (N8)
0000:36E9 3C1B           CMP    AL,1B              ; Esc
0000:36EB 7450           JZ     373D (N9)
0000:36ED 3AF2    N23:   CMP    DH,DL
0000:36EF 7319           JNB    370A (N10)
0000:36F1 AA             STOSB                     ; ulo‘en¡ znaku do bufferu
0000:36F2 FEC6           INC    DH                 ; zv˜¨en¡ ‡¡ta‡e znak–
0000:36F4 E832FF         CALL   3629             ; zobrazen¡ ©¡dic¡ho znaku s ^
0000:36F7 36803E2E0400   CMP    Byte Ptr SS:[042E],00
0000:36FD 75CC           JNZ    36CB (N4)
0000:36FF 3AFB           CMP    BH,BL
0000:3701 73C8           JNB    36CB (N4)
0000:3703 46             INC    SI
0000:3704 FEC7           INC    BH
0000:3706 EBC3           JMP    36CB (N4)
0000:3708 EB46     N6:   JMP    3750 (N11)
0000:370A B007     N10:  MOV    AL,07
0000:370C E89EFE         CALL   35AD             ;* v˜stup znaku AL na displej
0000:370F EBBA           JMP    36CB (N4)
0000:3711 E9B3D2   N5:   JMP    09C7             ;
0000:3714 AA       N7:   STOSB
0000:3715 E895FE         CALL   35AD             ;* v˜stup znaku AL na displej
0000:3718 5F             POP    DI
0000:3719 8875FF         MOV    [DI-01],DH
0000:371C FEC6           INC    DH
0000:371E 8CC5           MOV    BP,ES
0000:3720 8CDB           MOV    BX,DS
0000:3722 8EC3           MOV    ES,BX
0000:3724 8EDD           MOV    DS,BP
0000:3726 BEE002         MOV    SI,02E0
0000:3729 8ACE           MOV    CL,DH
0000:372B F3             REPZ
0000:372C A4             MOVSB
0000:372D C3             RET

                                               ;* zobrazen¡ od© dkov n¡ CR LF
0000:372E B00D           MOV    AL,0D
0000:3730 E87AFE         CALL   35AD             ;* v˜stup znaku AL na displej
0000:3733 B00A           MOV    AL,0A
0000:3735 E975FE         JMP    35AD             ;* v˜stup znaku AL na displej

0000:3738 E8F3FF   N8:   CALL   372E             ; zobrazen¡ od© dkov n¡ CR LF
0000:373B EB8E           JMP    36CB (N4)
0000:373D B05C     N9:   MOV    AL,5C            ; Esc        ;'\'
0000:373F E86BFE         CALL   35AD             ;* v˜stup znaku AL na displej
0000:3742 5E             POP    SI
0000:3743 E8E8FF         CALL   372E             ; zobrazen¡ od© dkov n¡ CR LF
0000:3746 36A0D900       MOV    AL,SS:[00D9]
0000:374A E8BBFE         CALL   3608             ; nˆco ve v˜stupu znaku na disp
0000:374D E95FFF         JMP    36AF (N12)
0000:3750 0AF6     N11:  OR     DH,DH
0000:3752 7411           JZ     3765 (N13)
0000:3754 E85200         CALL   37A9 (N14)
0000:3757 268A05         MOV    AL,ES:[DI]
0000:375A 3C20           CMP    AL,20                         ;' '
0000:375C 7307           JNB    3765 (N13)
0000:375E 3C09           CMP    AL,09
0000:3760 7415           JZ     3777 (N15)
0000:3762 E84700         CALL   37AC (N16)
0000:3765 36803E2E0400 N13:CMP    Byte Ptr SS:[042E],00
0000:376B 7507           JNZ    3774 (N17)
0000:376D 0AFF           OR     BH,BH
0000:376F 7403           JZ     3774 (N17)
0000:3771 FECF           DEC    BH
0000:3773 4E             DEC    SI
0000:3774 E954FF   N17:  JMP    36CB (N4)
0000:3777 57       N15:  PUSH   DI
0000:3778 4F             DEC    DI
0000:3779 FD             STD
0000:377A 8ACE           MOV    CL,DH
0000:377C B020           MOV    AL,20                         ;' '
0000:377E 53             PUSH   BX
0000:377F B307           MOV    BL,07
0000:3781 E30E           JCXZ   3791 (N18)
0000:3783 AE       N21:  SCASB
0000:3784 7609           JBE    378F (N19)
0000:3786 26807D0109     CMP    Byte Ptr ES:[DI+01],09
0000:378B 7409           JZ     3796 (N20)
0000:378D FECB           DEC    BL
0000:378F E2F2       N19:LOOP   3783 (N21)
0000:3791 362A1ED900 N18:SUB    BL,SS:[00D9]
0000:3796 2ADE       N20:SUB    BL,DH
0000:3798 02CB           ADD    CL,BL
0000:379A 80E107         AND    CL,07
0000:379D FC             CLD
0000:379E 5B             POP    BX
0000:379F 5F             POP    DI
0000:37A0 74C3           JZ     3765 (N13)
0000:37A2 E80700  N22:   CALL   37AC (N16)
0000:37A5 E2FB           LOOP   37A2 (N22)
0000:37A7 EBBC           JMP    3765 (N13)
0000:37A9 FECE    N14:   DEC    DH
0000:37AB 4F             DEC    DI
0000:37AC B008    N16:   MOV    AL,08
0000:37AE E8FCFD         CALL   35AD             ;* v˜stup znaku AL na displej
0000:37B1 B020           MOV    AL,20                         ;' '
0000:37B3 E8F7FD         CALL   35AD             ;* v˜stup znaku AL na displej
0000:37B6 B008           MOV    AL,08
0000:37B8 E9F2FD         JMP    35AD             ;* v˜stup znaku AL na displej
0000:37BB 36A09F09       MOV    AL,SS:[099F]
0000:37BF E92BFF         JMP    36ED (N23)
0000:37C2 8ACB           MOV    CL,BL
0000:37C4 2ACF           SUB    CL,BH
0000:37C6 EB07           JMP    37CF
0000:37C8 E83400         CALL   37FF
0000:37CB EB02           JMP    37CF
0000:37CD B101           MOV    CL,01
0000:37CF 36C6062E0400   MOV    Byte Ptr SS:[042E],00
0000:37D5 3AF2           CMP    DH,DL
0000:37D7 740F           JZ     37E8
0000:37D9 3AFB           CMP    BH,BL
0000:37DB 740B           JZ     37E8
0000:37DD AC             LODSB
0000:37DE AA             STOSB
0000:37DF E847FE         CALL   3629             ; zobrazen¡ ©¡dic¡ho znaku s ^
0000:37E2 FEC7           INC    BH
0000:37E4 FEC6           INC    DH
0000:37E6 E2E7           LOOP   37CF
0000:37E8 E9E0FE         JMP    36CB
0000:37EB 3AFB           CMP    BH,BL
0000:37ED 74F9           JZ     37E8
0000:37EF FEC7           INC    BH
0000:37F1 46             INC    SI
0000:37F2 E9D6FE         JMP    36CB
0000:37F5 E80700         CALL   37FF
0000:37F8 03F1           ADD    SI,CX
0000:37FA 02F9           ADD    BH,CL
0000:37FC E9CCFE         JMP    36CB
0000:37FF E873FE         CALL   3675             ; vstup znaku z konz.bez echa
0000:3802 363A069F09     CMP    AL,SS:[099F]
0000:3807 7506           JNZ    380F
0000:3809 E869FE         CALL   3675             ; vstup znaku z konz.bez echa
0000:380C EB1E           JMP    382C
0000:380E 90             NOP
0000:380F 8ACB           MOV    CL,BL
0000:3811 2ACF           SUB    CL,BH
0000:3813 7417           JZ     382C
0000:3815 49             DEC    CX
0000:3816 7414           JZ     382C
0000:3818 06             PUSH   ES
0000:3819 1E             PUSH   DS
0000:381A 07             POP    ES
0000:381B 57             PUSH   DI
0000:381C 8BFE           MOV    DI,SI
0000:381E 47             INC    DI
0000:381F F2             REPNZ
0000:3820 AE             SCASB
0000:3821 5F             POP    DI
0000:3822 07             POP    ES
0000:3823 7507           JNZ    382C
0000:3825 F6D1           NOT    CL
0000:3827 02CB           ADD    CL,BL
0000:3829 2ACF           SUB    CL,BH
0000:382B C3             RET

0000:382C 5D             POP    BP
0000:382D E99BFE         JMP    36CB
0000:3830 B040           MOV    AL,40                         ;'@'
0000:3832 E878FD         CALL   35AD             ;* v˜stup znaku AL na displej
0000:3835 5F             POP    DI
0000:3836 57             PUSH   DI
0000:3837 06             PUSH   ES
0000:3838 1E             PUSH   DS
0000:3839 E8E2FE         CALL   371E
0000:383C 1F             POP    DS
0000:383D 07             POP    ES
0000:383E 5E             POP    SI
0000:383F 8ADE           MOV    BL,DH
0000:3841 E9FFFE         JMP    3743
0000:3844 36F6162E04     NOT    Byte Ptr SS:[042E]
0000:3849 E97FFE         JMP    36CB
0000:384C B01A           MOV    AL,1A
0000:384E E99CFE         JMP    36ED
; -----------------------------------------------------------------------------
;         Slu‘ba 0bh - test stavu standardn¡ho vstupu
; -----------------------------------------------------------------------------
0000:3851 E828F4         CALL   2C7C
0000:3854 B000           MOV    AL,00
0000:3856 74D3           JZ     382B
0000:3858 0CFF           OR     AL,FF
0000:385A C3             RET
; -----------------------------------------------------------------------------
;         Slu‘ba 0ch - vymaz n¡ vstupn¡ho bufferu a proveden¡ funkce
; -----------------------------------------------------------------------------
0000:385B 50             PUSH   AX
0000:385C 52             PUSH   DX
0000:385D 33DB           XOR    BX,BX
0000:385F E822E4         CALL   1C84             ; nalezen¡ popisova‡e souboru
0000:3862 7205           JB     3869
0000:3864 B404           MOV    AH,04            ; funkce vypr zdnˆn¡ vstupu
0000:3866 E855DA         CALL   12BE             ; obsluha funkc¡ konzoly
0000:3869 5A             POP    DX
0000:386A 58             POP    AX
0000:386B 8AE0           MOV    AH,AL
0000:386D 3C01           CMP    AL,01
0000:386F 7413           JZ     3884
0000:3871 3C06           CMP    AL,06
0000:3873 740F           JZ     3884
0000:3875 3C07           CMP    AL,07
0000:3877 740B           JZ     3884
0000:3879 3C08           CMP    AL,08
0000:387B 7407           JZ     3884
0000:387D 3C0A           CMP    AL,0A
0000:387F 7403           JZ     3884
0000:3881 B000           MOV    AL,00
0000:3883 C3             RET

0000:3884 FA             CLI
0000:3885 E9A6CE         JMP    072E
0000:3888 51             PUSH   CX
0000:3889 06             PUSH   ES
0000:388A E82000         CALL   38AD
0000:388D 07             POP    ES
0000:388E D0E1           SHL    CL,1
0000:3890 D0E1           SHL    CL,1
0000:3892 D1E1           SHL    CX,1
0000:3894 D1E1           SHL    CX,1
0000:3896 D1E1           SHL    CX,1
0000:3898 D0EE           SHR    DH,1
0000:389A 0ACE           OR     CL,DH
0000:389C 8BD1           MOV    DX,CX
0000:389E A11A01         MOV    AX,[011A]
0000:38A1 B104           MOV    CL,04
0000:38A3 D2E0           SHL    AL,CL
0000:38A5 D1E0           SHL    AX,1
0000:38A7 59             POP    CX
0000:38A8 0A061901       OR     AL,[0119]
0000:38AC C3             RET
; -----------------------------------------------------------------------------
;                 Zji¨tˆn¡ aktu ln¡ho data a ‡asu
; -----------------------------------------------------------------------------
0000:38AD 56             PUSH   SI
0000:38AE 53             PUSH   BX
0000:38AF BBE303         MOV    BX,03E3          ; buffer k ulo‘en¡ informac¡
0000:38B2 B90600         MOV    CX,0006          ; po‡et bajt– ke ‡ten¡
0000:38B5 33D2           XOR    DX,DX            ; DX <- 0
0000:38B7 8BC2           MOV    AX,DX            ; AX <- 0
0000:38B9 E8BBDB         CALL   1477             ; z hlav¡ za©¡zen¡ pro ‡ten¡
0000:38BC 1E             PUSH   DS
0000:38BD C536F800       LDS    SI,[00F8]        ; adresa z hlav¡ za©¡zen¡ CLOCK
0000:38C1 E82DDB         CALL   13F1             ; vol n¡ obsluhy za©¡zen¡ DS:SI
0000:38C4 1F             POP    DS
0000:38C5 5B             POP    BX
0000:38C6 5E             POP    SI
0000:38C7 A1E303         MOV    AX,[03E3]        ;
0000:38CA 8B0EE503       MOV    CX,[03E5]
0000:38CE 8B16E703       MOV    DX,[03E7]
0000:38D2 3B061D01       CMP    AX,[011D]
0000:38D6 7442           JZ     391A
0000:38D8 3D36AB         CMP    AX,AB36
0000:38DB 733D           JNB    391A
0000:38DD A31D01         MOV    [011D],AX
0000:38E0 56             PUSH   SI
0000:38E1 51             PUSH   CX
0000:38E2 52             PUSH   DX
0000:38E3 33D2           XOR    DX,DX
0000:38E5 B9B505         MOV    CX,05B5
0000:38E8 F7F1           DIV    CX
0000:38EA D1E0           SHL    AX,1
0000:38EC D1E0           SHL    AX,1
0000:38EE D1E0           SHL    AX,1
0000:38F0 8BC8           MOV    CX,AX
0000:38F2 BE7301         MOV    SI,0173
0000:38F5 E82300         CALL   391B
0000:38F8 D1E9           SHR    CX,1
0000:38FA 7304           JNB    3900
0000:38FC 81C2C800       ADD    DX,00C8
0000:3900 E82400         CALL   3927
0000:3903 B101           MOV    CL,01
0000:3905 BE7B01         MOV    SI,017B
0000:3908 E81000         CALL   391B
0000:390B 880E1A01       MOV    [011A],CL
0000:390F 42             INC    DX
0000:3910 88161901       MOV    [0119],DL
0000:3914 E89200         CALL   39A9
0000:3917 5A             POP    DX
0000:3918 59             POP    CX
0000:3919 5E             POP    SI
0000:391A C3           * RET

0000:391B B400           MOV    AH,00
0000:391D AC             LODSB
0000:391E 3BD0           CMP    DX,AX
0000:3920 7215           JB     3937
0000:3922 2BD0           SUB    DX,AX
0000:3924 41             INC    CX
0000:3925 EBF6           JMP    391D
0000:3927 880E1B01       MOV    [011B],CL
0000:392B F6C103         TEST   CL,03
0000:392E B01C           MOV    AL,1C
0000:3930 7502           JNZ    3934
0000:3932 FEC0           INC    AL
0000:3934 A27C01         MOV    [017C],AL
0000:3937 C3             RET
; -----------------------------------------------------------------------------
;         Nastaven¡ syst‚mov‚ho data
; -----------------------------------------------------------------------------
0000:3938 E8F0FF         CALL   392B
0000:393B 8AC6           MOV    AL,DH
0000:393D BB7A01         MOV    BX,017A
0000:3940 D7             XLAT
0000:3941 3AC2           CMP    AL,DL
0000:3943 B0FF           MOV    AL,FF
0000:3945 7274           JB     39BB
0000:3947 E8DDFF         CALL   3927
0000:394A 89161901       MOV    [0119],DX
0000:394E D1E9           SHR    CX,1
0000:3950 D1E9           SHR    CX,1
0000:3952 B8B505         MOV    AX,05B5
0000:3955 8BDA           MOV    BX,DX
0000:3957 F7E1           MUL    CX
0000:3959 8A0E1B01       MOV    CL,[011B]
0000:395D 80E103         AND    CL,03
0000:3960 BE7301         MOV    SI,0173
0000:3963 8BD0           MOV    DX,AX
0000:3965 D1E1           SHL    CX,1
0000:3967 E85200         CALL   39BC
0000:396A 8ACF           MOV    CL,BH
0000:396C BE7B01         MOV    SI,017B
0000:396F 49             DEC    CX
0000:3970 E84900         CALL   39BC
0000:3973 8ACB           MOV    CL,BL
0000:3975 49             DEC    CX
0000:3976 03D1           ADD    DX,CX
0000:3978 92             XCHG   AX,DX
0000:3979 A31D01         MOV    [011D],AX
0000:397C 56             PUSH   SI
0000:397D 53             PUSH   BX
0000:397E 50             PUSH   AX
0000:397F BBE303         MOV    BX,03E3
0000:3982 B90600         MOV    CX,0006
0000:3985 33D2           XOR    DX,DX
0000:3987 8BC2           MOV    AX,DX
0000:3989 53             PUSH   BX
0000:398A E8EADA         CALL   1477             ; z hlav¡ za©¡zen¡ pro ‡ten¡
0000:398D 1E             PUSH   DS
0000:398E C536F800       LDS    SI,[00F8]
0000:3992 E85CDA         CALL   13F1             ; vol n¡ obsluhy za©¡zen¡ DS:SI
0000:3995 1F             POP    DS
0000:3996 5B             POP    BX
0000:3997 E810DB         CALL   14AA             ; z hlav¡ za©¡zen¡ pro z pis
0000:399A 8F06E303       POP    [03E3]
0000:399E 1E             PUSH   DS
0000:399F C536F800       LDS    SI,[00F8]
0000:39A3 E84BDA         CALL   13F1             ; vol n¡ obsluhy za©¡zen¡ DS:SI
0000:39A6 1F             POP    DS
0000:39A7 5B             POP    BX
0000:39A8 5E             POP    SI
0000:39A9 A11D01         MOV    AX,[011D]
0000:39AC 33D2           XOR    DX,DX
0000:39AE B90700         MOV    CX,0007
0000:39B1 40             INC    AX
0000:39B2 40             INC    AX
0000:39B3 F7F1           DIV    CX
0000:39B5 88161F01       MOV    [011F],DL
0000:39B9 32C0           XOR    AL,AL
0000:39BB C3             RET

0000:39BC B400           MOV    AH,00
0000:39BE E3FB           JCXZ   39BB
0000:39C0 AC             LODSB
0000:39C1 03D0           ADD    DX,AX
0000:39C3 E2FB           LOOP   39C0
0000:39C5 C3             RET

; -----------------------------------------------------------------------------
;         Test zad n¡ specifikace souboru
; -----------------------------------------------------------------------------
                                               ;* VSTUP: CY=chyba specifikace
                                               ;*         ZY=byla konvence * ?

0000:39C6 50             PUSH   AX               ; £schova AX
0000:39C7 51             PUSH   CX               ; £schova CX
0000:39C8 56             PUSH   SI               ; £schova SI
0000:39C9 8BF2           MOV    SI,DX            ; ©etˆzec k rozboru
0000:39CB B9FF00         MOV    CX,00FF          ; p©¡znak - nen¡ hvˆzd. konv.
                                               ;* test, zda je v–bec nˆjak˜ text
0000:39CE 8B04           MOV    AX,[SI]          ; znak k rozboru
0000:39D0 0AC0           OR     AL,AL            ; je nˆjak˜ znak ?
0000:39D2 7429           JZ     39FD             ; nen¡ ‘ dn˜ znak - chyba
                                               ;* test, zda je zad n jenom disk
0000:39D4 80FC3A         CMP    AH,3A            ; je ozna‡en¡ disku ":" ?
0000:39D7 7506           JNZ    39DF             ; nen¡ ozna‡en¡ disku
0000:39D9 807C0200       CMP    Byte Ptr [SI+02],00 ; je jenom disk ?
0000:39DD 741E           JZ     39FD             ; je zad n jenom disk - chyba

0000:39DF AC           * LODSB                   ; na‡ten¡ znaku z textu
0000:39E0 0AC0         * OR     AL,AL            ; je konec textu ?
0000:39E2 7436           JZ     3A1A             ; je konec textu
0000:39E4 3C3F           CMP    AL,3F            ; je "?" ?
0000:39E6 741A           JZ     3A02             ; je "?"
0000:39E8 3C2A           CMP    AL,2A            ; je "*" ?
0000:39EA 7416           JZ     3A02             ; je "*"
0000:39EC E8B2F6         CALL   30A1             ; test odˆlova‡e param., cesty
0000:39EF 75EE           JNZ    39DF             ; nen¡ oddˆlova‡ - dal¨¡ znak
0000:39F1 E30A           JCXZ   39FD             ; byl znak "*" nebo "?"
0000:39F3 AC             LODSB                   ; na‡ten¡ dal¨¡ho znaku
0000:39F4 0AC0           OR     AL,AL            ; je konec textu ?
0000:39F6 740E           JZ     3A06             ; je konec textu
0000:39F8 E8A6F6         CALL   30A1             ; test odˆlova‡e param., cesty
0000:39FB 75E3           JNZ    39E0             ; nen¡ oddˆlova‡ - test znaku
                                               ;* chyba
0000:39FD 41           * INC    CX               ; CX <- 0 p©¡znak chyby
0000:39FE 0BC9           OR     CX,CX            ; ZY
0000:3A00 EB1C           JMP    3A1E             ; n vrat s chybou
                                               ;* je znak "?" nebo "*"
0000:3A02 33C9         * XOR    CX,CX            ; CX <- 0 p©¡znak chyby
0000:3A04 EBD9           JMP    39DF             ; dal¨¡ rozbor

0000:3A06 2BF2         * SUB    SI,DX            ; d‚lka textu
0000:3A08 83FE02         CMP    SI,+02
0000:3A0B 740D           JZ     3A1A             ; byly pr vˆ 2 znaky
0000:3A0D 83FE04         CMP    SI,+04
0000:3A10 75EB           JNZ    39FD             ; nebyly pr vˆ 4 znaky
0000:3A12 8BF2           MOV    SI,DX            ; adresa textu
0000:3A14 807C013A       CMP    Byte Ptr [SI+01],3A ; byl zad n disk ?
0000:3A18 75E3           JNZ    39FD             ; nebyl zad n disk - chyba
0000:3A1A 0BC9         * OR     CX,CX            ; byla hvˆzd. konvence ?
0000:3A1C 7501           JNZ    3A1F             ; nebyla hvˆzdi‡kov  konvence
0000:3A1E F9           * STC                     ; p©¡znak chyby
0000:3A1F 5E           * POP    SI               ; n vrat SI
0000:3A20 59             POP    CX               ; n vrat CX
0000:3A21 58             POP    AX               ; n vrat AX
0000:3A22 C3             RET
; -----------------------------------------------------------------------------
;
; -----------------------------------------------------------------------------
0000:3A23 E8A0FF         CALL   39C6             ; test zad n¡ specif. souboru
0000:3A26 720D           JB     3A35
0000:3A28 8BF2           MOV    SI,DX
0000:3A2A E874DD         CALL   17A1
0000:3A2D 73F3           JNB    3A22
0000:3A2F B002           MOV    AL,02
0000:3A31 0AC9           OR     CL,CL
0000:3A33 7502           JNZ    3A37
0000:3A35 B003           MOV    AL,03
0000:3A37 F9             STC
0000:3A38 C3             RET

0000:3A39 50             PUSH   AX
0000:3A3A 51             PUSH   CX
0000:3A3B B0FF           MOV    AL,FF
0000:3A3D 368E068B01     MOV    ES,SS:[018B]     ; segment aktivn¡ho PSP
0000:3A42 BF1800         MOV    DI,0018
0000:3A45 B91400         MOV    CX,0014
0000:3A48 F2             REPNZ
0000:3A49 AE             SCASB
0000:3A4A F9             STC
0000:3A4B 7502           JNZ    3A4F
0000:3A4D 4F             DEC    DI
0000:3A4E F8             CLC
0000:3A4F 59             POP    CX
0000:3A50 58             POP    AX
0000:3A51 C3             RET

0000:3A52 53             PUSH   BX
0000:3A53 51             PUSH   CX
0000:3A54 36C41EF400     LES    BX,SS:[00F4]     ; adresa tabulky soubor– DOS
0000:3A59 33F6           XOR    SI,SI
0000:3A5B 83FBFF         CMP    BX,-01
0000:3A5E 7418           JZ     3A78
0000:3A60 BF0600         MOV    DI,0006
0000:3A63 268B4F04       MOV    CX,ES:[BX+04]
0000:3A67 26803900       CMP    Byte Ptr ES:[BX+DI],00
0000:3A6B 740E           JZ     3A7B
0000:3A6D 83C728         ADD    DI,+28
0000:3A70 46             INC    SI
0000:3A71 E2F4           LOOP   3A67
0000:3A73 26C41F         LES    BX,ES:[BX]
0000:3A76 EBE3           JMP    3A5B
0000:3A78 F9             STC
0000:3A79 EB03           JMP    3A7E
0000:3A7B 03FB           ADD    DI,BX
0000:3A7D F8             CLC
0000:3A7E 59             POP    CX
0000:3A7F 5B             POP    BX
0000:3A80 C3             RET
; -----------------------------------------------------------------------------
;         Slu‘ba 3dh - otev©en¡ souboru
; -----------------------------------------------------------------------------
0000:3A81 36C6067A0600   MOV    Byte Ptr SS:[067A],00
0000:3A87 3C02           CMP    AL,02
0000:3A89 7605           JBE    3A90
0000:3A8B B00C           MOV    AL,0C
0000:3A8D E9C1CE         JMP    0951             ; n vrat z INT 21h s chybou CY
0000:3A90 368C1E6C06     MOV    SS:[066C],DS
0000:3A95 16             PUSH   SS
0000:3A96 1F             POP    DS
0000:3A97 89166A06       MOV    [066A],DX
0000:3A9B A26E06         MOV    [066E],AL
0000:3A9E E898FF         CALL   3A39
0000:3AA1 7304           JNB    3AA7
0000:3AA3 B004           MOV    AL,04
0000:3AA5 EBE6           JMP    3A8D
0000:3AA7 8C067106       MOV    [0671],ES
0000:3AAB 893E6F06       MOV    [066F],DI
0000:3AAF E8A0FF         CALL   3A52
0000:3AB2 72EF           JB     3AA3
0000:3AB4 89367306       MOV    [0673],SI
0000:3AB8 893E7506       MOV    [0675],DI
0000:3ABC 8C067706       MOV    [0677],ES
0000:3AC0 1E             PUSH   DS
0000:3AC1 C5166A06       LDS    DX,[066A]
0000:3AC5 E85BFF         CALL   3A23
0000:3AC8 1F             POP    DS
0000:3AC9 7302           JNB    3ACD
0000:3ACB EBD8           JMP    3AA5
0000:3ACD 8E066B04       MOV    ES,[046B]
0000:3AD1 88267906       MOV    [0679],AH
0000:3AD5 F6C480         TEST   AH,80
0000:3AD8 7524           JNZ    3AFE
0000:3ADA 268A470B       MOV    AL,ES:[BX+0B]
0000:3ADE A810           TEST   AL,10
0000:3AE0 7404           JZ     3AE6
0000:3AE2 B005           MOV    AL,05
0000:3AE4 EBE5           JMP    3ACB
0000:3AE6 A808           TEST   AL,08
0000:3AE8 75F8           JNZ    3AE2
0000:3AEA A801           TEST   AL,01
0000:3AEC 7412           JZ     3B00
0000:3AEE 803E7A0600     CMP    Byte Ptr [067A],00
0000:3AF3 750B           JNZ    3B00
0000:3AF5 803E6E0600     CMP    Byte Ptr [066E],00
0000:3AFA 75E6           JNZ    3AE2
0000:3AFC EB02           JMP    3B00
0000:3AFE 16             PUSH   SS
0000:3AFF 07             POP    ES
0000:3B00 B90B00         MOV    CX,000B
0000:3B03 56             PUSH   SI
0000:3B04 8BF3           MOV    SI,BX
0000:3B06 8B3E7506       MOV    DI,[0675]
0000:3B0A 1E             PUSH   DS
0000:3B0B 06             PUSH   ES
0000:3B0C 8E067706       MOV    ES,[0677]
0000:3B10 1F             POP    DS
0000:3B11 8A670B         MOV    AH,[BX+0B]
0000:3B14 26886502       MOV    ES:[DI+02],AH
0000:3B18 83C704         ADD    DI,+04
0000:3B1B F3             REPZ
0000:3B1C A4             MOVSB
0000:3B1D 1F             POP    DS
0000:3B1E 5E             POP    SI
0000:3B1F C43E7506       LES    DI,[0675]
0000:3B23 83C703         ADD    DI,+03
0000:3B26 8A267906       MOV    AH,[0679]
0000:3B2A E837EF         CALL   2A64
0000:3B2D 16             PUSH   SS
0000:3B2E 1F             POP    DS
0000:3B2F C43E7506       LES    DI,[0675]
0000:3B33 26FE05         INC    Byte Ptr ES:[DI]
0000:3B36 A06E06         MOV    AL,[066E]
0000:3B39 26884501       MOV    ES:[DI+01],AL
0000:3B3D 33C0           XOR    AX,AX
0000:3B3F 26894524       MOV    ES:[DI+24],AX
0000:3B43 26894526       MOV    ES:[DI+26],AX
0000:3B47 40             INC    AX
0000:3B48 26894511       MOV    ES:[DI+11],AX
0000:3B4C C43E6F06       LES    DI,[066F]
0000:3B50 A17306         MOV    AX,[0673]
0000:3B53 268805         MOV    ES:[DI],AL
0000:3B56 83EF18         SUB    DI,+18
0000:3B59 8BC7           MOV    AX,DI
0000:3B5B E9E9CD         JMP    0947             ; n vrat z INT 21h s funkc¡ OK
; -----------------------------------------------------------------------------
;         Slu‘ba 41h - zru¨en¡ souboru
; -----------------------------------------------------------------------------
0000:3B5E E8C2FE         CALL   3A23
0000:3B61 7303           JNB    3B66
0000:3B63 E9EBCD         JMP    0951             ; n vrat z INT 21h s chybou CY
0000:3B66 740B           JZ     3B73
0000:3B68 36C53E6904     LDS    DI,SS:[0469]
0000:3B6D F6470B01       TEST   Byte Ptr [BX+0B],01
0000:3B71 7404           JZ     3B77
0000:3B73 B005           MOV    AL,05
0000:3B75 EBEC           JMP    3B63
0000:3B77 C607E5         MOV    Byte Ptr [BX],E5
0000:3B7A C6450501       MOV    Byte Ptr [DI+05],01
0000:3B7E AD             LODSW
0000:3B7F 8BD8           MOV    BX,AX
0000:3B81 81E3FF0F       AND    BX,0FFF
0000:3B85 16             PUSH   SS
0000:3B86 1F             POP    DS
0000:3B87 7403           JZ     3B8C
0000:3B89 E8B6EA         CALL   2642
0000:3B8C 268A4600       MOV    AL,ES:[BP+00]    ; po‘adovan˜ disk pro z pis
0000:3B90 E848EC         CALL   27DB             ; ulo‘en¡ modifik. sektor–
0000:3B93 EBC6           JMP    3B5B
; -----------------------------------------------------------------------------
;         Slu‘ba 3ch - vytvo©en¡ souboru
; -----------------------------------------------------------------------------
0000:3B95 E82EFE         CALL   39C6             ; test zad n¡ specif. souboru
0000:3B98 7304           JNB    3B9E
0000:3B9A B003           MOV    AL,03            ; chyba - cesta nenalezena
0000:3B9C EBD7           JMP    3B75
0000:3B9E 52           * PUSH   DX
0000:3B9F 1E             PUSH   DS
0000:3BA0 16             PUSH   SS
0000:3BA1 1F             POP    DS
0000:3BA2 C7061804FFE5   MOV    Word Ptr [0418],E5FF
0000:3BA8 8C163D04       MOV    [043D],SS
0000:3BAC C7063B04FE04   MOV    Word Ptr [043B],04FE
0000:3BB2 8BF2           MOV    SI,DX
0000:3BB4 8AC1           MOV    AL,CL
0000:3BB6 80E101         AND    CL,01
0000:3BB9 880E7A06       MOV    [067A],CL
0000:3BBD 1F             POP    DS
0000:3BBE 1E             PUSH   DS
0000:3BBF E83DDB         CALL   16FF
0000:3BC2 1F             POP    DS
0000:3BC3 5A             POP    DX
0000:3BC4 0AC0           OR     AL,AL
0000:3BC6 7408           JZ     3BD0
0000:3BC8 3C03           CMP    AL,03
0000:3BCA 7404           JZ     3BD0
0000:3BCC B005           MOV    AL,05
0000:3BCE EBCC           JMP    3B9C
0000:3BD0 B002           MOV    AL,02
0000:3BD2 E9B2FE         JMP    3A87
; -----------------------------------------------------------------------------
;         Slu‘ba 45h - zdvojen¡ identifik tor souboru
; -----------------------------------------------------------------------------
0000:3BD5 16             PUSH   SS
0000:3BD6 1F             POP    DS
0000:3BD7 E85FFE         CALL   3A39
0000:3BDA 7218           JB     3BF4
0000:3BDC 06             PUSH   ES
0000:3BDD 57             PUSH   DI
0000:3BDE E89E02         CALL   3E7F             ; nalezen¡ tabulky souboru
0000:3BE1 5E             POP    SI
0000:3BE2 1F             POP    DS
0000:3BE3 7213           JB     3BF8
0000:3BE5 26FE05         INC    Byte Ptr ES:[DI]
0000:3BE8 8A4718         MOV    AL,[BX+18]
0000:3BEB 8804           MOV    [SI],AL
0000:3BED 83EE18         SUB    SI,+18
0000:3BF0 8BC6           MOV    AX,SI
0000:3BF2 EB9F           JMP    3B93
0000:3BF4 B004           MOV    AL,04
0000:3BF6 EBD6           JMP    3BCE
0000:3BF8 B006           MOV    AL,06
0000:3BFA EBFA           JMP    3BF6
; -----------------------------------------------------------------------------
;         Slu‘ba 46h - nucen‚ zdvojen¡ identifik toru souboru
; -----------------------------------------------------------------------------
0000:3BFC 87D9           XCHG   BX,CX
0000:3BFE 53             PUSH   BX
0000:3BFF 51             PUSH   CX
0000:3C00 E8A202         CALL   3EA5
0000:3C03 16             PUSH   SS
0000:3C04 1F             POP    DS
0000:3C05 59             POP    CX
0000:3C06 5B             POP    BX
0000:3C07 E88902         CALL   3E93             ; adresa popisova‡e soub. v PSP
0000:3C0A 87D9           XCHG   BX,CX
0000:3C0C 73CE           JNB    3BDC
0000:3C0E B006           MOV    AL,06
0000:3C10 EBE8           JMP    3BFA
; -----------------------------------------------------------------------------
;         Slu‘ba 43h - poskytnut¡/nastaven¡ atribut– souboru
; -----------------------------------------------------------------------------
0000:3C12 3C01           CMP    AL,01
0000:3C14 7604           JBE    3C1A
0000:3C16 B001           MOV    AL,01
0000:3C18 EBF6           JMP    3C10
0000:3C1A 720E         * JB     3C2A
0000:3C1C 8BD9           MOV    BX,CX
0000:3C1E 81E3D8FF       AND    BX,FFD8
0000:3C22 7406           JZ     3C2A
0000:3C24 B005           MOV    AL,05
0000:3C26 EBF0           JMP    3C18
0000:3C28 EBFC           JMP    3C26
0000:3C2A 51             PUSH   CX
0000:3C2B 50             PUSH   AX
0000:3C2C E8F4FD         CALL   3A23
0000:3C2F 5A             POP    DX
0000:3C30 59             POP    CX
0000:3C31 72F5           JB     3C28
0000:3C33 36C43E6904     LES    DI,SS:[0469]
0000:3C38 16             PUSH   SS
0000:3C39 1F             POP    DS
0000:3C3A 0AD2           OR     DL,DL
0000:3C3C 7415           JZ     3C53
0000:3C3E 2680670BD8     AND    Byte Ptr ES:[BX+0B],D8
0000:3C43 26084F0B       OR     ES:[BX+0B],CL
0000:3C47 26C6450501     MOV    Byte Ptr ES:[DI+05],01
0000:3C4C B0FF           MOV    AL,FF            ; po‘adov ny v¨echny disky
0000:3C4E E88AEB         CALL   27DB             ; ulo‘en¡ modifik. sektor–
0000:3C51 EB9F           JMP    3BF2
0000:3C53 33C9           XOR    CX,CX
0000:3C55 268A4F0B       MOV    CL,ES:[BX+0B]
0000:3C59 E886CB         CALL   07E2             ; nastaven¡ ukazat. na registry
0000:3C5C 894C04         MOV    [SI+04],CX
0000:3C5F EBF0         * JMP    3C51             ; n vrat OK
; -----------------------------------------------------------------------------
;         Slu‘ba 47h - poskytnut¡ aktivn¡ho adres ©e
; -----------------------------------------------------------------------------
0000:3C61 1E             PUSH   DS               ; segment bufferu
0000:3C62 53             PUSH   BX               ;
0000:3C63 56             PUSH   SI               ; offset bufferu
0000:3C64 E850D1         CALL   0DB7             ; poskytnut¡ adr. bl. par.disku
0000:3C67 3CFF           CMP    AL,FF            ; disk zad n OK ?
0000:3C69 7507           JNZ    3C72             ; disk OK
0000:3C6B 58             POP    AX
0000:3C6C 58             POP    AX
0000:3C6D 58             POP    AX
0000:3C6E B00F           MOV    AL,0F            ; chyba - neplatn˜ disk
0000:3C70 EBB6         * JMP    3C28             ; n vrat s chybou

0000:3C72 5F           * POP    DI               ; offset bufferu
0000:3C73 8F4402         POP    [SI+02]
0000:3C76 5B             POP    BX               ; segment bufferu
0000:3C77 895C0E         MOV    [SI+0E],BX       ;
0000:3C7A 26837E1CFF     CMP    Word Ptr ES:[BP+1C],-01 ; po‡ t. blok adres ©e
0000:3C7F 750D           JNZ    3C8E             ; adres © OK
                                               ;* adres © nezn m˜ - aktualizace
0000:3C81 53             PUSH   BX
0000:3C82 57             PUSH   DI
0000:3C83 36C606FB0316   MOV    Byte Ptr SS:[03FB],16
0000:3C89 E803DA         CALL   168F             ; aktualizace aktu l. adres ©e
0000:3C8C 5F             POP    DI
0000:3C8D 5B             POP    BX
                                               ;* nastaven¡ pro z kladn¡ adres ©
0000:3C8E 8BF5         * MOV    SI,BP            ; offset tabulky parametr–
0000:3C90 06             PUSH   ES               ; segment tabulky parametr–
0000:3C91 1F             POP    DS               ; DS <- ES segment tab. param.
0000:3C92 8EC3           MOV    ES,BX            ; segment bufferu
0000:3C94 837C1C00       CMP    Word Ptr [SI+1C],+00 ; je z kladn¡ adres © ?
0000:3C98 7504           JNZ    3C9E             ; nen¡ z kladn¡ adres ©
0000:3C9A C6441E00       MOV    Byte Ptr [SI+1E],00 ; text - z kladn¡ adres ©
                                               ;* p©enesen¡ textu cesty
0000:3C9E 83C61E       * ADD    SI,+1E           ; text aktivn¡ho adres ©e
0000:3CA1 B94000         MOV    CX,0040          ; max. d‚lka cesty
0000:3CA4 AC           * LODSB                   ; ‡ten¡ znaku
0000:3CA5 AA             STOSB                   ; ulo‘en¡ znaku
0000:3CA6 0AC0           OR     AL,AL            ; konec cesty ?
0000:3CA8 E0FA           LOOPNZ 3CA4             ; p©enesen¡ cesty po bajt 0
0000:3CAA EBB3           JMP    3C5F             ; n vrat OK
; -----------------------------------------------------------------------------
;         Slu‘ba 56h - p©ejmenov n¡ souboru
; -----------------------------------------------------------------------------
0000:3CAC 3689167B06     MOV    SS:[067B],DX     ; offset jm‚na p–vod. souboru
0000:3CB1 368C1E7D06     MOV    SS:[067D],DS     ; segment jm‚na p–vod. souboru
0000:3CB6 36893E7F06     MOV    SS:[067F],DI     ; offset jm‚na nov‚ho souboru
0000:3CBB 368C068106     MOV    SS:[0681],ES     ; segment jm‚na nov‚ho souboru

0000:3CC0 E860FD         CALL   3A23
0000:3CC3 7302           JNB    3CC7
0000:3CC5 EBA9           JMP    3C70
0000:3CC7 742A         * JZ     3CF3
0000:3CC9 368E1E6B04     MOV    DS,SS:[046B]     ;
0000:3CCE FF7718         PUSH   [BX+18]          ;
0000:3CD1 FF771A         PUSH   [BX+1A]
0000:3CD4 FF771E         PUSH   [BX+1E]
0000:3CD7 FF771C         PUSH   [BX+1C]
0000:3CDA FF7716         PUSH   [BX+16]
0000:3CDD FF770B         PUSH   [BX+0B]
0000:3CE0 36FF362504     PUSH   SS:[0425]        ; pracovn¡ logick˜ disk
0000:3CE5 36C5367F06     LDS    SI,SS:[067F]
0000:3CEA E8B4DA         CALL   17A1
0000:3CED 58             POP    AX
0000:3CEE 7207           JB     3CF7
0000:3CF0 83C40C         ADD    SP,+0C
0000:3CF3 B005           MOV    AL,05
0000:3CF5 EBCE           JMP    3CC5
0000:3CF7 363A062504     CMP    AL,SS:[0425]     ; pracovn¡ logick˜ disk
0000:3CFC 7407           JZ     3D05
0000:3CFE 83C40C         ADD    SP,+0C
0000:3D01 B011           MOV    AL,11
0000:3D03 EBF0           JMP    3CF5
0000:3D05 36C5367F06     LDS    SI,SS:[067F]
0000:3D0A 58             POP    AX
0000:3D0B 50             PUSH   AX
0000:3D0C 36C7061804FFE5 MOV    Word Ptr SS:[0418],E5FF
0000:3D13 368C163D04     MOV    SS:[043D],SS
0000:3D18 36C7063B04FE04 MOV    Word Ptr SS:[043B],04FE
0000:3D1F E8DDD9         CALL   16FF
0000:3D22 72CC           JB     3CF0
0000:3D24 36C5366904     LDS    SI,SS:[0469]
0000:3D29 58             POP    AX
0000:3D2A 88470B         MOV    [BX+0B],AL
0000:3D2D 8F4716         POP    [BX+16]
0000:3D30 8F471C         POP    [BX+1C]
0000:3D33 8F471E         POP    [BX+1E]
0000:3D36 8F471A         POP    [BX+1A]
0000:3D39 8F4718         POP    [BX+18]
0000:3D3C C6440501       MOV    Byte Ptr [SI+05],01
0000:3D40 36C5367B06     LDS    SI,SS:[067B]
0000:3D45 E859DA         CALL   17A1
0000:3D48 36C5366904     LDS    SI,SS:[0469]
0000:3D4D C607E5         MOV    Byte Ptr [BX],E5
0000:3D50 C6440501       MOV    Byte Ptr [SI+05],01
0000:3D54 16             PUSH   SS
0000:3D55 1F             POP    DS
0000:3D56 B0FF           MOV    AL,FF            ; po‘adov ny v¨echny disky
0000:3D58 E880EA         CALL   27DB             ; ulo‘en¡ modifik. sektor–
0000:3D5B E9E9CB         JMP    0947             ; n vrat z INT 21h s funkc¡ OK
; -----------------------------------------------------------------------------
;         Slu‘ba 4eh - nalezen¡ 1. souboru s pou‘it¡m identifik toru
; -----------------------------------------------------------------------------
0000:3D5E E865FC         CALL   39C6             ; test zad n¡ specif. souboru
0000:3D61 7306           JNB    3D69             ; zad n¡ OK
0000:3D63 7404           JZ     3D69             ; konvence * a ? je povolen 
0000:3D65 B002           MOV    AL,02            ; chyba - soubor nenalezen
0000:3D67 EB9A           JMP    3D03             ; n vrat s chybou

0000:3D69 8BF2         * MOV    SI,DX
0000:3D6B 51             PUSH   CX
0000:3D6C 36FE06D500     INC    Byte Ptr SS:[00D5]
0000:3D71 36C706180400E5 MOV    Word Ptr SS:[0418],E500
0000:3D78 E826DA         CALL   17A1             ; nalezen¡ souboru FCB
0000:3D7B 59             POP    CX
0000:3D7C 36880EFB03     MOV    SS:[03FB],CL
0000:3D81 7304           JNB    3D87             ; soubor nalezen OK
0000:3D83 B012           MOV    AL,12            ; chyba - nen¡ dal¨¡ soubor
0000:3D85 EBE0           JMP    3D67             ; n vrat s chybou
0000:3D87 368E1E6B04   * MOV    DS,SS:[046B]
0000:3D8C 8A6F0B         MOV    CH,[BX+0B]
0000:3D8F E8DADB         CALL   196C             ; nalezen¡ souboru (DS:BX)
0000:3D92 740D           JZ     3DA1
0000:3D94 36FF362101     PUSH   SS:[0121]        ; po‡ te‡n¡ sektor ROOT
0000:3D99 368B1E4D04     MOV    BX,SS:[044D]     ; aktu l. aloka‡n¡ blok
0000:3D9E E9A000         JMP    3E41

0000:3DA1 36C43EDF00     LES    DI,SS:[00DF]     ; adresa diskov˜ch p©enos– DTA
0000:3DA6 36A0FB03       MOV    AL,SS:[03FB]
0000:3DAA AA             STOSB
0000:3DAB 36A02504       MOV    AL,SS:[0425]     ; pracovn¡ logick˜ disk
0000:3DAF AA             STOSB
0000:3DB0 B90B00         MOV    CX,000B
0000:3DB3 53             PUSH   BX
0000:3DB4 BEEF03         MOV    SI,03EF
0000:3DB7 1E             PUSH   DS
0000:3DB8 16             PUSH   SS
0000:3DB9 1F             POP    DS
0000:3DBA F3             REPZ
0000:3DBB A4             MOVSB
0000:3DBC 1F             POP    DS
0000:3DBD 36A12101       MOV    AX,SS:[0121]     ; po‡ te‡n¡ sektor ROOT
0000:3DC1 AB             STOSW
0000:3DC2 36A12604       MOV    AX,SS:[0426]     ; adresa z hlav¡ za©¡zen¡
0000:3DC6 AB             STOSW
0000:3DC7 36A12804       MOV    AX,SS:[0428]
0000:3DCB AB             STOSW
0000:3DCC 36A14D04       MOV    AX,SS:[044D]     ; aktu l. aloka‡n¡ blok
0000:3DD0 AB             STOSW
0000:3DD1 8A470B         MOV    AL,[BX+0B]       ; atributy souboru
0000:3DD4 AA             STOSB
0000:3DD5 8B4716         MOV    AX,[BX+16]       ; ‡as souboru
0000:3DD8 AB             STOSW
0000:3DD9 8B4718         MOV    AX,[BX+18]       ; datum souboru
0000:3DDC AB             STOSW
0000:3DDD 8B471C         MOV    AX,[BX+1C]       ; velikost souboru - LOW
0000:3DE0 AB             STOSW
0000:3DE1 8B471E         MOV    AX,[BX+1E]       ; velikost souboru - HIGH
0000:3DE4 AB             STOSW
0000:3DE5 5E             POP    SI
                                               ;* p©enesen¡ jm‚na polo‘ky
0000:3DE6 B90800         MOV    CX,0008          ; max. d‚lka jm‚na
0000:3DE9 AC           * LODSB
0000:3DEA AA             STOSB
0000:3DEB 3C20           CMP    AL,20            ; je mezera ?
0000:3DED E0FA           LOOPNZ 3DE9             ; p©enesen¡ max. po mezeru
0000:3DEF 7501           JNZ    3DF2             ; posledn¡ znak nebyla mezera
0000:3DF1 4F             DEC    DI               ; zru¨en¡ vlo‘en‚ mezery
0000:3DF2 03F1         * ADD    SI,CX            ; adresa p©¡pony souboru
0000:3DF4 803C20         CMP    Byte Ptr [SI],20 ; je nˆjak  p©¡pona ?
0000:3DF7 740F           JZ     3E08             ; neni p©¡pona - konec
                                               ;* p©enesen¡ p©¡pony polo‘ky
0000:3DF9 B02E           MOV    AL,2E            ; oddˆlovac¡ te‡ka
0000:3DFB AA             STOSB                   ; ulo‘en¡ oddˆlovac¡ te‡ky
0000:3DFC B90300         MOV    CX,0003          ; max. d‚lka p©¡pony
0000:3DFF AC           * LODSB
0000:3E00 AA             STOSB
0000:3E01 3C20           CMP    AL,20            ; je mezera             ;' '
0000:3E03 E0FA           LOOPNZ 3DFF             ; p©enesen¡ max. po mezeru
0000:3E05 7501           JNZ    3E08             ; posledn¡ nebyla mezera
0000:3E07 4F             DEC    DI               ; zru¨en¡ vlo‘en‚ mezery
                                               ;* konec jm‚na souboru
0000:3E08 32C0         * XOR    AL,AL            ; koncov  0
0000:3E0A AA             STOSB                   ; ozna‡en¡ konce textu 0
0000:3E0B E939CB         JMP    0947             ; n vrat z INT 21h s funkc¡ OK
; -----------------------------------------------------------------------------
;         Slu‘ba 4fh - nalezen¡ dal¨¡ho vyhovuj¡c¡ho souboru
; -----------------------------------------------------------------------------
0000:3E0E 36C536DF00     LDS    SI,SS:[00DF]     ; adresa diskov˜ch p©enos– DTA
0000:3E13 8BD6           MOV    DX,SI
0000:3E15 42             INC    DX
0000:3E16 56             PUSH   SI
0000:3E17 E8B9F1         CALL   2FD3
0000:3E1A 5E             POP    SI
0000:3E1B 7305           JNB    3E22
0000:3E1D B012           MOV    AL,12            ; chyba - dal¨¡ soubor nenalez.
0000:3E1F E92FCB         JMP    0951             ; n vrat z INT 21h s chybou CY

0000:3E22 8B440D         MOV    AX,[SI+0D]
0000:3E25 C46C0F         LES    BP,[SI+0F]
0000:3E28 0BC0           OR     AX,AX
0000:3E2A 78F1           JS     3E1D
0000:3E2C 8B5C13         MOV    BX,[SI+13]
0000:3E2F 8A14           MOV    DL,[SI]
0000:3E31 368816FB03     MOV    SS:[03FB],DL
0000:3E36 50             PUSH   AX
0000:3E37 36892E2604     MOV    SS:[0426],BP     ; adresa z hlav¡ za©¡zen¡
0000:3E3C 368C062804     MOV    SS:[0428],ES
0000:3E41 E891D8         CALL   16D5
0000:3E44 58             POP    AX
0000:3E45 C7066104FFFF   MOV    Word Ptr [0461],FFFF
0000:3E4B E8C9D7         CALL   1617
0000:3E4E E868D7         CALL   15B9
0000:3E51 E92DFF         JMP    3D81
; -----------------------------------------------------------------------------
;         Nalezen¡ tabulky souboru ES:DI
; -----------------------------------------------------------------------------
0000:3E54 50             PUSH   AX
0000:3E55 C43EF400       LES    DI,[00F4]        ; adresa tabulky soubor– DOS
0000:3E59 83FFFF       * CMP    DI,-01           ; je ji‘ konec tabulky ?
0000:3E5C 741E           JZ     3E7C             ; popisova‡ souboru nenalezen
0000:3E5E 262B4504       SUB    AX,ES:[DI+04]    ; po‡et soubor– v tabulce
0000:3E62 7C05           JL     3E69             ; ‡¡slo souboru OK
0000:3E64 26C43D         LES    DI,ES:[DI]       ; adresa dal¨¡ tabulky soubor–
0000:3E67 EBF0           JMP    3E59             ; test dal¨¡ho ovlada‡e
0000:3E69 26034504     * ADD    AX,ES:[DI+04]    ; ‡¡slo souboru
0000:3E6D 53             PUSH   BX               ; £schova BX
0000:3E6E BB2800         MOV    BX,0028          ; d‚lka jednoho souboru
0000:3E71 F6E3           MUL    BL               ; offset souboru - 6
0000:3E73 5B             POP    BX               ; n vrat BX
0000:3E74 050600         ADD    AX,0006          ; p©esko‡en¡ z hlav¡ tabulky
0000:3E77 03F8           ADD    DI,AX            ; adresa popisova‡e souboru
0000:3E79 F8             CLC                     ; p©¡znak - operace OK
0000:3E7A EB01           JMP    3E7D             ; n vrat

0000:3E7C F9           * STC                     ; p©¡znak - soubor nenalezen
0000:3E7D 58           * POP    AX
0000:3E7E C3             RET
; -----------------------------------------------------------------------------
;         Nalezen¡ tabulky souboru z PSP
; -----------------------------------------------------------------------------
0000:3E7F 50             PUSH   AX
0000:3E80 E81000         CALL   3E93             ; adresa popisova‡e soub. v PSP
0000:3E83 72F7           JB     3E7C             ; neplatn‚ ‡¡slo popisova‡e
0000:3E85 268A05         MOV    AL,ES:[DI]       ; p©¡znak otev©en¡ souboru
0000:3E88 3CFF           CMP    AL,FF            ; je soubor otev©en
0000:3E8A 74F0           JZ     3E7C             ; soubor nen¡ otev©en
0000:3E8C 32E4           XOR    AH,AH            ; AX <- popisova‡ souboru
0000:3E8E E8C3FF         CALL   3E54             ; nalezen¡ tabulky souboru
0000:3E91 EBEA           JMP    3E7D
; -----------------------------------------------------------------------------
;         Poskytnut¡ adresy popisova‡e souboru v PSP
; -----------------------------------------------------------------------------
0000:3E93 83FB14         CMP    BX,+14           ; kontrola max. offsetu 20
0000:3E96 730B           JNB    3EA3             ; offset je 20 nebo vˆt¨¡
0000:3E98 8E068B01       MOV    ES,[018B]        ; segment aktivn¡ho PSP
0000:3E9C 8BFB           MOV    DI,BX            ; offset bajtu
0000:3E9E 83C718         ADD    DI,+18           ; adresa bajtu v PSP
0000:3EA1 F8             CLC                     ; p©¡znak - operace OK
0000:3EA2 C3             RET

0000:3EA3 F9           * STC
0000:3EA4 C3             RET
; -----------------------------------------------------------------------------
;         Slu‘ba 3eh - uzav©en¡ souboru
; -----------------------------------------------------------------------------
0000:3EA5 16             PUSH   SS
0000:3EA6 1F             POP    DS               ; DS <- CS
0000:3EA7 E8E9FF         CALL   3E93             ; adresa popisova‡e soub. v PSP
0000:3EAA 7305           JNB    3EB1             ; identifik tor OK
0000:3EAC B006         * MOV    AL,06            ; chyba - neplatn˜ identifik.
0000:3EAE E9A0CA       * JMP    0951             ; n vrat z INT 21h s chybou CY

0000:3EB1 268A05       * MOV    AL,ES:[DI]       ; p©¡znaky souboru
0000:3EB4 3CFF           CMP    AL,FF            ; je soubor uzav©en ?
0000:3EB6 74F4           JZ     3EAC             ; soubor je uzav©en
0000:3EB8 26C605FF       MOV    Byte Ptr ES:[DI],FF ; p©¡znak uzav©en¡ souboru
0000:3EBC 32E4           XOR    AH,AH            ; identifik tor souboru
0000:3EBE E893FF         CALL   3E54             ; nalezen¡ tabulky souboru
0000:3EC1 72E9           JB     3EAC             ; soubor nenalezen
0000:3EC3 06             PUSH   ES
0000:3EC4 1F             POP    DS               ; ES <- DS
0000:3EC5 FE0D           DEC    Byte Ptr [DI]
0000:3EC7 8D5503         LEA    DX,[DI+03]       ; adresa FCB souboru
0000:3ECA F6451BC0       TEST   Byte Ptr [DI+1B],C0
0000:3ECE 7517           JNZ    3EE7
0000:3ED0 FF7502         PUSH   [DI+02]          ; £schova atribut– souboru
0000:3ED3 E8FDF0         CALL   2FD3             ; nalezen¡ dal¨¡ho souboru
0000:3ED6 5B             POP    BX               ; atributy souboru
0000:3ED7 36881EFB03     MOV    SS:[03FB],BL     ; atributy souboru
0000:3EDC E8FDEB         CALL   2ADC             ; uzav©en¡ souboru FCB
0000:3EDF 3CFF           CMP    AL,FF            ; chyba operace ?
0000:3EE1 7504           JNZ    3EE7             ; operace OK
0000:3EE3 B002           MOV    AL,02            ; chyba - soubor nenalezen

0000:3EE5 EBC7         * JMP    3EAE             ; n vrat z INT 21h s chybou CY

0000:3EE7 E95DCA         JMP    0947             ; n vrat z INT 21h s funkc¡ OK
; -----------------------------------------------------------------------------
;         Nastaven¡ pracovn¡ adresy DTA
; -----------------------------------------------------------------------------
0000:3EEA 368C068506     MOV    SS:[0685],ES     ; £schova ES
0000:3EEF 36891E8706     MOV    SS:[0687],BX     ; £schova BX
0000:3EF4 368F068306     POP    SS:[0683]        ; £schova n vratov‚ adresy
0000:3EF9 36C41EDF00     LES    BX,SS:[00DF]     ; adresa diskov˜ch p©enos– DTA
0000:3EFE 06             PUSH   ES               ; £schova adresy DTA
0000:3EFF 53             PUSH   BX
0000:3F00 36FF368306     PUSH   SS:[0683]        ; n vrat n vratov‚ adresy
0000:3F05 E82A00         CALL   3F32             ; normalizace adresy DS:DX
0000:3F08 368916DF00     MOV    SS:[00DF],DX     ; adresa diskov˜ch p©enos– DTA
0000:3F0D 368C1EE100     MOV    SS:[00E1],DS
0000:3F12 368E068506     MOV    ES,SS:[0685]     ; n vrat registr– ES:BX
0000:3F17 368B1E8706     MOV    BX,SS:[0687]
0000:3F1C C3             RET
; -----------------------------------------------------------------------------
;         N vrat adresy DTA
; -----------------------------------------------------------------------------
0000:3F1D 368F068306     POP    SS:[0683]        ; £schova n vratov‚ adresy
0000:3F22 368F06DF00     POP    SS:[00DF]        ; adresa diskov˜ch p©enos– DTA
0000:3F27 368F06E100     POP    SS:[00E1]
0000:3F2C 36FF368306     PUSH   SS:[0683]        ; n vrat n vratov‚ adresy
0000:3F31 C3             RET
; -----------------------------------------------------------------------------
;         Normalizace adresy DS:DX
; -----------------------------------------------------------------------------
0000:3F32 51             PUSH   CX               ; £schova CX
0000:3F33 52             PUSH   DX               ; £schova DX
0000:3F34 B104           MOV    CL,04            ; po‡et rotac¡
0000:3F36 D3EA           SHR    DX,CL            ; p©evod offsetu na odstavce
0000:3F38 8CD9           MOV    CX,DS            ; segment adresy
0000:3F3A 03CA           ADD    CX,DX            ; normalozovan˜ segment
0000:3F3C 8ED9           MOV    DS,CX            ; normalozovan˜ segment
0000:3F3E 5A             POP    DX               ; n vrat DX
0000:3F3F 81E20F00       AND    DX,000F          ; normalizovan˜ offset
0000:3F43 59             POP    CX               ; n vrat CX
0000:3F44 C3             RET
; -----------------------------------------------------------------------------
;         Slu‘ba 3fh - ‡ten¡ ze souboru s pou‘it¡m identifik toru
; -----------------------------------------------------------------------------
0000:3F45 E8A2FF         CALL   3EEA             ; nastaven¡ pracovn¡ adresy DTA
0000:3F48 E83B00         CALL   3F86             ; nalezen¡ FCB souboru
0000:3F4B 7209           JB     3F56             ; chybn˜ identifik tor
0000:3F4D 26807D0101     CMP    Byte Ptr ES:[DI+01],01 ; je otev©en pro z pis ?
0000:3F52 7507           JNZ    3F5B             ; nen¡ jen pro z pis - OK
0000:3F54 B005         * MOV    AL,05            ; po‘adavek odm¡tnut (z pis)
0000:3F56 E8C4FF       * CALL   3F1D             ; n vrat adresy DTA
0000:3F59 EB8A         * JMP    3EE5             ; n vrat z INT 21h s chybou CY

0000:3F5B E8B1E9       * CALL   290F             ; ‡ten¡ bloku ze souboru
0000:3F5E E881C8       * CALL   07E2             ; nastaven¡ ukazat. na registry
0000:3F61 8B4404         MOV    AX,[SI+04]       ; po‡et po‘adovan˜ch bajt–
0000:3F64 368B0E8906     MOV    CX,SS:[0689]     ; po‡et zbyl˜ch bajt–
0000:3F69 894C04         MOV    [SI+04],CX       ; po‡et zbyl˜ch bajt–
0000:3F6C E8AEFF         CALL   3F1D             ; n vrat adresy DTA
0000:3F6F E9D5C9       * JMP    0947             ; n vrat z INT 21h s funkc¡ OK
; -----------------------------------------------------------------------------
;         Slu‘ba 40h - z pis do souboru s pou‘it¡m identifik toru
; -----------------------------------------------------------------------------
0000:3F72 E875FF         CALL   3EEA             ; nastaven¡ pracovn¡ adresy DTA
0000:3F75 E80E00         CALL   3F86             ; nalezen¡ FCB souboru
0000:3F78 72DC           JB     3F56             ; soubor nenalezen
0000:3F7A 26807D0100     CMP    Byte Ptr ES:[DI+01],00 ; je otev©en pro ‡ten¡ ?
0000:3F7F 74D3           JZ     3F54             ; otev©en pro ‡ten¡ - chyba
0000:3F81 E893E9         CALL   2917             ; z pis bloku pomoc¡ FCB
0000:3F84 EBD8           JMP    3F5E             ; n vrat
; -----------------------------------------------------------------------------
;         Nalezen¡ FCB souboru
; -----------------------------------------------------------------------------
0000:3F86 16             PUSH   SS
0000:3F87 1F             POP    DS
0000:3F88 890E8906       MOV    [0689],CX        ; £schova po‡tu bajt– k z pisu
0000:3F8C E8F0FE         CALL   3E7F             ; nalezen¡ tabulky souboru
0000:3F8F B006           MOV    AL,06            ; p©¡p. chyba - neplatn˜ ident.
0000:3F91 8B0E8906       MOV    CX,[0689]        ; n vrat po‡tu bajt– k z pisu
0000:3F95 8D5503         LEA    DX,[DI+03]       ; adresa FCB souboru
0000:3F98 06             PUSH   ES
0000:3F99 1F             POP    DS
0000:3F9A C3             RET
; -----------------------------------------------------------------------------
;         Slu‘ba 42h - p©em¡stˆn¡ ukazatele souboru
; -----------------------------------------------------------------------------

0000:3F9B 3C03           CMP    AL,03            ; kontrola ‡¡sla podfunkce
0000:3F9D 7204           JB     3FA3             ; ‡¡slo OK
0000:3F9F B001           MOV    AL,01            ; chyba - neplatn˜ povel
0000:3FA1 EBB6         * JMP    3F59             ; n vrat z INT 21h s chybou CY

0000:3FA3 16             PUSH   SS
0000:3FA4 1F             POP    DS               ; DS <- CS
0000:3FA5 E8D7FE         CALL   3E7F             ; nalezen¡ tabulky souboru
0000:3FA8 06             PUSH   ES
0000:3FA9 1F             POP    DS               ; DS <- ES
0000:3FAA 723D           JB     3FE9             ; chyba - neplatn˜ identifik.
0000:3FAC F6451B80       TEST   Byte Ptr [DI+1B],80 ; p©¡znak
0000:3FB0 7406           JZ     3FB8
0000:3FB2 33C0           XOR    AX,AX            ; nov  pozice - za‡ tek
0000:3FB4 33D2           XOR    DX,DX            ; nov  pozice - za‡ tek
0000:3FB6 EB16           JMP    3FCE             ; nastaven¡ pozice na za‡ tek

0000:3FB8 FEC8         * DEC    AL               ; test ‡¡sla podfunkce
0000:3FBA 7C0F           JL     3FCB             ; 0 = p©esun od za‡ tku
0000:3FBC FEC8           DEC    AL               ; p©esun od sou‡asn‚ pozice ?
0000:3FBE 7C1E           JL     3FDE             ; 1 = p©esun od sou‡asn‚ pozice
                                               ;* p©esun od konce
0000:3FC0 92             XCHG   AX,DX            ; AX <- DX nov˜ offset abs.
0000:3FC1 87D1           XCHG   DX,CX            ; DX <- CX nov˜ offset abs.
0000:3FC3 034513         ADD    AX,[DI+13]       ; p©i‡ten¡ k velikosti souboru
0000:3FC6 135515         ADC    DX,[DI+15]       ; p©i‡ten¡ k velikosti souboru
0000:3FC9 EB03           JMP    3FCE             ; nastaven¡ pozice ukazatele
                                               ;* p©esun od za‡ tku
0000:3FCB 92           * XCHG   AX,DX            ; AX <- DX nov˜ offset abs.
0000:3FCC 87D1           XCHG   DX,CX            ; DX <- CX nov˜ offset abs.
0000:3FCE 894524       * MOV    [DI+24],AX       ; nov˜ offset ukazatele
0000:3FD1 895526         MOV    [DI+26],DX       ; nov˜ offset ukazatele
0000:3FD4 E80BC8         CALL   07E2             ; nastaven¡ ukazat. na registry
0000:3FD7 895406         MOV    [SI+06],DX       ; nov  pozice - vy¨¨¡ slovo
0000:3FDA 8904           MOV    [SI],AX          ; nov  pozice - ni‘¨¡ slovo
0000:3FDC EB91         * JMP    3F6F             ; n vrat z INT 21h s funkc¡ OK
                                               ;* p©esun od sou‡asn‚ pozice
0000:3FDE 92           * XCHG   AX,DX            ; AX <- DX nov˜ offset abs.
0000:3FDF 87D1           XCHG   DX,CX            ; DX <- CX nov˜ offset abs.
0000:3FE1 034524         ADD    AX,[DI+24]       ; p©i‡ten¡ k sou‡asn‚mu offsetu
0000:3FE4 135526         ADC    DX,[DI+26]       ; p©i‡ten¡ k sou‡asn‚mu offsetu
0000:3FE7 EBE5           JMP    3FCE             ; nastaven¡ pozice

0000:3FE9 B006         * MOV    AL,06            ; chyba - neplatn˜ identifik.
0000:3FEB EBB4         * JMP    3FA1             ; n vrat z INT 21h s chybou CY
; -----------------------------------------------------------------------------
;         Slu‘ba 44h - ovl d n¡ za©¡zen¡ IOCTL
; -----------------------------------------------------------------------------
0000:3FED 8CDE           MOV    SI,DS            ; segment bufferu
0000:3FEF 16             PUSH   SS
0000:3FF0 1F             POP    DS               ; DS <- CS
0000:3FF1 3C03           CMP    AL,03            ; je funkce > 3 ?
0000:3FF3 7750           JA     4045             ; je funkce > 3
0000:3FF5 52             PUSH   DX
0000:3FF6 E886FE         CALL   3E7F             ; nalezen¡ tabulky souboru
0000:3FF9 5A             POP    DX
0000:3FFA 7304           JNB    4000             ; soubor nalezen OK
0000:3FFC B006           MOV    AL,06            ; chyba - neplatn˜ identifik.
0000:3FFE EBEB           JMP    3FEB             ; chybov˜ n vrat

0000:4000 3C02         * CMP    AL,02            ; je funkce 2 nebo 3 ?
0000:4002 7332           JNB    4036             ; je funkce 2 nebo 3
0000:4004 3C00           CMP    AL,00            ; poskytnut¡ inf. o za©¡zen¡ ?
0000:4006 268A451B       MOV    AL,ES:[DI+1B]    ; atributy za©¡zen¡
0000:400A 7412           JZ     401E             ; je poskytnut¡ informac¡
                                               ;* nastaven¡ informac¡ o za©¡zen¡
0000:400C 0AF6           OR     DH,DH            ; vy¨¨¡ slovo atribut– = 0 ?
0000:400E 7404           JZ     4014             ; vy¨¨¡ slovo = 0 -> OK
0000:4010 B00D           MOV    AL,0D            ; chyba - neplatn  data
0000:4012 EBEA         * JMP    3FFE             ; chybov˜ n vrat
0000:4014 A880         * TEST   AL,80            ; je to znakov‚ za©¡zen¡ ?
0000:4016 7455           JZ     406D             ; je blokov‚ za©¡zen¡ - chyba
0000:4018 2688551B       MOV    ES:[DI+1B],DL    ; nastaven¡ znakov‚ho za©¡zen¡
0000:401C EBBE         * JMP    3FDC             ; n vrat z INT 21h s funkc¡ OK

                                               ;* poskytnut¡ informac¡ o za©¡z.
0000:401E 32E4         * XOR    AH,AH            ; vy¨¨¡ slovo atribut–
0000:4020 A880           TEST   AL,80            ; je to znakov‚ za©¡zen¡ ?
0000:4022 7408           JZ     402C             ; je to blokov‚ za©¡zen¡
0000:4024 26C47D1C       LES    DI,ES:[DI+1C]    ; ukaz. na driver znak. za©¡z.
0000:4028 268A6505       MOV    AH,ES:[DI+05]    ; p©¡znak ovl d n¡ p©es IOCTL
0000:402C E8B3C7       * CALL   07E2             ; nastaven¡ ukazat. na registry
0000:402F 8BD0           MOV    DX,AX            ; atributy za©¡zen¡
0000:4031 895406         MOV    [SI+06],DX       ; nastaven¡ registru DX
0000:4034 EBE6         * JMP    401C             ; n vrat z INT 21h s funkc¡ OK

                                               ;* je funkce 2 nebo 3
0000:4036 26F6451B80     TEST   Byte Ptr ES:[DI+1B],80 ; je to znakov‚ za©¡zen¡?
0000:403B 7430           JZ     406D             ; blokov‚ za©¡zen¡ - chyba
0000:403D 26C47D1C       LES    DI,ES:[DI+1C]    ; ukazatel na driver znak. za©.
0000:4041 32DB           XOR    BL,BL            ; aktu ln¡ disk
0000:4043 EB4D           JMP    4092

                                               ;* je funkce vy¨¨¡ ne‘ 3
0000:4045 FEC8           DEC    AL
0000:4047 FEC8           DEC    AL
0000:4049 3C03           CMP    AL,03            ; je funkce 4 nebo 5 ?
0000:404B 7628           JBE    4075             ; je funkce 4 nebo 5

0000:404D B401           MOV    AH,01            ; funkce 1 - kontrola m‚dia
0000:404F 2C04           SUB    AL,04            ; je funkce 6 ?
0000:4051 7406           JZ     4059             ; je funkce 6 - OK
0000:4053 B403           MOV    AH,03            ; funkce 3 - vstup IOCTL
0000:4055 FEC8           DEC    AL               ; je funkce 7 ?
0000:4057 7514           JNZ    406D             ; nen¡ funkce 7

                                               ;* je funkce 6 nebo 7 - statut
0000:4059 50           * PUSH   AX               ; £schova ‡¡sla funkce
0000:405A E827DC         CALL   1C84             ; nalezen¡ popisova‡e souboru
0000:405D 58             POP    AX               ; n vrat ‡¡sla funkce
0000:405E 7211           JB     4071             ; popisova‡ souboru nenalezen
0000:4060 E85BD2         CALL   12BE             ; obsluha funkc¡ konzoly
0000:4063 8AE0           MOV    AH,AL            ;
0000:4065 B0FF           MOV    AL,FF            ; p©¡znak - nen¡ konec souboru
0000:4067 7502           JNZ    406B             ; nen¡ konec souboru
0000:4069 FEC0           INC    AL               ; 00 = je konec souboru
0000:406B EBC7         * JMP    4034             ; n vrat z INT 21h s funkc¡ OK

0000:406D B001         * MOV    AL,01            ; chyba - neplatn  funkce
0000:406F EBA1           JMP    4012             ; chybov˜ n vrat

0000:4071 B005         * MOV    AL,05            ; chyba - po‘adavek odm¡tnut
0000:4073 EBFA           JMP    406F             ; chybov˜ n vrat

                                               ;* je funkce 4 nebo 5
0000:4075 51           * PUSH   CX
0000:4076 52             PUSH   DX
0000:4077 50             PUSH   AX
0000:4078 56             PUSH   SI
0000:4079 8AC3           MOV    AL,BL            ; ‡¡slo disku
0000:407B E819DC         CALL   1C97             ; nastav. pracovn¡ho log. disku
0000:407E 720C           JB     408C             ; nepovolen‚ ‡¡slo disku
0000:4080 E860E2         CALL   22E3             ; poskytnut¡ tabulky disku
0000:4083 268A5E01       MOV    BL,ES:[BP+01]    ; ‡¡slo log. disku
0000:4087 26C47E12       LES    DI,ES:[BP+12]    ; adresa ovlada‡e disku
0000:408B F8             CLC
0000:408C 5E           * POP    SI
0000:408D 58             POP    AX
0000:408E 5A             POP    DX
0000:408F 59             POP    CX
0000:4090 72DF           JB     4071             ; n vrat - neplatn˜ disk

0000:4092 26F745040040   TEST   Word Ptr ES:[DI+04],4000 ; ovl d n¡ p©ed IOCTL ?
0000:4098 74D3           JZ     406D             ; nen¡ ovl d n¡ p©es IOCTL
0000:409A FEC8           DEC    AL
0000:409C FEC8           DEC    AL               ; je funkce 2 ?
0000:409E 7407           JZ     40A7             ; je funkce 2 - ‡ten¡
0000:40A0 C60649010C     MOV    Byte Ptr [0149],0C ; funkce v˜stupu IOCTL
0000:40A5 EB05           JMP    40AC
0000:40A7 C606490103   * MOV    Byte Ptr [0149],03 ; funkce vstupu IOCTL
0000:40AC B016         * MOV    AL,16            ; d‚lka z hlav¡
0000:40AE 8AE3           MOV    AH,BL            ; ‡¡slo jednotky
0000:40B0 A34701         MOV    [0147],AX        ; d‚lka z hlav¡ a jednotka
0000:40B3 33C0           XOR    AX,AX
0000:40B5 A34A01         MOV    [014A],AX        ; stavov‚ slovo za©¡zen¡
0000:40B8 A25401         MOV    [0154],AL        ; popisova‡ m‚dia - 0
0000:40BB 890E5901       MOV    [0159],CX        ; po‡et bajt– k p©enosu
0000:40BF 89165501       MOV    [0155],DX        ; offset adresy bufferu
0000:40C3 89365701       MOV    [0157],SI        ; segment adresy bufferu
0000:40C7 06             PUSH   ES
0000:40C8 1F             POP    DS               ; DS <- ES adr. z hlav¡ za©.
0000:40C9 8BF7           MOV    SI,DI            ; SI <- DI adr. z hlav¡ za©.
0000:40CB 16             PUSH   SS
0000:40CC 07             POP    ES               ; ES <- CS
0000:40CD BB4701         MOV    BX,0147          ; adresa po‘adavku za©¡zen¡
0000:40D0 E81ED3         CALL   13F1             ; vol n¡ obsluhy za©¡zen¡ DS:SI
0000:40D3 36A15901       MOV    AX,SS:[0159]     ; po‡et p©enesen˜ch bajt–
0000:40D7 EB92         * JMP    406B             ; n vrat z INT 21h s funkc¡ OK
; -----------------------------------------------------------------------------
;         Slu‘ba 57h - poskytnut¡/nastaven¡ data a ‡asu souboru
; -----------------------------------------------------------------------------
0000:40D9 3C02           CMP    AL,02            ; kontrola ‡¡sla podfunkce
0000:40DB 7204           JB     40E1             ; ‡¡slo podfunkce OK
0000:40DD B001           MOV    AL,01            ; chyba - nespr vn˜ povel
0000:40DF EB92         * JMP    4073             ; n vrat s chybou

0000:40E1 16           * PUSH   SS
0000:40E2 1F             POP    DS
0000:40E3 E899FD         CALL   3E7F             ; nalezen¡ tabulky souboru
0000:40E6 7304           JNB    40EC             ; popisova‡ nalezen OK
0000:40E8 B006           MOV    AL,06            ; chyba - neplatn˜ idemtifik.
0000:40EA EBF3           JMP    40DF             ; n vrat s chybou
                                               ;* poskytnut¡ data a ‡asu souboru
0000:40EC 0AC0         * OR     AL,AL            ; je poskytnut¡ data a ‡asu ?
0000:40EE 7513           JNZ    4103             ; je nastaven¡ data a ‡asu
0000:40F0 268B4D19       MOV    CX,ES:[DI+19]    ; ‡as souboru
0000:40F4 268B5517       MOV    DX,ES:[DI+17]    ; datum souboru
0000:40F8 E8E7C6         CALL   07E2             ; nastaven¡ ukazat. na registry
0000:40FB 894C04         MOV    [SI+04],CX       ; n vrat CX = ‡as souboru
0000:40FE 895406         MOV    [SI+06],DX       ; n vrat DX = datum souboru
0000:4101 EBD4         * JMP    40D7             ; n vrat - funkce OK
                                               ;* nastaven¡ data a ‡asu souboru
0000:4103 26894D19     * MOV    ES:[DI+19],CX    ; nastaven¡ nov‚ho ‡asu
0000:4107 26895517       MOV    ES:[DI+17],DX    ; nastaven¡ nov‚ho data
0000:410B 2680651BBF     AND    Byte Ptr ES:[DI+1B],BF ; p©¡znak-soub.modifik.
0000:4110 EBEF           JMP    4101             ; n vrat - funkce OK

; -----------------------------------------------------------------------------
;         Inicializace modulu TDOS.SYS
; -----------------------------------------------------------------------------

                                               ;* DS:SI=adresa 1. za©¡zen¡
                                               ;* DX=velikost pamˆti v odstav.
                                               ;* SS:SP=z sobn¡k s n vrat. adr.

                                               ;* £schova parametr–
0000:4112 FA             CLI                     ; z kaz p©eru¨en¡
0000:4113 FC             CLD                     ; smˆr nahoru
0000:4114 2E8916E300     MOV    CS:[00E3],DX     ; velikost pamˆti v odstavc¡ch
0000:4119 2E8926F003     MOV    CS:[03F0],SP     ; z sobn¡k pro n vrat do IO.SYS
0000:411E 2E8C16F203     MOV    CS:[03F2],SS
0000:4123 BCC743         MOV    SP,43C7          ; vlastn¡ z sobn¡k
0000:4126 8CC8           MOV    AX,CS
0000:4128 8ED0           MOV    SS,AX            ; segment vlastn¡ho z sobn¡ku
0000:412A 368C1E0901     MOV    SS:[0109],DS
0000:412F 3689360701     MOV    SS:[0107],SI     ; adresa za©¡zen¡ CON

                                               ;* inicializace konzoly
0000:4134 E8E801         CALL   431F             ; inicializace za©¡zen¡ DS:SI
0000:4137 56             PUSH   SI               ; adresa ovlada‡e za©¡zen¡
0000:4138 83C60A         ADD    SI,+0A           ; jm‚no za©¡zen¡
0000:413B 0E             PUSH   CS
0000:413C 07             POP    ES               ; ES <- 0
0000:413D BF0D00         MOV    DI,000D
0000:4140 B003           MOV    AL,03
0000:4142 AA             STOSB                   ; 000d <- 3
0000:4143 FEC8           DEC    AL
0000:4145 AA             STOSB                   ; 000e <- 2
0000:4146 32C0           XOR    AL,AL
0000:4148 AA             STOSB                   ; 000f <- 0
0000:4149 AA             STOSB                   ; 0010 <- 0
0000:414A B90400         MOV    CX,0004          ; d‚lka jm‚na stand. za©¡zen¡
0000:414D F3             REPZ
0000:414E A5             MOVSW                   ; £schova jm‚na za©¡zen¡
0000:414F B103           MOV    CL,03
0000:4151 B020           MOV    AL,20
0000:4153 F3             REPZ
0000:4154 AA             STOSB                   ; vymaz n¡ zbytku jm‚na
0000:4155 83C70C         ADD    DI,+0C
0000:4158 B0C3           MOV    AL,C3
0000:415A AA             STOSB
0000:415B 5E             POP    SI               ; adresa ovlada‡e za©¡zen¡
0000:415C 8BC6           MOV    AX,SI            ; adresa ovlada‡e za©¡zen¡
0000:415E AB             STOSW                   ; ulo‘en¡ adresy ovlada‡e
0000:415F 8CD8           MOV    AX,DS            ; segment ovlada‡e za©¡zen¡
0000:4161 AB             STOSW                   ; segment ovlada‡e za©¡zen¡
0000:4162 804C0403       OR     Byte Ptr [SI+04],03 ; p©¡znak - ovlada‡ konzoly
0000:4166 368936FC00     MOV    SS:[00FC],SI     ; adresa ovlada‡e konzoly
0000:416B 368C1EFE00     MOV    SS:[00FE],DS

                                               ;* inicial. standardn¡ch za©¡zen¡
0000:4170 C534         * LDS    SI,[SI]          ; adresa n sleduj¡c¡ho za©¡zen¡
0000:4172 E8AA01         CALL   431F             ; inicializace dal¨¡ho za©¡zen¡
0000:4175 F6440408       TEST   Byte Ptr [SI+04],08 ; byly to hodiny ?
0000:4179 74F5           JZ     4170             ; nebyly hodiny - dal¨¡

                                               ;* ovlada‡ hodin
0000:417B 368936F800     MOV    SS:[00F8],SI     ; adresa ovlada‡e hodin
0000:4180 368C1EFA00     MOV    SS:[00FA],DS
0000:4185 BDC943         MOV    BP,43C9          ; konec modulu TDOS.SYS

                                               ;* inicializace ostatn¡ch za©¡z.
0000:4188 C534         * LDS    SI,[SI]          ; adresa dal¨¡ho za©¡zen¡
0000:418A 83FEFF         CMP    SI,-01           ; je konec ©etˆzce za©¡zen¡ ?
0000:418D 7468           JZ     41F7             ; nen¡ ji‘ dal¨¡ za©¡zen¡
0000:418F E88D01         CALL   431F             ; inicalizace za©¡zen¡
0000:4192 F744040080     TEST   Word Ptr [SI+04],8000 ; je to blokov‚ za©¡zen¡ ?
0000:4197 75EF           JNZ    4188             ; nen¡ to blokov‚ za©¡zen¡

                                               ;* inicial. pro blokov‚ za©¡zen¡
0000:4199 368A0E3A01     MOV    CL,SS:[013A]     ; po‡et instalovan˜ch disk–
0000:419E 32ED           XOR    CH,CH            ; CH <- 0
0000:41A0 884C0A         MOV    [SI+0A],CL       ; po‡et disk– ovlada‡e
0000:41A3 368A160001     MOV    DL,SS:[0100]     ; po‡ te‡n¡ ozna‡en¡ disku
0000:41A8 32F6           XOR    DH,DH            ; DH = relativn¡ ukazatel disku
0000:41AA 36000E0001     ADD    SS:[0100],CL     ; zv˜¨en¡ po‡tu instal. disk–
0000:41AF 1E             PUSH   DS               ; £schova DS - segment za©¡zen¡
0000:41B0 56             PUSH   SI               ; £schova SI - offset za©¡zen¡
0000:41B1 36C51E3F01     LDS    BX,SS:[013F]     ; adresa tabulky adres BPB

0000:41B6 8B37         * MOV    SI,[BX]          ; adresa BPB disku
0000:41B8 43             INC    BX
0000:41B9 43             INC    BX               ; adresa n sleduj¡c¡ho disku
0000:41BA 26885600       MOV    ES:[BP+00],DL    ; ‡¡slo disku
0000:41BE 26887601       MOV    ES:[BP+01],DH    ; rel.‡¡slo log.disku ovlada‡e
                                               ;* p©evod tabulky BPB na DOS
0000:41C2 53             PUSH   BX
0000:41C3 51             PUSH   CX
0000:41C4 52             PUSH   DX
0000:41C5 E875CC         CALL   0E3D             ; p©evod tabulky BPB na tab.DOS
0000:41C8 268B4602       MOV    AX,ES:[BP+02]    ; po‡et bajt– na sektor
0000:41CC 363B060101     CMP    AX,SS:[0101]     ; je vˆt¨¡ sektor ne‘ nalezen˜?
0000:41D1 7604           JBE    41D7             ; nen¡ to vˆt¨¡ sektor
0000:41D3 36A30101       MOV    SS:[0101],AX     ; nov˜ maxim ln¡ sektor
0000:41D7 5A           * POP    DX
0000:41D8 59             POP    CX
0000:41D9 5B             POP    BX

0000:41DA 8CD8           MOV    AX,DS            ; segment tabulek BPB
0000:41DC 5E             POP    SI
0000:41DD 1F             POP    DS               ; adresa ovlada‡e disku
0000:41DE 26897612       MOV    ES:[BP+12],SI    ; adresa ovlada‡e disku
0000:41E2 268C5E14       MOV    ES:[BP+14],DS
0000:41E6 1E             PUSH   DS               ; adresa ovlada‡e disku
0000:41E7 56             PUSH   SI
0000:41E8 FEC6           INC    DH               ; zv˜¨en¡ ukazatele log. disku
0000:41EA FEC2           INC    DL               ; zv˜¨en¡ ukazatele disku
0000:41EC 8ED8           MOV    DS,AX            ; segment tabulek BPB
0000:41EE 83C55E         ADD    BP,+5E           ; adresa dal¨¡ho disku
0000:41F1 E2C3           LOOP   41B6             ; dal¨¡ disk
0000:41F3 5E             POP    SI
0000:41F4 1F             POP    DS
0000:41F5 EB91           JMP    4188             ; dal¨¡ za©¡zen¡


0000:41F7 0E           * PUSH   CS
0000:41F8 1F             POP    DS               ; DS <- CS
0000:41F9 8BFD           MOV    DI,BP            ; adresa konce tabulek disk–
0000:41FB 8B2E0101       MOV    BP,[0101]        ; maxim ln¡ velikost sektoru
0000:41FF B81241         MOV    AX,4112          ; d‚lka modulu TDOS.SYS
0000:4202 A3F403         MOV    [03F4],AX        ; d‚lka modulu TDOS.SYS
0000:4205 03C5           ADD    AX,BP            ; p©i‡ten¡ bufferu max. sektoru
0000:4207 051000         ADD    AX,0010          ; zaokrouhlen¡ na odstavec
0000:420A A3F000         MOV    [00F0],AX        ; adresa tabulky disk. za©¡zen¡
0000:420D 8BD0           MOV    DX,AX            ; adresa tabulky disk. za©¡zen¡
0000:420F 81EA1241       SUB    DX,4112          ; velikost disk. bufferu
0000:4213 8BEA           MOV    BP,DX            ; velikost disk. bufferu
0000:4215 03EF           ADD    BP,DI            ; konec tabulek disk– + buffer
0000:4217 81EDB702       SUB    BP,02B7          ; ode‡ten¡ vypou¨tˆn‚ ‡ sti
0000:421B 55             PUSH   BP               ; nov˜ konec TDOS.SYS
0000:421C BFC943         MOV    DI,43C9          ; tabulky diskov˜ch parametr–
0000:421F 83C718         ADD    DI,+18           ; ukazatel na dal¨¡ disk
0000:4222 8A0E0001       MOV    CL,[0100]        ; po‡et instalovan˜ch log.disk–
0000:4226 32ED           XOR    CH,CH            ; CX = po‡et disk–
0000:4228 055E00       * ADD    AX,005E          ; adresa n sleduj¡c¡ho disku
0000:422B AB             STOSW                   ; adresa n sleduj¡c¡ho disku
0000:422C 83C75C         ADD    DI,+5C           ; dal¨¡ disk
0000:422F E2F7           LOOP   4228             ; dal¨¡ disk
0000:4231 83EF5E         SUB    DI,+5E           ; adresa posledn¡ho disku
0000:4234 B8FFFF         MOV    AX,FFFF          ; konec tabulky
0000:4237 AB             STOSW                   ; ozna‡en¡ posledn¡ho disku


0000:4238 83C50F         ADD    BP,+0F           ; zaokrouhlen¡ na odstavec
0000:423B B104           MOV    CL,04            ; po‡et rotac¡ pro p©evod
0000:423D D3ED           SHR    BP,CL            ; p©evod offsetu na odstavce
0000:423F 8CCA           MOV    DX,CS            ; sou‡asn˜ segment
0000:4241 03D5           ADD    DX,BP            ; segment konce TDOS.SYS
0000:4243 BB0F00         MOV    BX,000F
0000:4246 8B0EE300       MOV    CX,[00E3]        ; velikost pamˆti v odstavc¡ch
0000:424A 8CCD           MOV    BP,CS            ; BP <- CS
0000:424C 890EE300       MOV    [00E3],CX        ; velikost pamˆti v odstavc¡ch
0000:4250 8EC5           MOV    ES,BP            ; ES <- CS
0000:4252 268C066D01     MOV    ES:[016D],ES     ; segment za‡ tku modulu TDOS

                                               ;* nastaven¡ adres obsluh INT
0000:4257 33C0           XOR    AX,AX            ; AX <- 0
0000:4259 8ED8           MOV    DS,AX            ; DS <- 0
0000:425B 8EC0           MOV    ES,AX            ; ES <- 0
0000:425D BF8200         MOV    DI,0082          ; adresa INT 20h + 2
0000:4260 8BC5           MOV    AX,BP            ; AX <- CS
0000:4262 C606C000EA     MOV    Byte Ptr [00C0],EA ; instrukce JMP (do DOS)
0000:4267 C706C100DC06   MOV    Word Ptr [00C1],06DC ; offset skoku do DOS
0000:426D A3C300         MOV    [00C3],AX        ; CS
0000:4270 C70600002A2D   MOV    Word Ptr [0000],2D2A ; offset INT 00h
0000:4276 A30200         MOV    [0002],AX        ; segment INT 00h - CS
0000:4279 B91100         MOV    CX,0011
0000:427C F3             REPZ
0000:427D AB             STOSW                   ; nastaven¡ segment– CS pro INT
0000:427E C7068000C706   MOV    Word Ptr [0080],06C7 ; offset INT 20h
0000:4284 C7068400CB06   MOV    Word Ptr [0084],06CB ; offset INT 21h
0000:428A C70688000001   MOV    Word Ptr [0088],0100 ; offset INT 22h
0000:4290 89168A00       MOV    [008A],DX        ; skok do COMMAND.COM
0000:4294 C7068C00DB06   MOV    Word Ptr [008C],06DB ; offset INT 23h
0000:429A C7069000DB06   MOV    Word Ptr [0090],06DB ; offset INT 24h
0000:42A0 C7069400E708   MOV    Word Ptr [0094],08E7 ; offset INT 25h
0000:42A6 C70698002109   MOV    Word Ptr [0098],0921 ; offset INT 26h
0000:42AC C7069C007035   MOV    Word Ptr [009C],3570 ; offset INT 27h
0000:42B2 C706A000DB06   MOV    Word Ptr [00A0],06DB ; offset INT 28h
0000:42B8 B90C00         MOV    CX,000C          ; ukazatele INT 2ah a‘ INT 2fh
0000:42BB 33C0           XOR    AX,AX
0000:42BD BFA800         MOV    DI,00A8          ; ukazatel INT 2ah
0000:42C0 F3             REPZ
0000:42C1 AB             STOSW                   ; vynulov n¡ ukazatel– na INT


0000:42C2 0E             PUSH   CS
0000:42C3 1F             POP    DS               ; DS <- CS
0000:42C4 0E             PUSH   CS
0000:42C5 07             POP    ES               ; ES <- CS
0000:42C6 B8E002         MOV    AX,02E0          ; adresa bufferu DTA
0000:42C9 050F00         ADD    AX,000F          ; zaokrouhlen¡ na odstavec
0000:42CC B104           MOV    CL,04            ; po‡et rotac¡
0000:42CE D3E8           SHR    AX,CL            ; p©evod na odstavce
0000:42D0 8CDF           MOV    DI,DS            ; DI <- CS
0000:42D2 03F8           ADD    DI,AX            ; segment konce bufferu
0000:42D4 47             INC    DI
0000:42D5 893E8B01       MOV    [018B],DI        ; segment aktivn¡ho PSP
0000:42D9 55             PUSH   BP
0000:42DA 52             PUSH   DX
0000:42DB A1E300         MOV    AX,[00E3]        ; velikost pamˆti v odstavc¡ch
0000:42DE 8BD7           MOV    DX,DI            ; segment popisova‡–
0000:42E0 E86EC9         CALL   0C51             ; vytvo©en¡ z klad. alok. bloku
0000:42E3 0E             PUSH   CS
0000:42E4 1F             POP    DS               ; DS <- CS
0000:42E5 BF1800         MOV    DI,0018
0000:42E8 33C0           XOR    AX,AX
0000:42EA AB             STOSW
0000:42EB AA             STOSB
0000:42EC B0FF           MOV    AL,FF
0000:42EE B91100         MOV    CX,0011
0000:42F1 F3             REPZ
0000:42F2 AA             STOSB
0000:42F3 0E             PUSH   CS
0000:42F4 07             POP    ES               ; ES <- CS
0000:42F5 8C1EF600       MOV    [00F6],DS        ;
0000:42F9 BE8B06         MOV    SI,068B          ; text - za‡ tek © dku
0000:42FC E8CEC8         CALL   0BCD             ; kurzor na za‡ tek © dku
0000:42FF 0E             PUSH   CS
0000:4300 1F             POP    DS               ; DS <- CS
0000:4301 0E             PUSH   CS
0000:4302 07             POP    ES               ; ES <- CS
0000:4303 5A             POP    DX
0000:4304 5D             POP    BP               ; n vrat CS
0000:4305 59             POP    CX
0000:4306 BEC943         MOV    SI,43C9          ; za‡ tek tabulky disk. param.
0000:4309 8B3EF000       MOV    DI,[00F0]        ; adresa tabulky disk. za©¡zen¡
0000:430D 2BCF           SUB    CX,DI            ; d‚lka tabulky k p©enosu
0000:430F 3BFE           CMP    DI,SI            ; je p©enos nahoru ?
0000:4311 7607           JBE    431A             ; je p©enos n¡‘e
0000:4313 49             DEC    CX
0000:4314 03F9           ADD    DI,CX            ; nov˜ konec
0000:4316 03F1           ADD    SI,CX            ; star˜ konec
0000:4318 41             INC    CX
0000:4319 FD             STD                     ; smˆr dol–
0000:431A 8EC5         * MOV    ES,BP            ; ES <- CS
0000:431C E9D7C0         JMP    03F6             ; pokra‡ov n¡ v inicializaci
; -----------------------------------------------------------------------------
;         Inicializace za©¡zen¡ DS:SI
; -----------------------------------------------------------------------------
                                               ;* inicializace za©¡zen¡ DS:SI
0000:431F 36C6062D011A   MOV    Byte Ptr SS:[012D],1A ; d‚lka z hlav¡
0000:4325 36C6062E0100   MOV    Byte Ptr SS:[012E],00 ; ‡¡slo disk. jednotky
0000:432B 36C6062F0100   MOV    Byte Ptr SS:[012F],00 ; k¢d povelu-inicializace
0000:4331 36C70630010000 MOV    Word Ptr SS:[0130],0000 ; stavov‚ slovo za©¡z.
0000:4338 06             PUSH   ES               ; £schova ES
0000:4339 53             PUSH   BX               ; £schova BX
0000:433A 50             PUSH   AX               ; £schova AX
0000:433B BB2D01         MOV    BX,012D          ; adresa z hlav¡ za©¡zen¡
0000:433E 0E             PUSH   CS
0000:433F 07             POP    ES               ; ES <- CS
0000:4340 E8AED0         CALL   13F1             ; vol n¡ obsluhy za©¡zen¡ DS:SI
0000:4343 58             POP    AX               ; n vrat AX
0000:4344 5B             POP    BX               ; n vrat BX
0000:4345 07             POP    ES               ; n vrat ES
0000:4346 C3             RET
; -----------------------------------------------------------------------------
0000:4347                dw     40h dup(0)       ; z sobn¡k

0000:43c7                                        ; konec vlastn¡ho z sobn¡ku
                         dw     0


0000:06D0  E9 CA 01 80 FC 58 90 76-1A B0 00 CF 58 58 2E 8F  iJ..|X.v.0.OXX..
0000:06E0  06 1B 04 9C FA 50 2E FF-36 1B 04 80 F9 24 90 77  ....zP..6...y$.w
0000:06F0  E8 8A E1 E8 DC 00 2E 8C-1E 7E 04 2E 89 1E 7C 04  h.ah\....~....|.
0000:0700  8C CB 8E DB FE 06 23 01-A1 1B 04 A3 68 06 A1 1D  .K.[~.#.!..#h.!.
0000:0710  04 A3 66 06 58 50 89 26-1B 04 8C 16 1D 04 8E 1E  .#f.XP.&........
0000:0720  8B 01 89 26 2E 00 8C 16-30 00 8C CB 8E D3 BC 26  ...&....0..K.S<&
0000:0730  05 FB 0E 1F 32 FF 88 3E-26 01 C6 06 27 01 01 C6  .{..2..>&.F.'..F
0000:0740  06 D5 00 00 8A DC D1 E3-FC 0A E4 74 1B 80 FC 0C  .U...\Qc|.dt..|.
0000:0750  76 0A 80 FC 51 74 05 80-FC 50 75 0C 80 3E 24 01  v..|Qt..|Pu..>$.
0000:0760  00 75 1E BC 66 06 EB 19-C6 06 24 01 00 C6 06 25  .u.<f.k.F.$..F.%
0000:0770  01 FF BC C6 05 F6 06 28-01 FF 74 05 50 E8 73 24  ..<F.v.(..t.Phs$
0000:0780  58 FF 36 8E 01 2E FF B7-E8 07 8B 1E 7C 04 8E 1E  X.6....7h...|...
0000:0790  7E 04 C3 FA 2E FE 0E 23-01 2E 8B 26 1B 04 2E 8E  ~.Cz.~.#...&....
0000:07A0  16 1D 04 8B EC 88 46 00-2E A1 68 06 2E A3 1B 04  ....l.F..!h..#..
0000:07B0  2E A1 66 06 2E A3 1D 04-E8 03 00 CF 00 00 2E 8F  .!f..#..h..O....
0000:07C0  06 BC 07 58 5B 59 5A 5E-5F 5D 1F 07 2E FF 36 BC  .<.X[YZ^_]....6<
0000:07D0  07 C3 2E 8F 06 BC 07 06-1E 55 57 56 52 51 53 50  .C...<...UWVRQSP




0000:08A0  89 16 87 01 2E 8C 1E 89-01 CF 2E 83 3E 87 01 FF  .........O..>...
0000:08B0  75 03 E9 24 FE 2E FF 2E-87 01 2E 89 1E 8B 01 C3  u.i$~..........C
0000:08C0  E8 1F FF 2E FF 36 8B 01-8F 44 02 C3 2E 89 1E 6E  h....6...D.C...n
0000:08D0  04 2E 8C 06 70 04 CB 06-53 2E C4 1E 6E 04 26 81  ....p.K.S.D.n.&.
0000:08E0  4F 03 00 01 5B 07 CB FA-2E 8C 16 1D 04 2E 89 26  O...[.Kz.......&
0000:08F0  1B 04 0E 17 BC C6 05 36-FE 06 23 01 FB FC 06 1E  ....<F.6~.#.{|..
0000:0900  16 1F E8 50 0B 1F 72 06-E8 17 14 74 01 F9 07 FA  ..hP..r.h..t.y.z
0000:0910  36 FE 0E 23 01 36 8B 26-1B 04 36 8E 16 1D 04 FB  6~.#.6.&..6....{
0000:0920  CB FA 2E 8C 16 1D 04 2E-89 26 1B 04 0E 17 BC C6  Kz.......&....<F
0000:0930  05 36 FE 06 23 01 FB FC-06 1E 16 1F E8 16 0B 1F  .6~.#.{|....h...
0000:0940  72 CC E8 01 14 EB C4 E8-98 FE FF 74 16 9D F8 EB  rLh..kDh.~.t..xk
0000:0950  0A 32 E4 E8 8C FE FF 74-16 9D F9 89 04 9C 8F 44  .2dh.~.t..y....D
0000:0960  16 C3 3C 80 72 10 3C A7-77 0C 2C 80 1E 53 0E 1F  .C<.r.<'w.,..S..

0000:0970  BB 77 09 D7 5B 1F CB 80-9A 45 41 8E 41 8F 80 45  ;w.W[.K..EA.A..E
0000:0980  45 45 49 49 49 8E 8F 90-92 92 4F 99 4F 55 55 59  EEIII.....O.OUUY
0000:0990  99 9A 9B 9C 9D 9E 9F 41-49 4F 55 95 95 96 97 00  .......AIOU.....
0000:09A0  40 4D 3B 53 3C 3E 3D 3D-3F 4B 52 41 41 CB 36 BB  @M;S<>==?KRAAK6;
0000:09B0  37 44 38 50 37 30 38 3D-37 C2 37 F5 37 C8 37 EB  7D8P708=7B7u7H7k
0000:09C0  37 CD 37 CD 37 4C 38 E8-AB 2C B1 0D 57 BF A0 09  7M7M7L8h+,1.W? .

0000:09D0  F2 AE 5F D1 E1 8B E9 FF-A6 AD 09 B2 00 16 1F 8A  r._Qa.i.&-.2....
0000:09E0  C2 E8 B3 12 B0 FF 72 15-E8 F8 18 26 8B 56 0D 4A  Bh3.0.r.hx.&.V.J
0000:09F0  26 8A 46 04 FE C0 26 8B-4E 02 83 C5 16 E8 E2 FD  &.F.~@&.N..E.hb}
0000:0A00  89 4C 04 89 54 06 89 6C-02 8C 44 0E C3 32 C0 36  .L..T..l..D.C2@6
0000:0A10  C6 06 84 04 00 36 8A 26-84 04 36 A3 82 04 E8 C1  F....6.&..6#..hA
0000:0A20  FD 8E 5C 14 33 C0 8E C0-BE 0A 00 BF 88 00 A5 A5  }.\.3@.@>..?..%%
0000:0A30  A5 A5 A5 A5 E9 0F 24 E8-1F 0B B2 00 72 52 0A E4  %%%%i.$h..2.rR.d
0000:0A40  78 05 A1 21 01 FE C2 26-89 45 10 A1 26 04 26 89  x.!!.~B&.E.!&.&.
0000:0A50  45 12 A1 28 04 26 89 45-14 A1 4D 04 26 89 45 16  E.!(.&.E.!M.&.E.
0000:0A60  8B F3 C4 3E DF 00 B8 FF-00 3A 06 17 04 75 09 AB  .sD>_.8..:...u.+
0000:0A70  FE C0 AB AB A0 FB 03 AA-A0 25 04 FE C0 AA 0A D2  ~@++ {.* %.~@*.R
0000:0A80  74 04 8E 1E 6B 04 B9 10-00 F3 A5 32 C0 C3 1E 07  t...k.9..s%2@C..
0000:0A90  B8 FF FF 26 89 45 10 C3-E8 38 25 8B FA 72 EF 8B  8..&.E.Ch8%.zro.
0000:0AA0  45 10 C4 6D 12 0B C0 78-E5 8B 5D 16 52 1E 50 36  E.Dm..@xe.].R.P6
0000:0AB0  89 2E 26 04 36 8C 06 28-04 E8 19 0C 58 C7 06 61  ..&.6..(.h..XG.a
0000:0AC0  04 FF FF E8 51 0B E8 F0-0A 07 5F E9 6C FF E8 88  ...hQ.hp.._il.h.
0000:0AD0  0A B0 FF 72 C2 83 C7 21-26 8B 4D ED 0B C9 75 03  .0.rB.G!&.Mm.Iu.
0000:0AE0  B9 80 00 33 D2 46 46 8E-1E 6B 04 8B 44 02 F7 F1  9..3RFF..k..D.wq
0000:0AF0  50 AD F7 F1 0B D2 5A 74-04 40 75 01 42 AB 8B C2  P-wq.RZt.@u.B+.B
0000:0B00  AA B0 00 83 F9 40 73 03-26 88 25 C3 E8 75 1A 89  *0..y@s.&.%Chu..
0000:0B10  45 21 88 55 23 83 7D 0E-40 73 03 88 75 24 C3 16  E!.U#.}.@s..u$C.
0000:0B20  1F B0 FF E8 B5 1C C7 06-2B 01 FF FF C7 06 29 01  .0.h5.G.+...G.).
0000:0B30  FF FF E8 2E 1B C6 45 07-01 80 7D 04 FF 74 08 C7  ..h..FE...}..t.G
0000:0B40  45 04 FF 00 E8 45 1B E8-32 1B 75 E9 C3 8A C2 3C  E...hE.h2.uiC.B<
0000:0B50  FF 75 3A 36 C4 3E 1B 04-33 DB E8 27 11 72 ED B4  .u:6D>..3[h'.rm4
0000:0B60  01 E8 5A 07 75 0B E8 FE-20 26 80 4D 16 40 32 C0  .hZ.u.h~ &.M.@2@
0000:0B70  C3 26 80 65 16 BF E8 EE-20 33 DB E8 06 11 72 F0  C&.e.?hn 3[h..rp
0000:0B80  B4 01 E8 39 07 74 EF 32-E4 E8 32 07 C3 53 BB 01  4.h9.to2dh2.CS;.
0000:0B90  00 E8 F0 10 72 1B F6 44-18 80 74 11 1E 56 C5 74  .hp.r.vD..t..VEt
0000:0BA0  19 F6 44 04 10 5E 1F 74-04 CD 29 EB 03 E8 08 00  .vD..^.t.M)k.h..
0000:0BB0  F8 5B C3 E8 CE 10 72 FA-50 EB 03 E8 A9 20 B4 03  x[ChN.rzPk.h) 4.
0000:0BC0  E8 FB 06 74 F6 58 B4 02-E8 F3 06 F8 C3 2E AC 3C  h{.tvX4.hs.xC.,<
0000:0BD0  24 74 F9 E8 D7 29 EB F5-C3 E8 DF 22 56 E8 02 FC  $tyhW)kuCh_"Vh.|
0000:0BE0  8F 44 08 C3 36 C6 06 8D-01 FF 8E C2 2E F6 06 8D  .D.C6F.....B.v..
0000:0BF0  01 FF 74 07 2E 8E 1E 8B-01 EB 06 E8 E4 FB 8E 5C  ..t......k.hd{.\
0000:0C00  14 33 F6 8B FE B9 80 00-F3 A5 2E F6 06 8D 01 FF  .3v.~9..s%.v....
0000:0C10  74 36 0E 1F 33 DB B9 14-00 06 E8 76 32 72 14 06  t6..3[9...hv2r..
0000:0C20  57 E8 5B 32 72 03 26 FE-05 5F 07 26 8A 05 07 06  Wh[2r.&~._.&....
0000:0C30  26 8A 07 07 43 E2 E2 FF-36 8B 01 5B 53 26 8F 06  &...Cbb.6..[S&..
0000:0C40  16 00 8C 06 8B 01 8E DB-2E C6 06 8D 01 00 A1 02  .......[.F....!.
0000:0C50  00 33 C9 8E D9 8E C2 BE-88 00 BF 0A 00 B9 06 00  .3I.Y.B>..?..9..
0000:0C60  F3 A5 26 A3 02 00 2B C2-3D FF 0F 76 03 B8 FF 0F  s%&#..+B=..v.8..
0000:0C70  BB 0C 00 2B D8 B1 04 D3-E0 8E DA A3 06 00 89 1E  ;..+X1.S`.Z#....
0000:0C80  08 00 C7 06 00 00 CD 20-C6 06 05 00 9A C7 06 50  ..G...M F....G.P
0000:0C90  00 CD 21 C6 06 52 00 CB-C3 00 00 00 29 02 0B 16  .M!F.R.KC...)...
0000:0CA0  1F 8B 1E 9B 0C 8B 0E 99-0C A1 9D 0C E8 33 FB 89  .........!..h3{.
0000:0CB0  5C 02 89 4C 04 89 04 C3-8A D8 1E 07 52 5F 16 1F  \..L...C.X..R_..
0000:0CC0  83 FF FF 74 40 0A DB 75-0B 8B 36 A4 01 8B 44 FE  ...t@.[u..6$..D~
0000:0CD0  8A DC EB 1E E8 07 00 73-19 B0 02 E9 73 FC BE A6  .\k.h..s.0.is|>&
0000:0CE0  01 AD 3C FF 75 02 F9 C3-3A DC 74 FB 32 E4 03 F0  .-<.u.yC:\t{2d.p
0000:0CF0  EB EF 8A C8 32 ED 57 F3-A4 5F 26 8C 4D 14 33 C0  ko.H2mWs$_&.M.3@
0000:0D00  8A C3 E9 42 FC E8 D6 FF-73 04 B0 02 EB CD 89 36  .CiB|hV.s.0.kM.6
0000:0D10  A4 01 EB EA 36 A0 DB 00-C3 24 01 36 A2 DB 00 C3  $.kj6 [.C$.6"[.C
0000:0D20  0A C0 75 0B E8 BB FA 36-A0 28 01 88 44 06 C3 FE  .@u.h;z6 (..D.C~
0000:0D30  C8 75 09 80 E2 01 36 88-16 28 01 C3 B0 FF C3 E8  Hu..b.6..(.C0.Ch
0000:0D40  A0 FA C7 44 02 23 01 8C-54 10 C3 E8 94 FA C7 44   zGD.#..T.Ch.zGD
0000:0D50  02 F0 00 8C 54 10 C3 16-1F 8A C2 E8 39 0F B8 FF  .p..T.C...Bh9.8.
0000:0D60  FF 72 24 E8 7D 15 33 D2-BB 02 00 26 8B 4E 0D 49  .r$h}.3R;..&.N.I
0000:0D70  51 E8 6D 14 75 01 42 43-E2 F7 5B 26 8A 46 04 FE  Qhm.u.BCbw[&.F.~
0000:0D80  C0 32 E4 26 8B 4E 02 E8-58 FA 89 4C 04 89 5C 06  @2d&.N.hXz.L..\.
0000:0D90  89 54 02 89 04 C3 36 8B-1E DF 00 36 8B 0E E1 00  .T...C6.._.6..a.
0000:0DA0  E8 3F FA 89 5C 02 89 4C-10 C3 36 89 16 DF 00 36  h?z.\..L.C6.._.6
0000:0DB0  8C 1E E1 00 C3 B2 00 16-1F 8A C2 E8 D9 0E 72 0F  ..a.C2....BhY.r.
0000:0DC0  E8 20 15 E8 1C FA 89 6C-02 8C 44 0E 32 C0 C3 B0  h .h.z.l..D.2@C0
0000:0DD0  FF C3 36 A0 20 01 C3 36-A0 00 01 3A D0 73 05 36  .C6  .C6 ..:Ps.6
0000:0DE0  88 16 20 01 C3 E8 18 00-26 C4 1F E8 F4 F9 89 5C  .. .Ch..&D.hty.\
0000:0DF0  02 8C 44 10 C3 E8 08 00-26 89 17 26 8C 5F 02 C3  ..D.Ch..&..&._.C
0000:0E00  33 DB 8E C3 8A D8 D1 E3-D1 E3 C3 16 1F 0A C0 75  3[.C.XQcQcC...@u
0000:0E10  06 8A 16 E5 00 EB 1F FE-C8 75 05 88 16 E5 00 C3  ...e.k.~Hu...e.C
0000:0E20  FE C8 75 06 8A 16 E6 00-EB 0C FE C8 75 05 88 16  ~Hu...f.k.~Hu...
0000:0E30  E6 00 C3 B0 FF C3 E8 A9-F9 89 54 06 C3 8B FD 83  f.C0.Ch)y.T.C.}.
0000:0E40  C7 02 AD AB 8B D0 AC FE-C8 AA FE C0 32 E4 A8 01  G.-+.P,~H*~@2d(.
0000:0E50  75 06 FE C4 D0 E8 EB F6-8A C4 AA 8A D8 A5 AC AA  u.~DPhkv.D*.X%,*
0000:0E60  8A F8 AD AB B1 05 D3 EA-48 03 C2 8B CA 33 D2 F7  .x-+1.SjH.B.J3Rw
0000:0E70  F1 8B C8 47 47 A5 AC 26-88 46 16 AD AA F6 E7 26  q.HGG%,&.F.-*vg&
0000:0E80  03 46 06 AB 03 C1 26 89-46 0B 26 2B 46 0D F7 D8  .F.+.A&.F.&+F.wX
0000:0E90  8A CB D3 E8 40 26 89 46-0D 26 C7 46 1C 00 00 C3  .KSh@&.F.&GF...C
0000:0EA0  E9 B0 00 E9 AB 00 E8 1D-2B 72 F5 8B F2 36 8C 16  i0.i+.h.+ru.r6..
0000:0EB0  3D 04 36 C7 06 3B 04 FE-04 B0 10 36 C7 06 18 04  =.6G.;.~.0.6G...
0000:0EC0  00 E5 E8 3A 08 B0 03 72-D7 75 D8 C5 3E 69 04 2B  .eh:.0.rWuXE>i.+
0000:0ED0  F7 56 FF 75 08 16 1F FF-36 4D 04 33 C0 A3 4D 04  wV.u....6M.3@#M.
0000:0EE0  E8 E4 05 72 51 E8 2F 07-C4 3E 69 04 26 C6 45 05  hd.rQh/.D>i.&FE.
0000:0EF0  01 83 C7 10 B8 2E 20 AB-8B 16 4D 04 E8 37 06 B8  ..G.8. +..M.h7.8
0000:0F00  2E 2E AB 5A E8 2F 06 C4-2E 26 04 5A 32 C0 E8 28  ..+Zh/.D.&.Z2@h(
0000:0F10  18 8B 16 4D 04 C5 3E 69-04 5E 03 F7 89 14 33 D2  ...M.E>i.^.w..3R
0000:0F20  89 54 02 89 54 04 C6 45-05 01 16 1F 26 8A 46 00  .T..T.FE....&.F.
0000:0F30  E8 A8 18 E9 11 FA 5A 5A-C4 2E 26 04 32 C0 E8 F8  h(.i.zZZD.&.2@hx
0000:0F40  17 C5 3E 69 04 5E 03 F7-83 EE 1A C6 04 E5 E8 D5  .E>i.^.w.n.F.ehU
0000:0F50  FF B0 05 E9 FB F9 E8 6D-2A 72 5A 1E 52 8B F2 E8  .0.i{yhm*rZ.R.rh
0000:0F60  3F 08 72 4F 75 4D A1 4D-04 8B D8 26 87 5E 1C 0B  ?.rOuM!M..X&.^..
0000:0F70  C0 5E 1F 74 BE 8B FD 83-C7 1E 8B D7 36 80 3E 2B  @^.t>.}.G..W6.>+
0000:0F80  04 00 74 02 46 46 8B CE-36 80 3E 2C 04 00 74 04  ..t.FF.N6.>,..t.
0000:0F90  46 41 EB 2B 0B DB 74 29-33 DB 26 80 3D 00 74 04  FAk+.[t)3[&.=.t.
0000:0FA0  47 43 EB F6 B0 2F 36 3A-06 E5 00 75 02 B0 5C AA  GCkv0/6:.e.u.0\*
0000:0FB0  43 EB 1D 58 58 B0 03 E9-97 F9 43 83 FB 40 C3 33  Ck.XX0.i.yC.{@C3
0000:0FC0  DB AC 0A C0 75 03 E9 89-00 3C 2E 74 1D E8 2D 00  [,.@u.i..<.t.h-.
0000:0FD0  83 FB 40 72 EC 26 8A 45-FF E8 C5 20 75 01 4F 32  .{@rl&.E.hE u.O2
0000:0FE0  C0 AA 26 C7 46 1C FF FF-EB CB AC 0A C0 74 62 3C  @*&GF...kK,.@tb<
0000:0FF0  2E 75 CE E8 46 00 AC 0A-C0 74 56 EB C4 57 51 B9  .uNhF.,.@tVkDWQ9
0000:1000  00 08 B4 2E E8 4F 00 E8-B1 FF 73 13 3A E0 74 12  ..4.hO.h1.s.:`t.
0000:1010  0A C0 74 07 AA E8 A2 FF-73 05 46 4E 59 58 C3 59  .@t.*h".s.FNYXCY
0000:1020  5F C3 AA E8 94 FF 73 F7-AC 32 E4 B9 00 03 E8 25  _C*h..sw,2d9..h%
0000:1030  00 E8 87 FF 73 E9 0A C0-74 E1 EB D8 4F 4B 3B FA  .h..si.@takXOK;z
0000:1040  74 DF 50 26 8A 45 FF E8-57 20 58 74 D4 4F 4B EB  t_P&.E.hW XtTOKk
0000:1050  ED 4F AA E9 F1 F8 AA FE-C1 E8 5E FF 73 14 0A C0  mO*iqx*~Ah^.s..@
0000:1060  74 10 3A CD 76 02 4F 4B-AC E8 35 20 74 04 3A C4  t.:Mv.OK,h5 t.:D
0000:1070  75 E4 C3 E9 A5 00 E8 4D-29 72 F8 8B F2 E8 21 07  udCi%.hM)rx.rh!.
0000:1080  72 F1 75 21 8B 3E 4D 04-0B FF 74 19 26 8B 4E 1C  rqu!.>M...t.&.N.
0000:1090  83 F9 FF 75 15 E8 F7 05-E8 47 F7 8B 54 06 8E 5C  .y.u.hw.hGw.T..\
0000:10A0  0E EB D3 58 58 B0 05 E9-A7 F8 3B F9 75 04 B0 10  .kSXX0.i'x;yu.0.
0000:10B0  EB F5 C5 3E 69 04 2B DF-53 FF 75 08 16 1F 16 07  kuE>i.+_S.u.....
0000:10C0  BF EF 03 B0 3F B9 0B 00-F3 AA 32 C0 AA E8 88 08  ?o.0?9..s*2@*h..
0000:10D0  E8 41 05 8E 1E 6B 04 8B-F3 AD 3D 2E 20 75 C4 83  hA...k..s-=. uD.
0000:10E0  C6 1E AD 3D 2E 2E 75 BB-16 1F C7 06 21 01 02 00  F.-=..u;..G.!...
0000:10F0  E8 21 05 C6 06 FB 03 16-E8 8B 04 73 A6 C4 2E 26  h!.F.{..h..s&D.&
0000:1100  04 8B 1E 4D 04 E8 3A 15-5A 32 C0 E8 2B 16 C5 3E  ...M.h:.Z2@h+.E>
0000:1110  69 04 5B 03 DF C6 07 E5-E9 0B FE B0 03 EB 91 BF  i.[._F.ei.~0.k.?
0000:1120  00 00 36 A1 EE 00 E8 20-00 73 01 C3 06 1F 39 1E  ..6!n.h .s.C..9.
0000:1130  01 00 75 04 89 3E 01 00-80 3D 5A 74 EE E8 02 00  ..u..>...=Ztnh..
0000:1140  EB E7 8C D8 03 06 03 00-40 8E C0 26 80 3D 4D 74  kg.X....@.@&.=Mt
0000:1150  08 26 80 3D 5A 74 02 F9-C3 F8 C3 80 3D 5A 74 FA  .&.=Zt.yCxC.=Ztz
0000:1160  E8 DF FF 72 F5 26 39 3E-01 00 75 EE 26 8B 0E 03  h_.ru&9>..un&...
0000:1170  00 41 01 0E 03 00 26 8A-0D 88 0D EB DE 33 C0 8B  .A....&....k^3@.
0000:1180  F8 36 A3 E7 00 36 A3 E9-00 36 A3 EB 00 50 36 A1  x6#g.6#i.6#k.P6!
0000:1190  EE 00 E8 B4 FF 72 12 06-1F 39 3E 01 00 74 23 80  n.h4.r...9>..t#.
0000:11A0  3D 5A 74 0B E8 9B FF 73-EE 58 B0 07 E9 A2 F7 36  =Zt.h..snX0.i"w6
0000:11B0  83 3E E7 00 00 75 68 E8-28 F6 5B 89 5C 02 B0 08  .>g..uhh(v[.\.0.
0000:11C0  EB EA E8 96 FF 72 E2 8B-0E 03 00 5A 3B CA 76 02  kjh..rb....Z;Jv.
0000:11D0  8B D1 52 3B D9 77 C8 36-83 3E E7 00 00 75 05 36  .QR;YwH6.>g..u.6
0000:11E0  8C 1E E7 00 36 83 3E E9-00 00 74 0E 06 36 8E 06  ..g.6.>i..t..6..
0000:11F0  E9 00 26 39 0E 03 00 07-76 05 36 8C 1E E9 00 36  i.&9....v.6..i.6
0000:1200  8C 1E EB 00 EB 99 36 8E-1E EB 00 8B 0E 03 00 2B  ..k.k.6..k.....+
0000:1210  CB 8C DA 74 45 03 D1 8E-C2 49 87 D9 EB 27 90 36  K.ZtE.Q.BI.Yk'.6
0000:1220  80 3E ED 00 01 77 DF 36-8E 1E E7 00 72 05 36 8E  .>m..w_6..g.r.6.
0000:1230  1E E9 00 8B 0E 03 00 2B-CB 8C D8 8B D0 74 1B 03  .i.....+K.X.Pt..
0000:1240  C3 40 8E C0 49 89 1E 03-00 26 89 0E 03 00 B3 4D  C@.@I....&....3M
0000:1250  86 1D 26 88 1D 26 89 3E-01 00 8E DA 36 A1 8B 01  ..&..&.>...Z6!..
0000:1260  A3 01 00 8C D8 40 5B E9-DD F6 BF 00 00 8C C0 48  #...X@[i]v?...@H
0000:1270  E8 D6 FE 73 03 E9 32 FF-8E D8 E8 DE FE 72 F6 8B  hV~s.i2..Xh^~rv.
0000:1280  0E 03 00 51 3B D9 76 AB-E9 2C FF BF 00 00 8C C0  ...Q;Yv+i,.?...@
0000:1290  48 E8 B5 FE 72 07 26 89-3E 01 00 EB CA B0 09 E9  Hh5~r.&.>..kJ0.i
0000:12A0  AF F6 3C 01 72 06 74 0C-B0 01 EB F3 36 A0 ED 00  /v<.r.t.0.ks6 m.
0000:12B0  32 E4 EB E7 36 88 1E ED-00 EB F7 E8 00 F5 36 8C  2dkg6..m.kwh.u6.
0000:12C0  16 57 01 36 C7 06 55 01-E9 03 36 C7 06 59 01 01  .W.6G.U.i.6G.Y..
0000:12D0  00 36 A3 E9 03 F6 44 18-80 75 03 E9 80 00 E8 F1  .6#i.vD..u.i..hq
0000:12E0  F4 1E 16 07 16 1F 33 DB-89 1E 4A 01 88 1E 54 01  t.....3[..J...T.
0000:12F0  BB 47 01 B9 16 04 0A E4-74 18 B9 0E 05 FE CC 74  ;G.9...dt.9..~Lt
0000:1300  11 B9 16 08 FE CC 74 52-B9 0D 0A FE CC 74 4B B9  .9..~LtR9..~LtK9
0000:1310  0F 07 B4 86 88 0E 47 01-88 2E 49 01 8A CC 1F E8  ..4...G...I..L.h
0000:1320  CC 00 36 8B 3E 4A 01 F7-C7 00 80 74 0F 8A E1 E8  L.6.>J.wG..t..ah
0000:1330  3B 1A 3C 01 74 85 36 80-26 4B 01 FD 16 1F 80 FD  ;.<.t.6.&K.}...}
0000:1340  05 75 06 A0 54 01 A2 E9-03 8A 26 4B 01 F6 D4 80  .u. T."i..&K.vT.
0000:1350  E4 02 E8 69 F4 36 A1 E9-03 C3 B4 87 EB B6 0A E4  d.hit6!i.C4.k6.d
0000:1360  74 26 FE CC 74 05 FE CC-74 11 C3 FF 74 21 FF 74  t&~Lt.~Lt.C.t!.t
0000:1370  23 E8 14 00 8F 44 23 8F-44 21 C3 E8 23 00 E8 FF  #h...D#.D!Ch#.h.
0000:1380  07 E8 9F 15 E8 50 00 C3-E8 16 00 E8 BB 06 51 E8  .h..hP.Ch..h;.Qh
0000:1390  91 15 59 0B C9 E8 3F 00-36 A0 E9 03 75 E9 B0 1A  ..Y.Ih?.6 i.ui0.
0000:13A0  C3 36 8F 06 3F 01 E8 29-F4 36 FF 36 DF 00 36 FF  C6..?.h)t6.6_.6.
0000:13B0  36 E1 00 1E 16 1F 8B 0E-57 01 89 0E E1 00 8B 0E  6a......W...a...
0000:13C0  55 01 89 0E DF 00 8B 0E-59 01 1F C7 44 0E 01 00  U..._...Y..GD...
0000:13D0  8B D6 E8 2B 10 EB 12 36-8F 06 3F 01 36 8F 06 E1  .Vh+.k.6..?.6..a
0000:13E0  00 36 8F 06 DF 00 E8 D5-F3 36 FF 26 3F 01 C5 74  .6.._.hUs6.&?.Et
0000:13F0  19 8B 44 06 36 A3 43 01-36 8C 1E 45 01 36 FF 1E  ..D.6#C.6..E.6..
0000:1400  43 01 8B 44 08 36 A3 43-01 36 FF 1E 43 01 C3 56  C..D.6#C.6..C.CV
0000:1410  57 51 F6 06 FB 03 08 75-20 BE 07 01 F7 44 04 00  WQv.{..u >..wD..
0000:1420  80 74 0F 56 83 C6 0A BF-EF 03 B9 04 00 F3 A7 5E  .t.V.F.?o.9..s'^
0000:1430  74 0E C5 34 83 FE FF 75-E3 F9 16 1F 59 5F 5E C3  t.E4.~.ucy..Y_^C
0000:1440  36 8C 1E 39 04 8A 7C 04-80 CF C0 80 E7 DF 36 89  6..9..|..O@.g_6.
0000:1450  36 37 04 EB E5 C4 2E F0-00 24 3F 3A 06 00 01 F5  67.keD.p.$?:...u
0000:1460  72 0C 26 3A 46 00 74 06-26 C4 6E 18 EB F4 89 2E  r.&:F.t.&Dn.kt..
0000:1470  26 04 8C 06 28 04 C3 57-51 50 B1 04 B0 16 16 07  &...(.CWQP1.0...
0000:1480  BF 2D 01 AA 58 AA 50 8A-C1 AA 33 C0 AB 83 C7 08  ?-.*X*P.A*3@+.G.
0000:1490  58 86 E0 AA 86 C4 50 8B-C3 AB 8C D8 AB 59 58 AB  X.`*.DP.C+.X+YX+
0000:14A0  92 AB 91 87 D1 5F BB 2D-01 C3 57 51 50 B1 08 36  .+..Q_;-.CWQP1.6
0000:14B0  02 0E DB 00 EB C6 A1 5F-04 3D FF FF 75 76 83 3E  ..[.kF!_.=..uv.>
0000:14C0  4D 04 00 75 02 F9 C3 8B-1E 4D 04 0B DB 74 03 E8  M..u.yC..M..[t.h
0000:14D0  84 11 B9 01 00 E8 CC 10-72 EC 8B 16 4D 04 0B D2  ..9..hL.rl..M..R
0000:14E0  75 0B E8 F0 01 C7 06 21-01 FF FF EB 13 81 3E 49  u.hp.G.!...k..>I
0000:14F0  04 F8 0F 72 04 89 1E 49-04 8B D3 32 DB E8 73 10  .x.r...I..S2[hs.
0000:1500  26 8A 4E 04 FE C1 32 ED-51 B0 FF E8 2B 12 26 8B  &.N.~A2mQ0.h+.&.
0000:1510  4E 02 06 C4 3E 69 04 57-83 C7 10 33 C0 D1 E9 F3  N..D>i.W.G.3@Qis
0000:1520  AB 73 01 AA 5F FE C0 26-88 45 05 07 59 42 E2 D8  +s.*_~@&.E..YBbX
0000:1530  A1 21 01 40 F8 C3 B9 04-00 B8 20 20 F3 AB AA 8B  !!.@xC9..8  s+*.
0000:1540  36 3B 04 B0 10 AA 83 C7-0A 8B 44 16 AB 8B 44 14  6;.0.*.G..D.+.D.
0000:1550  AB 8B C2 AB 33 C0 AB AB-C3 E8 7C 1A 72 FA 52 1E  +.B+3@++Ch|.rzR.
0000:1560  E8 08 00 07 5F C3 E8 6F-1A 72 FA 16 1F E8 9F FE  h..._Cho.rz..h.~
0000:1570  72 04 E8 3B 1A C3 E8 DF-03 80 3E FB 03 08 75 03  r.h;.Ch_..>{..u.
0000:1580  E8 2A 01 E8 8E 00 1E 8E-1E 6B 04 8A 27 0A E4 74  h*.h.....k..'.dt
0000:1590  33 36 3A 26 19 04 74 2C-F6 47 0B 08 74 05 36 FE  36:&..t,vG..t.6~
0000:15A0  06 6D 04 8B F3 16 07 BF-EF 03 B9 0B 00 F3 A6 74  .m..s..?o.9..s&t
0000:15B0  2F 26 80 7D FF 3F 74 F5-1F C4 2E 26 04 E8 82 00  /&.}.?tu.D.&.h..
0000:15C0  73 C4 EB 4D 1F 8B 0E 21-01 3B 0E 5F 04 73 04 89  sDkM...!.;._.s..
0000:15D0  0E 5F 04 3A 26 19 04 74-E0 89 0E 61 04 F9 EB 31  ._.:&..t`..a.yk1
0000:15E0  8A 2C 1F 8A 26 FB 03 F6-C5 08 74 09 F6 C4 08 74  .,..&{.vE.t.vD.t
0000:15F0  C8 32 E4 EB 14 80 FC 08-74 BF 83 C6 0F E8 6C 03  H2dk..|.t?.F.hl.
0000:1600  74 07 F6 06 18 04 FF 74-B0 C4 2E 26 04 26 8A 66  t.v....t0D.&.&.f
0000:1610  00 16 07 C3 A1 21 01 A3-21 01 B1 04 D3 E0 33 D2  ...C!!.#!.1.S`3R
0000:1620  D1 E0 D1 D2 26 8B 5E 02-80 E3 E0 F7 F3 8B DA 53  Q`QR&.^..c`ws.ZS
0000:1630  E8 78 06 5B 8B 16 69 04-83 C2 10 03 DA 26 03 56  hx.[..i..B..Z&.V
0000:1640  02 C3 A1 21 01 3B 06 61-04 74 25 40 83 C3 20 3B  .C!!.;.a.t%@.C ;
0000:1650  DA 72 1F 8A 1E 21 04 FE-C3 3A 1E 2A 04 72 18 8B  Zr...!.~C:.*.r..
0000:1660  1E 63 04 81 FB F8 0F 73-07 83 FB 02 72 02 EB A7  .c..{x.s..{.r.k'
0000:1670  F9 C3 A3 21 01 F8 C3 88-1E 21 04 A3 21 01 1E C5  yC#!.xC..!.#!..E
0000:1680  3E 69 04 8B 55 08 42 1F-E8 59 06 33 DB EB A5 26  >i..U.B.hY.3[k%&
0000:1690  8B 5E 1C 0B DB 74 16 81-FB F8 0F 72 38 06 1F 8D  .^..[t..{x.r8...
0000:16A0  76 1E E8 F2 01 73 26 26-C7 46 1C 00 00 16 1F 33  v.hr.s&&GF.....3
0000:16B0  C0 A3 4D 04 A2 21 04 48-A3 49 04 26 8B 46 0B 26  @#M."!.H#I.&.F.&
0000:16C0  8B 56 10 2B C2 A2 2A 04-89 16 4B 04 C3 A1 4D 04  .V.+B"*...K.C!M.
0000:16D0  26 89 46 1C C3 0B DB 74-D4 16 1F 89 1E 4D 04 26  &.F.C.[tT....M.&
0000:16E0  8A 46 04 FE C0 A2 2A 04-E8 F6 0A 89 3E 49 04 8B  .F.~@"*.hv..>I..
0000:16F0  D3 32 DB 88 1E 21 04 E8-79 0E 89 16 4B 04 C3 50  S2[..!.hy...K.CP
0000:1700  E8 9E 00 8A D1 59 36 88-0E FB 03 8B C8 73 0F 75  h...QY6..{..Hs.u
0000:1710  04 0A D2 75 04 B0 04 F9-C3 32 C0 F9 EB 3A 74 2C  ..Ru.0.yC2@yk:t,
0000:1720  B0 03 36 F6 06 FB 03 18-75 18 0A ED 78 18 51 36  0.6v.{..u..mx.Q6
0000:1730  8E 1E 6B 04 8A 6F 0B F6-C5 01 75 03 E8 2D 02 59  ..k..o.vE.u.h-.Y
0000:1740  74 04 B0 05 EB D1 32 C0-B0 03 EB 0C B0 01 36 F6  t.0.kQ2@0.k.0.6v
0000:1750  06 FB 03 10 74 C1 F8 C3-50 16 1F 9C 80 3E EF 03  .{..tAxCP....>o.
0000:1760  2E 75 05 9D B0 01 EB 10-9D 06 C4 3E 3B 04 1E 57  .u..0.k...D>;..W
0000:1770  06 8B C1 E8 F3 13 1F 07-0A C0 58 74 04 B0 02 F9  ..Ahs....@Xt.0.y
0000:1780  C3 06 C4 3E 3B 04 47 1E-56 8E 1E 6B 04 8B F3 B9  C.D>;.G.V..k..s9
0000:1790  0B 00 F3 A4 5E 1F 07 3C-01 77 04 0A C0 F8 C3 F9  ..s$^..<.w..@xCy
0000:17A0  C3 33 C0 36 A3 2B 04 36-C6 06 FB 03 16 AC E8 F0  C3@6#+.6F.{..,hp
0000:17B0  18 74 43 8A E0 AC 3C 3A-74 65 4E 4E 1E 56 16 07  .tC.`,<:teNN.V..
0000:17C0  36 80 3E E6 00 00 74 05-E8 A4 00 73 48 E8 18 00  6.>f..t.h$.sHh..
0000:17D0  36 A0 D5 00 50 36 C6 06-D5 00 00 E8 B1 FE 58 36  6 U.P6F.U..h1~X6
0000:17E0  A2 D5 00 5E 1F E9 B4 00-32 C0 E8 AA 04 72 B1 16  "U.^.i4.2@h*.r1.
0000:17F0  1F E8 EF 0A F8 C3 1E 56-E8 ED FF 5E 1F 36 FE 06  .ho.xC.Vhm.^.6~.
0000:1800  2C 04 80 3C 00 74 40 1E-56 06 E8 40 00 07 73 05  ,..<.t@.V.h@..s.
0000:1810  5E 1F E9 82 00 58 58 16-07 E8 94 17 FE C0 C3 36  ^.i..XX..h..~@C6
0000:1820  FE 06 2B 04 8A C4 0C 20-2C 60 1E 56 50 16 07 E8  ~.+..D. ,`.VP..h
0000:1830  3D 00 58 73 E0 E8 B2 FF-5E 1F 72 E2 AC E8 61 18  =.Xs`h2.^.rb,ha.
0000:1840  74 BB 4E 1E 56 EB 89 E8-63 FE 32 C0 C3 16 07 BF  t;N.Vk.hc~2@C..?
0000:1850  04 00 33 C9 36 8A 0E 03-00 F3 A6 74 0C 4E E8 EB  ..3I6....s&t.Nhk
0000:1860  17 26 3A 45 FF 74 F2 F9-C3 AC E8 34 18 75 F8 BF  .&:E.tryC,h4.ux?
0000:1870  EF 03 B9 09 00 E8 D4 17-3C 2E 74 0E E8 22 18 74  o.9..hT.<.t.h".t
0000:1880  07 0A C0 74 05 AA E2 ED-F9 C3 83 C1 02 B0 20 F3  ..@t.*bmyC.A.0 s
0000:1890  AA 16 1F E8 79 FB C3 1E-E8 12 FE 1F 06 56 E8 D1  *..hy{C.h.~..VhQ
0000:18A0  16 8A C8 80 C9 80 5F 07-3B F7 75 03 E9 8A 00 1E  ..H.I._.;wu.i...
0000:18B0  56 8A 04 16 1F 80 3E E6-00 00 74 17 06 16 07 E8  V.....>f..t....h
0000:18C0  4D FB 07 72 0E 0A C0 75-74 5E 5E 16 07 E8 E0 16  M{.r..@ut^^..h`.
0000:18D0  FE C0 C3 57 06 51 E8 9D-FC 59 07 5F 72 70 C5 3E  ~@CW.Qh.|Y._rpE>
0000:18E0  69 04 F6 47 0B 10 74 55-36 80 3E D5 00 00 74 11  i.vG..tU6.>U..t.
0000:18F0  8B D7 8C D8 5F 1F 80 3D-00 74 50 1E 57 8B FA 8E  .W.X_..=.tP.W.z.
0000:1900  D8 8B 14 2B DF 2B F7 53-50 56 51 FF 75 08 8B DA  X..+_+wSPVQ.u..Z
0000:1910  E8 C2 FD 5A 32 C0 E8 20-0E 59 5E 58 5B 8B 3E 69  hB}Z2@h .Y^X[.>i
0000:1920  04 03 F7 03 DF 5F 1F 8A-05 0A C0 74 1E 47 8B F7  ..w.__....@t.G.w
0000:1930  E8 6E 17 75 03 E9 64 FF-4E 32 C9 F9 C3 5F 1F 8A  hn.u.id.N2IyC_..
0000:1940  05 0A C0 74 04 8B F7 F9-C3 FE C0 16 1F C3 5E 1F  ..@t..wyC~@..C^.
0000:1950  8A 04 8B F7 0A C0 F9 C3-C4 2E 26 04 33 C0 A3 21  ...w.@yCD.&.3@#!
0000:1960  01 A2 6D 04 48 A3 5F 04-A3 61 04 C3 50 36 A0 FB  ."m.H#_.#a.CP6 {
0000:1970  03 F6 D0 22 C5 24 16 58-C3 06 57 56 53 BB 01 00  .vP"E$.XC.WVS;..
0000:1980  E8 FC 24 83 C7 03 8A 1E-77 04 C5 36 78 04 26 89  h|$.G...w.E6x.&.
0000:1990  75 19 26 8C 5D 1B 26 88-5D 18 16 1F 33 DB E8 DE  u.&.].&.]...3[h^
0000:19A0  24 83 C7 03 8A 1E 76 04-C5 36 72 04 26 89 75 19  $.G...v.E6r.&.u.
0000:19B0  26 8C 5D 1B 26 88 5D 18-16 1F C6 06 26 01 00 C6  &.].&.]...F.&..F
0000:19C0  06 27 01 01 5B 5E 5F 07-C3 06 57 56 53 C6 06 26  .'..[^_.C.WVSF.&
0000:19D0  01 01 C6 06 27 01 00 33-DB E8 A3 24 83 C7 03 26  ..F.'..3[h#$.G.&
0000:19E0  8A 5D 18 88 1E 76 04 26-C5 75 19 36 89 36 72 04  .]...v.&Eu.6.6r.
0000:19F0  36 8C 1E 74 04 36 C5 36-3B 04 8A 5C 18 C5 74 19  6..t.6E6;..\.Et.
0000:1A00  26 88 5D 18 26 89 75 19-26 8C 5D 1B 16 1F BB 01  &.].&.u.&.]...;.
0000:1A10  00 E8 6B 24 83 C7 03 26-8A 5D 18 88 1E 77 04 26  .hk$.G.&.]...w.&
0000:1A20  C5 75 19 36 89 36 78 04-36 8C 1E 7A 04 36 C5 36  Eu.6.6x.6..z.6E6
0000:1A30  3B 04 8A 5C 18 C5 74 19-26 88 5D 18 26 89 75 19  ;..\.Et.&.].&.u.
0000:1A40  26 8C 5D 1B 16 1F E9 7B-FF E8 29 03 0A DB 78 04  &.]...i{.h)..[x.
0000:1A50  E8 3E 04 C3 C4 3E DF 00-F6 C3 40 74 07 F6 C3 04  h>.CD>_.vC@t.vC.
0000:1A60  74 39 32 C0 E9 AA 00 06-1F 8B DF 33 D2 33 C0 E8  t92@i*...._3R3@h
0000:1A70  05 FA 36 C5 36 3B 04 E8-74 F9 8B D7 B4 86 36 8B  .z6E6;.hty.W4.6.
0000:1A80  3E 30 01 F7 C7 00 80 74-09 E8 E1 12 8B FA 3C 01  >0.wG..t.ha..z<.
0000:1A90  74 D7 8B FA 36 03 3E 3F-01 EB 76 F6 C3 20 75 C7  tW.z6.>?.kvvC uG
0000:1AA0  F6 C3 01 74 03 E9 9F 00-8C C0 8E D8 8B DF 33 D2  vC.t.i...@.X._3R
0000:1AB0  8B C2 51 B9 01 00 E8 BE-F9 59 36 C5 36 3B 04 C5  .BQ9..h>yY6E6;.E
0000:1AC0  74 19 E8 2E 11 E8 29 F9-57 B4 86 36 8B 3E 30 01  t.h..h)yW4.6.>0.
0000:1AD0  F7 C7 00 80 74 13 E8 94-12 5F 36 C7 06 3F 01 01  wG..t.h.._6G.?..
0000:1AE0  00 3C 01 74 DD 32 C0 EB-12 5F 36 83 3E 3F 01 01  .<.t]2@k._6.>?..
0000:1AF0  75 1F 1E 36 8E 1E 3D 01-8A 05 1F 36 FF 06 3B 01  u..6..=....6..;.
0000:1B00  36 C7 06 30 01 00 00 47-3C 1A 74 05 3C 0D E0 B2  6G.0...G<.t.<.`2
0000:1B10  40 EB 1F AC AA 3C 0D 75-03 C6 04 0A 3C 0A E0 F3  @k.,*<.u.F..<.`s
0000:1B20  75 07 33 F6 E8 86 1A 0C-01 16 1F E8 4B FE 89 36  u.3vh......hK~.6
0000:1B30  DC 00 16 1F 89 3E 3F 04-75 09 C4 3E 3B 04 26 80  \....>?.u.D>;.&.
0000:1B40  65 18 BF E8 49 04 C3 E8-7F FE 8B 36 DC 00 0B F6  e.?hI.Ch.~.6\..v
0000:1B50  75 C1 80 3E 60 03 80 74-06 C7 06 60 03 80 FF 51  uA.>`..t.G.`...Q
0000:1B60  06 57 BA 60 03 E8 28 1B-5F 07 59 BE 62 03 80 3C  .W:`.h(._.Y>b..<
0000:1B70  1A 75 A0 B0 1A AA 4F B0-0A E8 31 1A 33 F6 EB A9  .u 0.*O0.h1.3vk)
0000:1B80  E8 F2 01 0A DB 78 65 E8-FE 1C 26 89 45 14 26 89  hr..[xeh~.&.E.&.
0000:1B90  55 16 E8 67 04 C3 1E 16-1F E8 2D FE 1F 8B F3 51  U.hg.C...h-~..sQ
0000:1BA0  AC 3C 1A 74 05 E8 05 1A-E2 F6 58 2B C1 1F E8 C8  ,<.t.h..bvX+A.hH
0000:1BB0  FD EB 29 33 C0 E8 F2 F8-36 C5 36 3B 04 E8 2E F8  }k)3@hrx6E6;.h.x
0000:1BC0  8B D7 B4 87 36 8B 3E 30-01 F7 C7 00 80 74 09 E8  .W4.6.>0.wG..t.h
0000:1BD0  9B 11 8B DA 3C 01 74 DB-1F A1 3F 01 C4 3E 3B 04  ...Z<.t[.!?.D>;.
0000:1BE0  33 D2 26 F7 75 0E 8B C8-E8 00 04 C3 80 CB 40 33  3R&wu..Hh..C.K@3
0000:1BF0  C0 E3 E9 1E 8A C3 C5 1E-DF 00 8B FB 33 D2 A8 20  @ci..CE._..{3R(
0000:1C00  75 B1 A8 02 75 90 A8 04-75 76 8B C2 80 3F 1A 74  u1(.u.(.uv.B.?.t
0000:1C10  5A 51 B9 01 00 E8 92 F8-59 36 C5 36 3B 04 C5 74  ZQ9..h.xY6E6;.Et
0000:1C20  19 E8 CF 0F E8 CA F7 57-B4 87 36 8B 3E 30 01 F7  .hO.hJwW4.6.>0.w
0000:1C30  C7 00 80 74 11 E8 35 11-5F 36 C7 06 3F 01 01 00  G..t.h5._6G.?...
0000:1C40  3C 01 74 DD EB 09 5F 36-83 3E 3F 01 00 74 1C 42  <.t]k._6.>?..t.B
0000:1C50  36 FF 06 3B 01 47 1E 36-8E 1E 3D 01 80 3D 1A 1F  6..;.G.6..=..=..
0000:1C60  74 0F 36 C7 06 30 01 00-00 E2 B6 8B C2 1F E9 6B  t.6G.0...b6.B.ik
0000:1C70  FF 36 C7 06 30 01 00 00-E8 78 0F E8 73 F7 EB EB  .6G.0...hx.hswkk
0000:1C80  8B D1 EB E7 16 1F 06 57-E8 F4 21 72 07 8B F7 83  .Qkg...Wht!r..w.
0000:1C90  C6 03 06 1F 5F 07 C3 36-38 06 00 01 72 F8 FE C8  F..._.C68...rx~H
0000:1CA0  79 04 36 A0 20 01 36 A2-25 04 C3 8A 0E 2A 04 F6  y.6  .6"%.C..*.v
0000:1CB0  F1 88 26 21 04 8A C8 32-ED 8B 16 4B 04 02 D4 80  q.&!..H2m..K..T.
0000:1CC0  D6 00 8B 1E 49 04 89 1E-63 04 E3 18 E8 12 05 87  V...I...c.c.h...
0000:1CD0  DF 81 FB F8 0F 73 02 E2-F3 89 1E 63 04 8B D7 8A  _.{x.s.bs..c..W.
0000:1CE0  DC E8 8F 08 32 C0 B4 0F-E8 4E 0A C3 8B F9 26 8A  \h..2@4.hN.C.y&.
0000:1CF0  4E 08 26 8A 46 0F 32 E4-8A EC 52 51 50 8B CF E8  N.&.F.2d.lRQP.Oh
0000:1D00  20 00 58 59 74 1A 03 D0-E2 F1 5A 8B CF E8 12 00   .XYt..PbqZ.Oh..
0000:1D10  74 98 36 C6 06 24 04 00-E8 68 10 3C 01 74 EE C3  t.6F.$..hh.<.tnC
0000:1D20  5A C3 51 26 8A 66 16 26-8A 46 01 53 06 E8 47 F7  ZCQ&.f.&.F.S.hGw
0000:1D30  EB 22 90 E8 10 00 74 E9-36 C6 06 24 04 01 E8 42  k".h..ti6F.$..hB
0000:1D40  10 3C 01 74 EE C3 51 26-8A 66 16 26 8A 46 01 53  .<.tnCQ&.f.&.F.S
0000:1D50  06 E8 56 F7 8C D9 1F 1E-3E C5 76 12 E8 92 F6 8E  .hVw.Y..>Ev.h.v.
0000:1D60  D9 07 5B 36 8B 0E 3F 01-5F 2B CF F7 D9 36 A1 30  Y.[6..?._+OwY6!0
0000:1D70  01 A9 00 80 C3 50 8A 05-FE C8 36 A2 25 04 8A 45  .)..CP..~H6"%..E
0000:1D80  18 8B 75 0E 0B F6 75 06-BE 80 00 89 75 0E 36 8C  ..u..vu.>...u.6.
0000:1D90  1E 3D 04 16 1F 89 3E 3B-04 0A C0 79 02 32 C0 E8  .=....>;..@y.2@h
0000:1DA0  B3 F6 58 73 09 33 C9 C6-06 22 04 04 5B C3 83 FE  3vXs.3IF."..[C.~
0000:1DB0  40 72 02 32 F6 89 0E 45-04 A3 41 04 89 16 43 04  @r.2v..E.#A...C.
0000:1DC0  8B 1E DF 00 89 1E 3F 04-C6 06 22 04 00 C6 06 23  .._...?.F."..F.#
0000:1DD0  04 00 8B DA F7 E6 A3 55-04 52 8B C3 F7 E6 5B 03  ...Zwf#U.R.Cwf[.
0000:1DE0  C3 83 D2 00 75 5E A3 57-04 8B D0 A1 55 04 26 8B  C.R.u^#W..P!U.&.
0000:1DF0  5E 02 3B D3 73 4E F7 F3-A3 4F 04 89 16 53 04 8B  ^.;SsNws#O...S..
0000:1E00  D0 26 22 46 04 A2 21 04-8B C1 26 8A 4E 05 D3 EA  P&"F."!..A&.N.Sj
0000:1E10  89 16 49 04 F7 E6 8B C8-03 06 DF 00 83 D2 00 74  ..I.wf.H.._..R.t
0000:1E20  1A A1 DF 00 F7 D8 75 01-48 33 D2 F7 F6 A3 45 04  .!_.wXu.H3Rwv#E.
0000:1E30  F7 E6 C6 06 22 04 02 8B-C8 E3 10 C4 3E 3B 04 26  wfF."...Hc.D>;.&
0000:1E40  8A 5D 18 C3 C6 06 22 04-01 33 C9 C4 3E 3B 04 5B  .].CF."..3ID>;.[
0000:1E50  C3 A1 53 04 8B D9 0B C0-74 0E 26 2B 46 02 F7 D8  C!S..Y.@t.&+F.wX
0000:1E60  2B D8 73 04 03 C3 33 DB-A3 59 04 8B C3 33 D2 26  +Xs..C3[#Y..C3R&
0000:1E70  F7 76 02 A3 5D 04 89 16-5B 04 0B 16 59 04 75 D0  wv.#]...[...Y.uP
0000:1E80  3D 01 00 75 CB 26 8B 46-02 A3 5B 04 89 16 5D 04  =..uK&.F.#[...].
0000:1E90  C3 26 8B 45 10 26 8B 5D-12 2B 06 55 04 1B 1E 57  C&.E.&.].+.U...W
0000:1EA0  04 72 1E 75 0A 0B C0 74-18 3B C1 73 02 8B C8 C4  .r.u..@t.;As..HD
0000:1EB0  2E 26 04 E8 9B FF 8B 0E-49 04 E8 54 05 0B C9 74  .&.h....I.hT..It
0000:1EC0  09 E9 B1 01 E9 B0 00 E9-C5 00 89 16 47 04 89 1E  .i1.i0.iE...G...
0000:1ED0  49 04 83 3E 59 04 00 74-03 E8 9B 05 83 3E 5D 04  I..>Y..t.h...>].
0000:1EE0  00 74 E1 E8 05 06 72 DF-C6 06 23 04 01 8A 16 21  .tah..r_F.#....!
0000:1EF0  04 8B 0E 5D 04 8B 1E 49-04 E8 1F 06 57 50 53 8E  ...]...I.h..WPS.
0000:1F00  1E E1 00 52 51 E8 05 FE-5B 5A 03 DA 26 8A 46 00  .a.RQh.~[Z.Z&.F.
0000:1F10  E8 50 07 C6 45 07 01 3A-45 04 75 41 39 55 08 72  hP.FE..:E.uA9U.r
0000:1F20  3C 39 5D 08 73 37 80 7D-05 00 74 2E 58 50 57 52  <9].s7.}..t.XPWR
0000:1F30  2B 55 08 F7 DA 8B F7 8B-F8 8B C2 26 8B 4E 02 F7  +U.wZ.w.x.B&.N.w
0000:1F40  E1 03 F8 83 C6 10 D1 E9-06 36 8E 06 E1 00 F3 A5  a.x.F.Qi.6..a.s%
0000:1F50  73 01 A4 07 5A 5F 26 8A-46 00 E8 2F 07 E8 1C 07  s.$.Z_&.F.h/.h..
0000:1F60  75 B1 16 1F 59 59 5B E3-0E 81 FB F8 0F 73 20 B2  u1..YY[c..{x.s 2
0000:1F70  00 FF 06 47 04 EB 82 A1-5B 04 0B C0 74 11 A3 59  ...G.k.![..@t.#Y
0000:1F80  04 E8 67 05 72 09 C7 06-53 04 00 00 E8 E8 04 C4  .hg.r.G.S...hh.D
0000:1F90  36 3B 04 A1 3F 04 8B F8-2B 06 DF 00 33 D2 26 8B  6;.!?..x+._.3R&.
0000:1FA0  4C 0E F7 F1 3B 06 45 04-74 22 C6 06 22 04 01 0B  L.wq;.E.t"F."...
0000:1FB0  D2 74 19 C6 06 22 04 03-2B CA 06 8E 06 E1 00 93  Rt.F."..+J...a..
0000:1FC0  33 C0 D1 E9 73 01 AA F3-AB 93 07 40 8B C8 8B FE  3@Qis.*s+..@.H.~
0000:1FD0  26 F6 45 18 FF 78 14 A1-49 04 26 81 65 1D 00 F0  &vE..x.!I.&.e..p
0000:1FE0  26 09 45 1D A1 47 04 26-89 45 1B A1 41 04 8B 16  &.E.!G.&.E.!A...
0000:1FF0  43 04 E3 07 49 03 C1 83-D2 00 41 C3 80 E3 3F 26  C.c.I.A.R.AC.c?&
0000:2000  88 5D 18 C4 2E 26 04 E8-47 FE A1 55 04 8B 16 57  .].D.&.hG~!U...W
0000:2010  04 E3 78 03 C1 83 D2 00-26 F7 76 02 8B D8 0B D2  .cx.A.R.&wv..X.R
0000:2020  75 01 48 26 8A 4E 05 D3-E8 50 52 06 C4 3E 3B 04  u.H&.N.ShPR.D>;.
0000:2030  26 8B 45 10 26 8B 55 12-07 26 F7 76 02 8B C8 0B  &.E.&.U..&wv..H.
0000:2040  D2 74 01 40 A3 51 04 33-C0 A3 65 04 A3 67 04 58  Rt.@#Q.3@#e.#g.X
0000:2050  2B D9 72 47 74 38 8B CA-93 26 F7 66 02 2B C1 83  +YrGt8.J.&wf.+A.
0000:2060  DA 00 03 C3 83 D2 00 EB-2B 8B C8 E8 C7 03 E3 18  Z..C.R.k+.HhG.c.
0000:2070  E8 31 05 73 13 33 C9 C6-06 22 04 01 A1 41 04 8B  h1.s.3IF."..!A..
0000:2080  16 43 04 C4 3E 3B 04 C3-EB 45 90 E9 F3 00 2B C2  .C.D>;.CkE.is.+B
0000:2090  76 09 33 D2 A3 65 04 89-16 67 04 58 8B 0E 49 04  v.3R#e...g.X..I.
0000:20A0  E8 6E 03 89 1E 49 04 89-16 47 04 2B C2 74 20 E3  hn...I...G.+Bt c
0000:20B0  B8 51 8B C8 E8 ED 04 58-72 BB 8B C8 8B 16 47 04  8Q.Hhm.Xr;.H..G.
0000:20C0  42 49 74 03 E8 6E 03 89-1E 49 04 89 16 47 04 83  BIt.hn...I...G..
0000:20D0  3E 59 04 00 74 07 8B 1E-49 04 E8 CC 03 A1 5D 04  >Y..t...I.hL.!].
0000:20E0  0B C0 74 65 01 06 4F 04-E8 00 04 C6 06 23 04 01  .@te..O.h..F.#..
0000:20F0  8A 16 21 04 8B 1E 49 04-8B 0E 5D 04 E8 1C 04 57  ..!...I...].h..W
0000:2100  50 52 53 26 8A 46 00 8B-D9 03 DA E8 55 05 C6 45  PRS&.F..Y.ZhU.FE
0000:2110  07 01 3A 45 04 75 12 39-55 08 72 0D 39 5D 08 73  ..:E.u.9U.r.9].s
0000:2120  08 C7 45 04 FF 00 E8 63-05 E8 50 05 75 E0 5B 5A  .GE...hc.hP.u`[Z
0000:2130  36 8E 1E E1 00 E8 FB FB-59 5B 16 1F E3 0B B2 00  6..a.h{{Y[..c.2.
0000:2140  FF 06 47 04 EB B6 E9 2C-FF A1 5B 04 0B C0 74 0F  ..G.k6i,.![..@t.
0000:2150  A3 59 04 E8 95 03 C7 06-53 04 00 00 E8 4A 03 C4  #Y.h..G.S...hJ.D
0000:2160  3E 3B 04 A1 65 04 8B 0E-67 04 0B C0 75 04 0B C9  >;.!e...g..@u..I
0000:2170  74 08 26 01 45 10 26 11-4D 12 8B 0E 45 04 E9 4F  t.&.E.&.M...E.iO
0000:2180  FE 8B C8 0B CA 74 3B 2D-01 00 83 DA 00 26 F7 76  ~.H.Jt;-...Z.&wv
0000:2190  02 26 8A 4E 05 D3 E8 8B-C8 E8 75 02 E3 1C E8 03  .&.N.Sh.Hhu.c.h.
0000:21A0  04 72 A3 C4 3E 3B 04 A1-55 04 26 89 45 10 A1 57  .r#D>;.!U.&.E.!W
0000:21B0  04 26 89 45 12 33 C9 E9-31 FE BA FF 0F E8 84 04  .&.E.3Ii1~:..h..
0000:21C0  EB E1 33 DB 06 C4 3E 3B-04 26 89 5D 1B 26 87 5D  ka3[.D>;.&.].&.]
0000:21D0  19 26 81 65 1D 00 F0 07-0B DB 74 C7 E8 63 04 EB  .&.e..p..[tGhc.k
0000:21E0  C2 26 3B 5E 0D 77 15 E8-82 00 8B 3D 73 07 51 B1  B&;^.w.h...=s.Q1
0000:21F0  04 D3 EF 59 F9 81 E7 FF-0F 16 1F C3 50 B4 80 BF  .SoYy.g....CP4.?
0000:2200  FF 0F E8 BF 0B 58 C3 E8-62 00 8B 35 73 0C 51 B1  ..h?.XChb..5s.Q1
0000:2210  04 D3 E2 59 81 E6 0F 00-EB 04 81 E6 00 F0 0B F2  .SbY.f..k..f.p.r
0000:2220  89 35 36 C5 36 69 04 C6-44 05 01 36 80 3E 2D 04  .56E6i.FD..6.>-.
0000:2230  00 16 1F 74 D1 50 53 51-A1 2F 04 8E 1E 6B 04 83  ...tQPSQ!/...k..
0000:2240  C6 10 88 24 16 1F 50 8B-16 31 04 BE 01 00 32 C0  F..$..P..1.>..2@
0000:2250  E8 E8 04 C5 3E 69 04 C6-45 05 01 83 C7 10 4F 26  hh.E>i.FE...G.O&
0000:2260  03 7E 02 58 88 05 16 1F-59 5B 58 C3 C6 06 2D 04  .~.X....Y[XCF.-.
0000:2270  00 50 53 51 52 8B C3 D1-E8 03 C3 33 D2 26 8B 4E  .PSQR.CQh.C3R&.N
0000:2280  02 F7 F1 26 03 46 06 49-50 52 51 8B D0 32 C0 BE  .wq&.F.IPRQ.P2@>
0000:2290  01 00 E8 A6 04 C5 36 69-04 8D 7C 10 59 58 5A 03  ..h&.E6i..|.YXZ.
0000:22A0  F8 3B C1 75 29 8A 05 16-1F FE 06 2D 04 A2 2F 04  x;Au)....~.-."/.
0000:22B0  89 16 31 04 42 32 C0 BE-01 00 E8 7E 04 C5 36 69  ..1.B2@>..h~.E6i
0000:22C0  04 8D 7C 10 8A 05 16 1F-A2 30 04 BF 2F 04 5A 59  ..|....."0.?/.ZY
0000:22D0  5B 8B C3 D1 E8 58 C3 81-E7 FF 00 B4 02 A0 25 04  [.CQhXC.g..4. %.
0000:22E0  E8 E5 0A A0 25 04 E8 6C-F1 B0 0F 26 8A 66 01 A3  he. %.hlq0.&.f.#
0000:22F0  2D 01 C6 06 2F 01 01 C7-06 30 01 00 00 26 8A 46  -.F./..G.0...&.F
0000:2300  16 A2 3A 01 06 1E BB 2D-01 26 C5 76 12 07 E8 E0  .":...;-.&Ev..h`
0000:2310  F0 16 1F 07 8B 3E 30 01-F7 C7 00 80 75 B9 32 E4  p....>0.wG..u92d
0000:2320  26 86 66 17 A0 25 04 0A-26 3B 01 78 15 74 01 C3  &.f. %..&;.x.t.C
0000:2330  FE C4 C5 3E 03 01 3B 45-04 74 F4 C5 3D 83 FF FF  ~DE>..;E.ttE=...
0000:2340  75 F4 E8 1E 03 C6 45 07-01 3A 45 04 75 08 C7 45  uth..FE..:E.u.GE
0000:2350  04 FF 00 E8 36 03 E8 23-03 75 EA 26 C5 7E 12 F7  ...h6.h#.uj&E~.w
0000:2360  45 04 00 20 75 0E 16 1F-BB 02 00 E8 73 FE C5 3E  E.. u...;..hs~E>
0000:2370  69 04 EB 0C 06 55 36 C5-3E 03 01 E8 98 04 5D 07  i.k..U6E>..h..].
0000:2380  83 C7 10 36 8C 1E 3D 01-16 1F 89 3E 3B 01 B0 16  .G.6..=....>;.0.
0000:2390  26 8A 66 01 A3 2D 01 C6-06 2F 01 02 C7 06 30 01  &.f.#-.F./..G.0.
0000:23A0  00 00 26 8A 46 16 A2 3A-01 06 1E 26 FF 76 14 26  ..&.F.":...&.v.&
0000:23B0  FF 76 12 BB 2D 01 5E 1F-07 E8 35 F0 07 16 1F 8B  .v.;-.^..h5p....
0000:23C0  3E 30 01 F7 C7 00 80 75-31 26 8A 46 16 C5 36 3F  >0.wG..u1&.F.E6?
0000:23D0  01 3A 44 0A 74 13 E8 64-EA 36 C5 3E 3B 01 26 8A  .:D.t.hdj6E>;.&.
0000:23E0  46 08 26 8A 66 0F 89 45-FA 16 1F B8 FF FF 26 85  F.&.f..Ez..8..&.
0000:23F0  46 1C 75 01 C3 26 89 46-1C C3 E9 DA FE B9 01 00  F.u.C&.F.CiZ~9..
0000:2400  8B FA 80 3D FF 75 03 83-C7 07 8B 45 21 8B 55 23  .z.=.u..G..E!.U#
0000:2410  C3 06 C4 3E 3B 04 26 8B-5D 1D 81 E3 FF 0F 26 8B  C.D>;.&.]..c..&.
0000:2420  55 1B 0B DB 74 1E 2B CA-73 08 03 CA 33 D2 26 8B  U..[t.+Js..J3R&.
0000:2430  5D 19 07 E3 0E E8 A9 FD-81 FF F8 0F 73 05 87 DF  ]..c.h)}..x.s.._
0000:2440  42 E2 F2 C3 07 41 4A C3-8B 16 49 04 8A 1E 21 04  BbrC.AJC..I...!.
0000:2450  E8 20 01 E8 E3 02 C6 06-23 04 01 8B 36 3F 04 8B  h .hc.F.#...6?..
0000:2460  FE 8B 0E 59 04 03 F9 89-3E 3F 04 C4 3E 69 04 83  ~..Y..y.>?.D>i..
0000:2470  C7 10 03 3E 53 04 C3 06-B8 00 02 E8 CA FF 8C C3  G..>S.C.8..hJ..C
0000:2480  8E 06 E1 00 8E DB 87 FE-D1 E9 73 01 A4 F3 A5 07  ..a..[.~Qis.$s%.
0000:2490  36 C5 3E 69 04 8D 5D 10-2B F3 E8 FD 01 26 3B 76  6E>i..].+sh}.&;v
0000:24A0  02 72 03 E8 4F 02 16 1F-C3 A1 4F 04 40 A3 4F 04  .r.hO...C!O.@#O.
0000:24B0  3B 06 51 04 B0 01 77 02-32 C0 06 E8 8A FF 8E 1E  ;.Q.0.w.2@.h....
0000:24C0  E1 00 D1 E9 73 01 A4 F3-A5 07 36 C5 1E 69 04 C6  a.Qis.$s%.6E.i.F
0000:24D0  47 05 01 8D 77 10 2B FE-8B F7 8B FB E8 BB 01 26  G...w.+~.w.{h;.&
0000:24E0  3B 76 02 72 03 E8 0D 02-16 1F C3 F6 06 23 04 FF  ;v.r.h....Cv.#..
0000:24F0  74 25 A0 21 04 FE C0 26-3A 46 04 76 17 8B 1E 49  t% !.~@&:F.v...I
0000:2500  04 81 FB F8 0F 73 12 E8-D7 FC 89 3E 49 04 FF 06  ..{x.s.hW|.>I...
0000:2510  47 04 B0 00 A2 21 04 F8-C3 F9 C3 52 53 26 8A 46  G.0."!.xCyCRS&.F
0000:2520  04 FE C0 8A E0 2A C2 8B-D1 B9 00 00 E8 B2 FC 02  .~@.`*B.Q9..h2|.
0000:2530  C8 80 D5 00 3B CA 73 2D-8A C4 43 3B FB 74 ED 4B  H.U.;Js-.DC;{tmK
0000:2540  89 1E 49 04 2B D1 52 8B-C1 26 F7 66 02 8B 36 3F  ..I.+QR.A&wf..6?
0000:2550  04 03 C6 A3 3F 04 58 5A-2B DA 01 1E 47 04 5B E8  ..F#?.XZ+Z..G.[h
0000:2560  11 00 8B DE C3 2B CA 2A-E1 FE CC 88 26 21 04 8B  ...^C+J*a~L.&!..
0000:2570  CA EB CD 51 26 8A 4E 05-4A 4A D3 E2 0A D3 26 03  JkMQ&.N.JJSb.S&.
0000:2580  56 0B 59 C3 8B FA 80 3D-FF 75 03 83 C7 07 B9 01  V.YC.z.=.u..G.9.
0000:2590  00 8A 45 20 8B 55 0C D0-E0 D1 EA D0 D8 8A E2 8A  ..E .U.P`QjPX.b.
0000:25A0  D6 B6 00 C3 53 33 DB E8-37 FC 89 3E 35 04 5B 52  V6.CS3[h7|.>5.[R
0000:25B0  51 53 8B C3 8B D3 43 26-3B 5E 0D 7E 2B 3D 01 00  QS.C.SC&;^.~+=..
0000:25C0  7F 2B 5B BA FF 0F E8 7B-00 58 2B C1 5A E8 62 00  .+[:..h{.X+AZhb.
0000:25D0  42 03 C2 26 8A 56 04 B6-00 42 F7 E2 8B C8 2B 0E  B.B&.V.6.Bwb.H+.
0000:25E0  41 04 77 02 33 C9 F9 C3-E8 F6 FB 74 0C 48 7E C6  A.w.3IyChv{t.H~F
0000:25F0  93 E8 ED FB 74 03 93 EB-BD 87 DA 8B C2 E8 07 FC  .hm{t..k=.Z.Bh.|
0000:2600  8B D8 E2 B0 BA FF 0F E8-FD FB 5B 59 5A E8 D1 FB  .Xb0:..h}{[YZhQ{
0000:2610  E8 1F 00 87 DF 0B FF 75-CE 06 C4 3E 3B 04 81 E3  h..._..uN.D>;..c
0000:2620  FF 0F 26 89 5D 19 26 81-65 1D 00 F0 26 09 5D 1D  ..&.].&.e..p&.].
0000:2630  07 C3 53 52 57 33 DB 8B-16 35 04 E8 C9 FB 5F 5A  .CSRW3[..5.hI{_Z
0000:2640  5B C3 33 D2 E8 9A FB 74-F8 8B C7 E8 B9 FB 3D F8  [C3Rh.{tx.Gh9{=x
0000:2650  0F 8B D8 72 ED C3 E8 88-FB 81 FF F8 0F 73 F6 8B  ..XrmCh.{..x.sv.
0000:2660  DF EB F3 36 C5 3E 03 01-50 33 C0 88 45 07 C5 3D  _ks6E>..P3@.E.E=
0000:2670  83 FF FF 75 F6 36 C5 3E-03 01 58 C3 83 FF FF 74  ...uv6E>..XC...t
0000:2680  FA 80 7D 07 01 75 F4 C5-3D EB F1 C3 06 C4 35 E8  z.}..utE=kqC.D5h
0000:2690  08 00 06 1F 8B FE 07 C3-EB 57 E8 35 E1 C4 0D 83  .....~.CkWh5aD..
0000:26A0  F9 FF 74 4D 8C C5 1E 07-36 C5 36 03 01 E8 7A 00  y.tM.E..6E6..hz.
0000:26B0  75 0C 36 89 0E 03 01 36-89 2E 05 01 EB 14 1E 56  u.6....6....k..V
0000:26C0  C5 34 E8 65 00 74 04 58-58 EB F3 5E 1F 89 0C 89  E4he.t.XXks^....
0000:26D0  6C 02 1E 56 C5 34 83 FE-FF 74 04 58 58 EB F3 5E  l..VE4.~.t.XXks^
0000:26E0  1F 89 3C 8C 44 02 26 C7-05 FF FF 26 C7 45 02 FF  ..<.D.&G...&GE..
0000:26F0  FF E8 CA E0 C3 E8 DA E0-1E 07 36 C5 36 03 01 36  .hJ`ChZ`..6E6..6
0000:2700  89 3E 03 01 36 8C 06 05-01 26 89 35 26 8C 5D 02  .>..6....&.5&.].
0000:2710  1E 56 C5 34 E8 13 00 74-04 58 58 EB F3 5E 1F C7  .VE4h..t.XXks^.G
0000:2720  04 FF FF C7 44 02 FF FF-EB C7 3B F7 75 C6 51 52  ...GD...kG;wuFQR
0000:2730  8C D9 8C C2 3B CA 5A 59-C3 33 F6 A3 33 04 26 8A  .Y.B;JZYC3v#3.&.
0000:2740  46 00 C5 3E 29 01 83 FF-FF 74 0C 3B 55 08 75 07  F.E>)....t.;U.u.
0000:2750  3A 45 04 75 02 EB 6F 36-C5 3E 03 01 3B 55 08 75  :E.u.ko6E>..;U.u
0000:2760  07 3A 45 04 75 02 EB 49-C5 3D 83 FF FF 75 ED 36  .:E.u.kIE=...um6
0000:2770  C5 3E 03 01 56 52 55 06-E8 9B 00 07 5D 5A 5E 36  E>..VRU.h...]Z^6
0000:2780  F6 06 33 04 FF 75 18 8D-5D 10 B9 01 00 56 57 52  v.3..u..].9..VWR
0000:2790  0B F6 74 05 E8 55 F5 EB-03 E8 71 F5 5A 5F 5E 89  .vt.hUuk.hquZ_^.
0000:27A0  55 08 89 6D 0C 8C 45 0E-32 E4 26 8A 46 00 89 45  U..m..E.2d&.F..E
0000:27B0  04 B8 01 00 0B F6 74 08-26 8A 46 08 26 8A 66 0F  .8...vt.&.F.&.f.
0000:27C0  89 45 0A E8 D4 FE 36 8C-1E 6B 04 36 8C 1E 2B 01  .E.hT~6..k.6..+.
0000:27D0  16 1F 89 3E 69 04 89 3E-29 01 C3 C5 3E 03 01 B4  ...>i..>).CE>..4
0000:27E0  FF 38 65 04 74 26 3A E0-74 05 3A 45 04 75 1D 80  .8e.t&:`t.:E.u..
0000:27F0  7D 05 00 74 17 50 FF 75-04 E8 1A 00 58 32 E4 36  }..t.P.u.h..X2d6
0000:2800  3A 06 25 01 75 02 B0 FF-89 45 04 58 C5 3D 83 FF  :.%.u.0..E.XE=..
0000:2810  FF 75 CE 16 1F C3 B8 FF-00 87 45 04 3C FF 74 F5  .uN..C8...E.<.tu
0000:2820  0A E4 74 F1 36 3A 06 25-01 74 EA C4 6D 0C 8D 5D  .dtq6:.%.tjDm..]
0000:2830  10 8B 55 08 8B 4D 0A 8A-C5 32 ED 8A E5 57 51 50  ..U..M..E2m.eWQP
0000:2840  B9 01 00 53 52 E8 EB F4-5A 5B 58 59 03 D0 E2 EE  9..SRhktZ[XY.Pbn
0000:2850  5F C3 16 1F E8 56 10 A1-1B 01 8B 1E 19 01 E8 81  _C..hV.!......h.
0000:2860  DF 89 5C 06 05 BC 07 89-44 04 36 A0 1F 01 C3 B0  _.\..<..D.6 ..C0
0000:2870  FF 81 E9 BC 07 72 17 83-F9 77 77 12 0A F6 74 0E  ..i<.r..yww..vt.
0000:2880  0A D2 74 0A 80 FE 0C 77-05 16 1F E8 AA 10 C3 16  .Rt..~.w...h*.C.
0000:2890  1F E8 19 10 E8 4B DF 89-54 06 89 4C 04 32 C0 C3  .h..hK_.T..L.2@C
0000:28A0  B0 FF 80 FD 18 73 F8 80-F9 3C 73 F3 80 FE 3C 73  0..}.sx.y<ss.~<s
0000:28B0  EE 80 FA 64 73 E9 51 52-16 1F BB E3 03 B9 06 00  n.zdsiQR..;c.9..
0000:28C0  33 D2 8B C2 53 E8 AF EB-1E C5 36 F8 00 E8 21 EB  3R.BSh/k.E6x.h!k
0000:28D0  1F 5B E8 D5 EB 8F 06 E7-03 8F 06 E5 03 C5 36 F8  .[hUk..g...e.E6x
0000:28E0  00 E8 0D EB 32 C0 C3 E8-9A FC E8 5C F1 EB 06 E8  .h.k2@Ch.|h\qk.h
0000:28F0  92 FC E8 8B F2 E3 44 05-01 00 83 D2 00 EB 3C E8  .|h.rcD....R.k<h
0000:2900  FB FA E8 44 F1 EB 24 E8-F3 FA E8 73 F2 EB 1C E8  {zhDqk$hszhsrk.h
0000:2910  EE FA E8 34 F1 EB 06 E8-E6 FA E8 63 F2 E8 C2 DE  nzh4qk.hfzhcrhB^
0000:2920  89 4C 04 E3 06 05 01 00-83 D2 00 26 89 45 21 26  .L.c.....R.&.E!&
0000:2930  88 55 23 0A F6 74 04 26-88 75 24 8B C8 24 7F 26  .U#.vt.&.u$.H$.&
0000:2940  88 45 20 80 E1 80 D1 E1-D1 D2 8A C5 8A E2 26 89  .E .a.QaQR.E.b&.
0000:2950  45 0C 36 A0 22 04 C3 E8-7E 06 B0 FF 36 A2 1A 04  E.6 ".Ch~.0.6"..
0000:2960  72 F4 36 A0 FB 03 24 1F-3C 1F 75 12 B9 0B 00 B0  rt6 {.$.<.u.9..0
0000:2970  3F BF EF 03 F3 AE 75 06-36 C6 06 19 04 00 E8 EA  ??o.s.u.6F....hj
0000:2980  EB B0 FF 72 D1 0A E4 78-CD C4 2E 26 04 8A 26 19  k0.rQ.dxMD.&..&.
0000:2990  04 1E C5 3E 69 04 36 F6-06 FB 03 01 75 09 F6 47  ..E>i.6v.{..u.vG
0000:29A0  0B 01 74 03 1F EB 1C 36-C6 06 1A 04 00 C6 45 05  ..t..k.6F....FE.
0000:29B0  01 88 27 8B 1C 1F 0B DB-74 09 26 3B 5E 0D 77 03  ..'....[t.&;^.w.
0000:29C0  E8 7F FC E8 4E EC E8 F0-EB 73 BE E8 5A 01 A0 1A  h.|hNlhpks>hZ. .
0000:29D0  04 C3 E9 89 00 E8 00 06-72 F8 83 C6 05 BF FC 03  .Ci..h..rx.F.?|.
0000:29E0  E8 4F 06 72 ED E8 83 EB-72 E8 0A E4 78 E4 BE EF  hO.rmh.krh.dxd>o
0000:29F0  03 BF 09 04 B9 0D 00 F3-A4 BF EF 03 BE FC 03 B9  .?..9..s$?o.>|.9
0000:2A00  0B 00 AC 3C 3F 75 08 1E-8E 1E 6B 04 8A 07 1F AA  ..,<?u....k....*
0000:2A10  43 E2 EF 47 C6 05 16 E8-F5 E9 73 3F 33 C0 FF 36  CboGF..huis?3@.6
0000:2A20  21 01 E8 51 EB 58 73 33-C4 2E 26 04 E8 E8 EB 8B  !.hQkXs3D.&.hhk.
0000:2A30  FB 8E 06 6B 04 BE EF 03-B9 0B 00 F3 A4 8B 3E 69  {..k.>o.9..s$.>i
0000:2A40  04 26 C6 45 05 01 16 07-BE 09 04 BF EF 03 B9 0D  .&FE....>..?o.9.
0000:2A50  00 F3 A4 E8 63 EB 73 A1-E9 CD 00 E8 CA 00 B0 FF  .s$hcks!iM.hJ.0.
0000:2A60  C3 E8 F5 EA 72 F8 56 50-32 C0 0A E4 78 08 A0 25  ChujrxVP2@.dx. %
0000:2A70  04 8E 1E 6B 04 40 AA 33-C0 83 C7 0B AB B0 80 AB  ...k.@*3@.G.+0.+
0000:2A80  AD 8B D0 A5 A5 8B 44 F8-AB 8B 44 F6 AB 58 5E 8A  -.P%%.Dx+.Dv+X^.
0000:2A90  C4 0C 40 AA 78 27 8B C2-AB 50 33 C0 AB 58 AA 8A  D.@*x'.B+P3@+X*.
0000:2AA0  C4 36 8A 26 4D 04 51 B1-04 D2 E4 0A C4 AA 36 A1  D6.&M.Q1.Rd.D*6!
0000:2AB0  4D 04 B1 04 D3 E0 59 8A-C4 AA 33 C0 C3 C5 06 37  M.1.S`Y.D*3@CE.7
0000:2AC0  04 AB 26 8C 1D EB F3 8B-FA 80 3D FF 75 03 83 C7  .+&..ks.z.=.u..G
0000:2AD0  07 F6 45 18 C0 75 5C E8-F9 04 72 5A 52 1E 8B F2  .vE.@u\hy.rZR..r
0000:2AE0  8B 5C 1E B1 04 D3 EB 53-16 1F E8 F6 F7 5B E8 E4  .\.1.SkS..hvw[hd
0000:2AF0  EB E8 82 EA 07 5F 72 3E-C5 1E 69 04 80 4C F1 20  kh.j._r>E.i..Lq
0000:2B00  26 8B 4D 19 89 0C 26 8B-55 10 89 54 02 26 8B 55  &.M...&.U..T.&.U
0000:2B10  12 89 54 04 26 8B 55 14-89 54 FE 26 8B 55 16 89  ..T.&.U..T~&.U..
0000:2B20  54 FC C6 47 05 01 16 1F-C4 2E 26 04 26 8A 46 00  T|FG....D.&.&.F.
0000:2B30  E8 A8 FC 32 C0 C3 B0 FF-C3 E8 9C 04 72 29 BF EF  h(|2@C0.Ch..r)?o
0000:2B40  03 B9 0B 00 B0 3F F2 AE-74 1D 36 C6 06 18 04 FF  .9..0?r.t.6F....
0000:2B50  52 1E E8 16 EA C4 2E 26-04 73 16 E8 58 E9 72 05  R.h.jD.&.s.hXir.
0000:2B60  E8 B4 EA EB 39 1F 5A EB-CD 5A 07 59 52 51 06 EB  h4jk9.ZkMZ.YRQ.k
0000:2B70  E4 75 F2 0A E4 78 76 1E-C5 3E 69 04 8B 0C 8B 75  dur.dxv.E>i....u
0000:2B80  08 1F E3 1A 26 3B 4E 0D-77 14 2B DF 53 56 8B D9  ..c.&;N.w.+_SV.Y
0000:2B90  E8 AF FA 5A 32 C0 E8 A0-FB 5B 03 1E 69 04 F6 06  h/zZ2@h {[..i.v.
0000:2BA0  FB 03 08 74 07 80 3E 6D-04 00 75 B9 8E 06 6B 04  {..t..>m..u9..k.
0000:2BB0  8B FB BE EF 03 B9 05 00-A4 F3 A5 A0 FB 03 AA B1  .{>o.9..$s% {.*1
0000:2BC0  05 33 C0 F3 AB E8 C0 0C-92 AB 92 AB 33 C0 57 AB  .3@s+h@..+.+3@W+
0000:2BD0  AB AB 8B 36 69 04 26 C6-44 05 01 C4 2E 26 04 26  ++.6i.&FD..D.&.&
0000:2BE0  8A 46 00 50 53 E8 F3 FB-5B 58 5E 8A E0 F8 07 5F  .F.PShs{[X^.`x._
0000:2BF0  E9 71 FE 36 80 3E 23 01-01 74 01 C3 51 06 53 1E  iq~6.>#..t.CQ.S.
0000:2C00  56 0E 07 0E 1F 33 C9 C6-06 5F 01 05 C6 06 5D 01  V....3IF._..F.].
0000:2C10  0E 89 0E 60 01 BB 5D 01-C5 36 FC 00 E8 D2 E7 36  ...`.;].E6|.hRg6
0000:2C20  F7 06 60 01 00 02 75 2E-36 A0 6A 01 3C 03 75 28  w.`...u.6 j.<.u(
0000:2C30  36 C6 06 5F 01 04 36 C6-06 5D 01 16 36 88 0E 6A  6F._..6F.]..6..j
0000:2C40  01 36 89 0E 60 01 41 36-89 0E 6F 01 E8 A2 E7 5E  .6..`.A6..o.h"g^
0000:2C50  1F 5B 07 59 EB 6A 32 C0-5E 1F 5B 07 59 C3 3C 10  .[.Ykj2@^.[.YC<.
0000:2C60  74 48 3C 03 74 44 C3 9C-36 80 3E 27 01 00 74 0A  tH<.tDC.6.>'..t.
0000:2C70  36 80 3E 24 01 00 75 02-CD 28 9D C3 E8 74 FF 53  6.>$..u.M(.Cht.S
0000:2C80  33 DB E8 FF EF 5B 72 F3-B4 01 E8 31 E6 74 D8 3C  3[h.o[rs4.h1ftX<
0000:2C90  13 75 CB 32 E4 E8 26 E6-EB 09 36 F6 16 DA 00 C3  .uK2dh&fk.6v.Z.C
0000:2CA0  E8 C4 FF B4 01 E8 16 E6-74 F6 53 33 DB E8 D4 EF  hD.4.h.ftvS3[hTo
0000:2CB0  5B 72 C8 32 E4 E8 06 E6-3C 10 74 DE 3C 03 75 DF  [rH2dh.f<.t^<.u_
0000:2CC0  B0 03 E8 64 09 E8 66 0A-16 1F 80 3E 26 01 00 74  0.hd.hf....>&..t
0000:2CD0  03 E8 A5 EC FA 8B 26 1B-04 8E 16 1D 04 E8 DE DA  .h%lz.&......h^Z
0000:2CE0  2E C6 06 23 01 00 2E C6-06 24 01 00 2E 89 26 80  .F.#...F.$....&.
0000:2CF0  04 CD 23 2E A3 1D 04 9C-58 2E 3B 26 80 04 75 07  .M#.#...X.;&..u.
0000:2D00  2E A1 1D 04 E9 C4 D9 2E-83 2E 80 04 02 2E 3B 26  .!..iDY.......;&
0000:2D10  80 04 74 0B B8 00 4C 2E-C6 06 D6 00 FF EB E5 50  ..t.8.L.F.V..keP
0000:2D20  9D 2E 8F 06 1D 04 73 D8-EB EA BE 90 01 E8 02 00  ......sXkj>..h..
0000:2D30  EB E2 0E 07 0E 1F C6 06-5F 01 08 C6 06 5D 01 16  kb....F._..F.]..
0000:2D40  C7 06 60 01 00 00 8A 1E-A3 01 32 FF 89 1E 6F 01  G.`.....#.2...o.
0000:2D50  BB 5D 01 89 36 6B 01 C5-36 FC 00 E8 93 E6 2E C7  ;]..6k.E6|.h.f.G
0000:2D60  06 6B 01 E9 03 2E C7 06-6F 01 01 00 C3 36 8C 06  .k.i..G.o...C6..
0000:2D70  ED 03 36 89 2E EB 03 56-81 E7 FF 00 8C DD E8 57  m.6..k.V.g...]hW
0000:2D80  00 5E C3 97 81 E7 FF 00-83 FF 00 75 0A 50 26 8A  .^C..g.....u.P&.
0000:2D90  46 00 36 A2 25 01 58 2B-C1 03 D0 52 26 F7 66 02  F.6"%.X+A.PR&wf.
0000:2DA0  5A 03 D8 32 E4 26 3B 56-06 72 12 FE C4 26 3B 56  Z.X2d&;V.r.~D&;V
0000:2DB0  10 72 0A FE C4 26 3B 56-0B 72 02 FE C4 D0 E4 36  .r.~D&;V.r.~DPd6
0000:2DC0  0A 26 24 04 26 8A 46 00-36 8C 06 ED 03 36 89 2E  .&$.&.F.6..m.6..
0000:2DD0  EB 03 26 C4 76 12 8C C5-36 80 3E 24 01 00 75 4D  k.&Dv..E6.>$..uM
0000:2DE0  36 89 26 1F 04 16 07 FA-36 FE 06 24 01 36 FE 0E  6.&....z6~.$.6~.
0000:2DF0  23 01 36 8E 16 1D 04 26-8B 26 1B 04 CD 24 26 89  #.6....&.&..M$&.
0000:2E00  26 1B 04 26 8C 16 1D 04-8C C4 8E D4 36 8B 26 1F  &..&.....D.T6.&.
0000:2E10  04 36 FE 06 23 01 36 C6-06 24 01 00 FB 36 C4 2E  .6~.#.6F.$..{6D.
0000:2E20  EB 03 3C 02 74 0B 36 C6-06 25 01 FF C3 32 C0 EB  k.<.t.6F.%..C2@k
0000:2E30  EC 16 1F 80 3E 26 01 00-74 03 E8 3C EB C6 06 84  l...>&..t.h<kF..
0000:2E40  04 02 8E 1E 8B 01 1E B0-22 E8 99 DF 36 8C 06 ED  .......0"h._6..m
0000:2E50  03 36 89 1E EB 03 36 8B-1E 8B 01 8E DB A1 16 00  .6..k.6.....[!..
0000:2E60  59 3B C3 74 22 3B D9 75-1E 50 36 80 3E 84 04 03  Y;Ct";Yu.P6.>...
0000:2E70  74 10 E8 AA E2 B9 14 00-8B D9 51 4B E8 26 10 59  t.h*b9...YQKh&.Y
0000:2E80  E2 F6 36 8F 06 8B 01 0E-1F B0 FF E8 4D F9 FA C6  bv6......0.hMyzF
0000:2E90  06 23 01 00 C6 06 25 01-FF 8E 1E 8B 01 8E 16 30  .#..F.%........0
0000:2EA0  00 8B 26 2E 00 E8 16 D9-58 58 58 B8 02 F2 50 2E  ..&..h.YXXX8.rP.
0000:2EB0  FF 36 ED 03 2E FF 36 EB-03 FB CF 36 C6 06 D7 00  .6m...6k.{O6F.W.
0000:2EC0  00 32 D2 A8 02 75 04 26-C6 05 00 47 B9 08 00 A8  .2R(.u.&F..G9..(
0000:2ED0  04 93 B0 20 74 04 03 F9-33 C9 F3 AA B1 03 F6 C3  ..0 t..y3Is*1.vC
0000:2EE0  08 74 04 03 F9 33 C9 F3-AA 91 AB AB 83 EF 10 F6  .t..y3Is*.++.o.v
0000:2EF0  C3 01 74 09 E8 73 00 E8-80 01 75 04 46 E8 6A 00  C.t.hs.h..u.Fhj.
0000:2F00  E8 49 01 76 16 80 3C 3A-75 11 46 2C 40 76 07 36  hI.v..<:u.F,@v.6
0000:2F10  3A 06 00 01 76 02 B2 FF-AA 46 4F 4E 47 B9 08 00  :...v.2.*FONG9..
0000:2F20  E8 13 00 80 3C 2E 75 07-46 B9 03 00 E8 0D 00 8A  h...<.u.F9..h...
0000:2F30  C2 C3 03 F9 4E C3 E8 13-01 76 F7 4E E8 0D 01 72  BC.yNCh..vwNh..r
0000:2F40  23 75 0C 36 F6 06 D7 00-FF 74 19 3C 20 75 15 E3  #u.6v.W..t.< u.c
0000:2F50  EB 49 3C 2A 75 04 B0 3F-F3 AA AA 3C 3F 75 DD 80  kI<*u.0?s**<?u].
0000:2F60  CA 01 EB D8 B0 20 F3 AA-4E C3 AC E8 2C 01 74 FA  J.kX0 s*NC,h,.tz
0000:2F70  4E C3 36 C6 06 D7 00 01-16 07 BF EF 03 57 B0 20  NC6F.W....?o.W0
0000:2F80  B9 0B 00 F3 AA 32 C0 8A-D0 AA 5F 80 3C 2E 75 8D  9..s*2@.P*_.<.u.
0000:2F90  A4 AC E8 0C 01 74 15 0A-C0 74 11 3C 2E 75 0C AA  $,h..t..@t.<.u.*
0000:2FA0  AC E8 FD 00 74 06 0A C0-74 02 4E 4E 4E 32 C0 C3  ,h}.t..@t.NNN2@C
0000:2FB0  B8 20 20 BF F7 03 AB AA-33 C0 B9 0A 00 F3 AB AA  8  ?w.+*3@9..s+*
0000:2FC0  E8 C5 08 BF 05 04 92 AB-92 AB 93 BB EF 03 8B F7  hE.?...+.+.;o..w
0000:2FD0  32 C0 C3 BF 01 00 EB 02-33 FF 36 C7 06 18 04 00  2@C?..k.3.6G....
0000:2FE0  E5 8B F2 AC 36 A2 17 04-32 E4 3C FF 75 0A 83 C2  e.r,6"..2d<.u..B
0000:2FF0  07 83 C6 06 8A 64 FF AC-E8 9C EC 72 D5 1E 52 56  ..F..d.,h.lrU.RV
0000:3000  50 57 16 07 BF EF 03 E8-28 00 5F 72 17 0B FF 75  PW..?o.h(._r...u
0000:3010  13 16 1F E8 F9 E3 73 0C-E8 C8 F2 36 C6 06 FB 03  ...hycs.hHr6F.{.
0000:3020  16 E8 6B E6 58 36 88 26-FB 03 5E 5A 1F 16 07 BF  .hkfX6.&{.^Z...?
0000:3030  EF 03 80 3C 20 F9 74 9A-B9 0B 00 E8 0E 00 72 0B  o..< yt.9..h..r.
0000:3040  75 05 3C 20 F9 75 8B AA-E2 F1 F8 C3 AC 3C 61 72  u.< yu.*bqxC,<ar
0000:3050  06 3C 7A 77 02 2C 20 56-36 8B 36 A4 01 83 C6 12  .<zw., V6.6$..F.
0000:3060  0E 2E FF 14 5E 3C 2E 74-E2 3C 22 74 DE E8 31 00  ....^<.tb<"t^h1.
0000:3070  74 D9 3C 5B 74 D5 3C 5D-74 D1 3C 3A 74 CD 3C 3C  tY<[tU<]tQ<:tM<<
0000:3080  74 C9 3C 7C 74 C5 3C 3E-74 C1 3C 2B 74 BD 3C 3D  tI<|tE<>tA<+t=<=
0000:3090  74 B9 3C 3B 74 B5 3C 2C-74 B1 3C 09 74 AD 3C 20  t9<;t5<,t1<.t-<
0000:30A0  C3 3C 2F 74 FB 3C 5C C3-36 A1 82 04 33 D2 36 89  C</t{<\C6!..3R6.



0000:3100  B6 30 36 8C 06 B8 30 36-A2 BA 30 36 C6 06 CF 30  606..806":06F.O0
0000:3110  00 32 C0 E8 6B 09 72 DF-36 A3 BB 30 8B D8 32 C0  .2@hk.r_6#;0.X2@
0000:3120  E8 CA 0E F6 C2 80 74 04-B0 02 EB CB 36 C7 06 CD  hJ.vB.t.0.kK6G.M
0000:3130  30 00 00 36 F6 06 BA 30-02 75 52 36 C5 36 B6 30  0..6v.:0.uR6E660
0000:3140  8B 04 0B C0 75 10 36 8E-1E 8B 01 A1 2C 00 36 A3  ...@u.6....!,.6#
0000:3150  C9 30 0B C0 74 37 FC 8E-C0 33 FF B9 FF 7F 32 C0  I0.@t7|.@3.9..2@
0000:3160  F2 AE 74 05 B0 0A E9 8E-00 AE 75 F4 57 8B DF 83  r.t.0.i...utW._.
0000:3170  C3 0F B1 04 D3 EB 06 E8-03 E0 1F 59 73 03 EB 71  C.1.Sk.h.`.Ys.kq
0000:3180  90 8E C0 36 A3 C9 30 33-F6 33 FF F3 A4 16 1F B9  ..@6#I03v3.s$..9
0000:3190  1E 00 8B 1E BB 30 BA D0-30 06 1E E8 72 03 E8 A4  ....;0:P0..hr.h$
0000:31A0  0D E8 75 03 1F 07 72 4D-3D 1E 00 75 19 83 3E DC  .hu...rM=..u..>\
0000:31B0  30 00 75 05 C6 06 CF 30-FF A1 D0 30 3D 4D 5A 74  0.u.F.O0.!P0=MZt
0000:31C0  08 3D 5A 4D 74 03 E9 7D-01 A1 D4 30 B1 05 D3 E0  .=ZMt.i}.!T01.S`
0000:31D0  2B 06 D8 30 A3 BF 30 F6-06 BA 30 02 74 29 C4 3E  +.X0#?0v.:0.t)D>
0000:31E0  B6 30 26 8B 05 A3 EC 30-26 8B 45 02 A3 BD 30 EB  60&..#l0&.E.#=0k
0000:31F0  78 B0 08 EB 02 B0 0B 50-36 8B 1E BB 30 E8 10 03  x0.k.0.P6..;0h..
0000:3200  E8 A2 0C 58 E9 4A D7 50-BB FF FF 1E E8 6E DF 1F  h".XiJWP;...hn_.
0000:3210  58 05 10 00 83 FB 11 72-D8 3B C3 77 D4 80 3E CF  X....{.rX;CwT.>O
0000:3220  30 00 75 18 03 06 DA 30-72 C7 3B C3 77 C3 2B 06  0.u...Z0rG;CwC+.
0000:3230  DA 30 03 06 DC 30 72 04-3B C3 76 02 8B C3 1E 8B  Z0..\0r.;Cv..C..
0000:3240  D8 89 1E CB 30 E8 35 DF-1F 72 A6 A3 CD 30 05 10  X..K0h5_.r&#M0..
0000:3250  00 80 3E CF 30 00 74 0B-03 06 CB 30 2B 06 BF 30  ..>O0.t...K0+.?0
0000:3260  2D 10 00 A3 BD 30 A3 EC-30 8B 16 D8 30 52 B1 04  -..#=0#l0..X0R1.
0000:3270  D3 E2 58 B1 0C D3 E8 8B-C8 8B 1E BB 30 1E 32 C0  SbX1.Sh.H..;0.2@
0000:3280  E8 18 0D 1F 8B 1E BF 30-81 FB 00 10 72 03 BB E0  h.....?0.{..r.;`
0000:3290  0F 29 1E BF 30 53 B1 04-D3 E3 8B CB 8B 1E BB 30  .).?0S1.Sc.K..;0
0000:32A0  1E 8E 1E EC 30 33 D2 51-E8 65 02 E8 97 0C E8 68  ...l03RQhe.h..hh
0000:32B0  02 59 1F 3B C8 5B 75 0B-01 1E EC 30 83 3E BF 30  .Y.;H[u...l0.>?0
0000:32C0  00 75 C1 8B 0E BD 30 A1-DE 30 03 C1 A3 C7 30 A1  .uA..=0!^0.A#G0!
0000:32D0  E0 30 A3 C5 30 C4 06 E4-30 A3 C1 30 8C C0 03 C1  `0#E0D.d0#A0.@.A
0000:32E0  A3 C3 30 33 C9 8B 16 E8-30 8B 1E BB 30 1E 33 C0  #C03I..h0..;0.3@
0000:32F0  E8 A8 0C 1F 73 03 E9 FC-FE 8B 16 D6 30 52 BA D0  h(..s.i|~..V0R:P
0000:3300  30 B9 1C 00 36 8B 1E BB-30 1E E8 03 02 E8 35 0C  09..6..;0.h..h5.
0000:3310  E8 06 02 07 5A 72 DF B9-07 00 BF D0 30 36 8B 36  h...Zr_9..?P06.6
0000:3320  BD 30 83 FA 00 75 03 E9-B8 00 26 C5 1D 8C D8 03  =0.z.u.i8.&E..X.
0000:3330  C6 8E D8 8B 07 03 C6 89-07 83 C7 04 4A E2 E3 06  F.X...F...G.Jbc.
0000:3340  1F EB BA E9 AB FE 36 F6-06 BA 30 02 74 0C 36 C5  .k:i+~6v.:0.t.6E
0000:3350  36 B6 30 AD 36 A3 EC 30-EB 30 BB FF FF E8 1D DE  660-6#l0k0;..h.^
0000:3360  0B DB 74 DF 36 89 1E CB-30 53 E8 10 DE 5B 36 A3  .[t_6..K0Sh.^[6#
0000:3370  CD 30 05 10 00 36 A3 EC-30 83 EB 10 81 FB 00 10  M0...6#l0.k..{..
0000:3380  73 08 8B C3 B1 04 D3 E0-EB 03 B8 FF FF 50 36 8B  s..C1.S`k.8..P6.
0000:3390  1E BB 30 33 C9 8B D1 33-C0 E8 FF 0B 36 8B 1E BB  .;03I.Q3@h..6..;
0000:33A0  30 59 36 8E 1E EC 30 33-D2 51 E8 63 01 E8 95 0B  0Y6..l03RQhc.h..
0000:33B0  E8 66 01 5E 3B C6 74 8B-36 F6 06 BA 30 02 75 22  hf.^;Ft.6v.:0.u"
0000:33C0  36 A1 EC 30 2D 10 00 36-A3 C3 30 36 C7 06 C1 30  6!l0-..6#C06G.A0
0000:33D0  00 01 4E 36 89 36 C5 30-36 A3 C7 30 8E D8 C7 04  ..N6.6E06#G0.XG.
0000:33E0  00 00 36 8B 1E BB 30 E8-26 01 E8 B8 0A E8 29 01  ..6..;0h&.h8.h).
0000:33F0  36 F6 06 BA 30 02 74 03-E9 4C D5 36 8B 16 CD 30  6v.:0.t.iLU6..M0
0000:3400  BE 01 00 36 A1 C9 30 0B-C0 74 05 48 8E D8 89 14  >..6!I0.@t.H.X..
0000:3410  36 A1 CD 30 48 8E D8 89-14 52 36 C6 06 8D 01 FF  6!M0H.X..R6F....
0000:3420  E8 C1 D7 5A 36 FF 36 C9-30 26 8F 06 2C 00 36 8B  hAWZ6.6I0&..,.6.
0000:3430  36 CB 30 03 F2 26 89 36-02 00 36 C5 36 B6 30 1E  6K0.r&.6..6E660.
0000:3440  56 C5 74 06 B9 0C 00 51-BF 5C 00 8A 1C F3 A4 33  VEt.9..Q?\...s$3
0000:3450  C0 AB AB 59 5E 1F 1E 56-C5 74 0A BF 6C 00 8A 3C  @++Y^..VEt.?l..<
0000:3460  F3 A4 AB AB 5E 1F C5 74-02 B9 80 00 8B F9 F3 A4  s$++^.Et.9...ys$
0000:3470  FE C9 36 3A 3E 00 01 76-04 8A F9 EB 02 32 FF 36  ~I6:>..v..yk.2.6
0000:3480  3A 1E 00 01 76 04 8A D9-EB 02 32 DB E8 53 D3 FF  :...v..Yk.2[hSS.
0000:3490  74 14 FF 74 12 FF 74 14-FF 74 12 26 8F 06 0A 00  t..t..t..t.&....
0000:34A0  26 8F 06 0C 00 33 C0 8E-D8 8F 06 88 00 8F 06 8A  &....3@.X.......
0000:34B0  00 36 C7 06 DF 00 80 00-36 8E 1E 8B 01 36 8C 1E  .6G._...6....6..
0000:34C0  E1 00 36 F6 06 BA 30 01-74 26 36 C5 36 C5 30 36  a.6v.:0.t&6E6E06
0000:34D0  C4 3E B6 30 26 8C 5D 10-4E 4E 89 1C 26 89 75 0E  D>60&.].NN..&.u.
0000:34E0  36 C5 06 C1 30 26 8C 5D-14 26 89 45 12 E9 57 D4  6E.A0&.].&.E.iWT
0000:34F0  36 C5 36 C1 30 FA 36 C6-06 23 01 00 36 8E 16 C7  6E6A0z6F.#..6..G
0000:3500  30 2E 8B 26 C5 30 FB 1E-56 8E C2 8E DA 8B C3 CB  0..&E0{.V.B.Z.CK
0000:3510  53 BB 00 00 E8 0D 00 5B-C3 53 2E 8B 1E 8B 01 E8  S;..h..[CS.....h
0000:3520  02 00 5B C3 1E 50 2E A1-C9 30 0B C0 74 07 48 8E  ..[C.P.!I0.@t.H.
0000:3530  D8 89 1E 01 00 2E A1 CD-30 0B C0 74 07 48 8E D8  X.....!M0.@t.H.X
0000:3540  89 1E 01 00 58 1F C3 50-36 C6 06 84 04 03 36 8E  ....X.CP6F....6.
0000:3550  06 8B 01 83 FA 06 73 03-BA 06 00 8B DA 53 06 E8  ....z.s.:...ZS.h
0000:3560  08 DD 1F 5B 72 07 8C D8-03 C3 A3 02 00 58 EB 24  .].[r..X.C#..Xk$
0000:3570  B8 00 31 83 C2 0F B1 04-D3 EA E9 4E D1 32 E4 36  8.1.B.1.SjiNQ2d6
0000:3580  86 26 D6 00 0A E4 36 C6-06 84 04 00 74 06 36 C6  .&V..d6F....t.6F
0000:3590  06 84 04 01 E8 4B D2 36-FF 36 8B 01 8F 44 14 E9  ....hKR6.6...D.i
0000:35A0  73 D4 E8 D0 00 50 E8 04-00 58 C3 8A C2 3C 20 72  sThP.Ph..XC.B< r
0000:35B0  43 3C 7F 74 05 36 FE 06-D8 00 1E 56 36 FE 06 DE  C<.t.6~.X..V6~.^
0000:35C0  00 36 80 26 DE 00 03 75-05 50 E8 AF F6 58 E8 BC  .6.&^..u.Ph/vXh<
0000:35D0  D5 5E 1F 36 F6 06 DA 00-FF 74 CF 53 1E 56 BB 01  U^.6v.Z..tOS.V;.
0000:35E0  00 E8 A0 E6 72 0C F6 44-18 80 74 06 BB 04 00 EB  .h fr.vD..t.;..k
0000:35F0  7D C3 EB 7D 3C 0D 74 20-3C 08 74 26 3C 09 75 BA  }Ck}<.t <.t&<.u:
0000:3600  36 A0 D8 00 0C F8 F6 D8-51 8A C8 B5 00 E3 07 B0  6 X..xvXQ.H5.c.0
0000:3610  20 E8 99 FF E2 F9 59 C3-36 C6 06 D8 00 00 EB 9A   h..byYC6F.X..k.
0000:3620  EB 8B 36 FE 0E D8 00 EB-91 3C 20 73 F3 3C 09 74  k.6~.X.k.< ss<.t
0000:3630  EF 50 B0 5E E8 76 FF 58-0C 40 E8 70 FF C3 E8 3B  oP0^hv.X.@hp.Ch;
0000:3640  F6 BB 03 00 E8 3D E6 72-F4 EB 03 E8 19 F6 B4 01  v;..h=frtk.h.v4.
0000:3650  E8 6B DC 74 F6 32 E4 E8-64 DC C3 53 BB 03 00 EB  hk\tv2dhd\CS;..k
0000:3660  04 53 BB 04 00 8A C2 50-E8 11 F6 58 1E 56 E8 42  .S;...BPh.vX.VhB
0000:3670  D5 5E 1F 5B C3 1E 56 E8-02 F6 74 FB 32 E4 E8 3D  U^.[C.Vh.vt{2dh=
0000:3680  DC 5E 1F C3 8B F2 AC 3C-24 74 F8 E8 1F FF EB F6  \^.C.r,<$txh..kv
0000:3690  8C D0 8E C0 8B F2 32 ED-AD 0A C0 74 E6 8A DC 8A  .P.@.r2m-.@tf.\.
0000:36A0  FD 3A C3 76 05 80 38 0D-74 02 8A DD 8A D0 4A 36  }:Cv..8.t..].PJ6
0000:36B0  A0 D8 00 36 A2 D9 00 56-BF E0 02 36 88 2E 2E 04   X.6"Y.V?`.6....
0000:36C0  8A FD 8A F5 E8 AE FF 3C-0A 75 03 E8 A7 FF 3C 06  .}.uh..<.u.h'.<.
0000:36D0  74 F9 36 3A 06 9F 09 74-38 3C 7F 74 2B 3C 08 74  ty6:...t8<.t+<.t
0000:36E0  27 3C 0D 74 2F 3C 0A 74-4F 3C 1B 74 50 3A F2 73  '<.t/<.tO<.tP:rs
0000:36F0  19 AA FE C6 E8 32 FF 36-80 3E 2E 04 00 75 CC 3A  .*~Fh2.6.>...uL:
0000:3700  FB 73 C8 46 FE C7 EB C3-EB 46 B0 07 E8 9E FE EB  {sHF~GkCkF0.h.~k
0000:3710  BA E9 B3 D2 AA E8 95 FE-5F 88 75 FF FE C6 8C C5  :i3R*h.~_.u.~F.E
0000:3720  8C DB 8E C3 8E DD BE E0-02 8A CE F3 A4 C3 B0 0D  .[.C.]>`..Ns$C0.
0000:3730  E8 7A FE B0 0A E9 75 FE-E8 F3 FF EB 8E B0 5C E8  hz~0.iu~hs.k.0\h
0000:3740  6B FE 5E E8 E8 FF 36 A0-D9 00 E8 BB FE E9 5F FF  k~^hh.6 Y.h;~i_.
0000:3750  0A F6 74 11 E8 52 00 26-8A 05 3C 20 73 07 3C 09  .vt.hR.&..< s.<.
0000:3760  74 15 E8 47 00 36 80 3E-2E 04 00 75 07 0A FF 74  t.hG.6.>...u...t
0000:3770  03 FE CF 4E E9 54 FF 57-4F FD 8A CE B0 20 53 B3  .~ONiT.WO}.N0 S3
0000:3780  07 E3 0E AE 76 09 26 80-7D 01 09 74 09 FE CB E2  .c..v.&.}..t.~Kb
0000:3790  F2 36 2A 1E D9 00 2A DE-02 CB 80 E1 07 FC 5B 5F  r6*.Y.*^.K.a.|[_
0000:37A0  74 C3 E8 07 00 E2 FB EB-BC FE CE 4F B0 08 E8 FC  tCh..b{k<~NO0.h|
0000:37B0  FD B0 20 E8 F7 FD B0 08-E9 F2 FD 36 A0 9F 09 E9  }0 hw}0.ir}6 ..i
0000:37C0  2B FF 8A CB 2A CF EB 07-E8 34 00 EB 02 B1 01 36  +..K*Ok.h4.k.1.6
0000:37D0  C6 06 2E 04 00 3A F2 74-0F 3A FB 74 0B AC AA E8  F....:rt.:{t.,*h
0000:37E0  47 FE FE C7 FE C6 E2 E7-E9 E0 FE 3A FB 74 F9 FE  G~~G~Fbgi`~:{ty~
0000:37F0  C7 46 E9 D6 FE E8 07 00-03 F1 02 F9 E9 CC FE E8  GFiV~h...q.yiL~h
0000:3800  73 FE 36 3A 06 9F 09 75-06 E8 69 FE EB 1E 90 8A  s~6:...u.hi~k...
0000:3810  CB 2A CF 74 17 49 74 14-06 1E 07 57 8B FE 47 F2  K*Ot.It....W.~Gr
0000:3820  AE 5F 07 75 07 F6 D1 02-CB 2A CF C3 5D E9 9B FE  ._.u.vQ.K*OC]i.~
0000:3830  B0 40 E8 78 FD 5F 57 06-1E E8 E2 FE 1F 07 5E 8A  0@hx}_W..hb~..^.
0000:3840  DE E9 FF FE 36 F6 16 2E-04 E9 7F FE B0 1A E9 9C  ^i.~6v...i.~0.i.
0000:3850  FE E8 28 F4 B0 00 74 D3-0C FF C3 50 52 33 DB E8  ~h(t0.tS..CPR3[h
0000:3860  22 E4 72 05 B4 04 E8 55-DA 5A 58 8A E0 3C 01 74  "dr.4.hUZZX.`<.t
0000:3870  13 3C 06 74 0F 3C 07 74-0B 3C 08 74 07 3C 0A 74  .<.t.<.t.<.t.<.t
0000:3880  03 B0 00 C3 FA E9 A6 CE-51 06 E8 20 00 07 D0 E1  .0.Czi&NQ.h ..Pa
0000:3890  D0 E1 D1 E1 D1 E1 D1 E1-D0 EE 0A CE 8B D1 A1 1A  PaQaQaQaPn.N.Q!.
0000:38A0  01 B1 04 D2 E0 D1 E0 59-0A 06 19 01 C3 56 53 BB  .1.R`Q`Y....CVS;
0000:38B0  E3 03 B9 06 00 33 D2 8B-C2 E8 BB DB 1E C5 36 F8  c.9..3R.Bh;[.E6x
0000:38C0  00 E8 2D DB 1F 5B 5E A1-E3 03 8B 0E E5 03 8B 16  .h-[.[^!c...e...
0000:38D0  E7 03 3B 06 1D 01 74 42-3D 36 AB 73 3D A3 1D 01  g.;...tB=6+s=#..
0000:38E0  56 51 52 33 D2 B9 B5 05-F7 F1 D1 E0 D1 E0 D1 E0  VQR3R95.wqQ`Q`Q`
0000:38F0  8B C8 BE 73 01 E8 23 00-D1 E9 73 04 81 C2 C8 00  .H>s.h#.Qis..BH.
0000:3900  E8 24 00 B1 01 BE 7B 01-E8 10 00 88 0E 1A 01 42  h$.1.>{.h......B
0000:3910  88 16 19 01 E8 92 00 5A-59 5E C3 B4 00 AC 3B D0  ....h..ZY^C4.,;P
0000:3920  72 15 2B D0 41 EB F6 88-0E 1B 01 F6 C1 03 B0 1C  r.+PAkv....vA.0.
0000:3930  75 02 FE C0 A2 7C 01 C3-E8 F0 FF 8A C6 BB 7A 01  u.~@"|.Chp..F;z.
0000:3940  D7 3A C2 B0 FF 72 74 E8-DD FF 89 16 19 01 D1 E9  W:B0.rth].....Qi
0000:3950  D1 E9 B8 B5 05 8B DA F7-E1 8A 0E 1B 01 80 E1 03  Qi85..Zwa.....a.
0000:3960  BE 73 01 8B D0 D1 E1 E8-52 00 8A CF BE 7B 01 49  >s..PQahR..O>{.I
0000:3970  E8 49 00 8A CB 49 03 D1-92 A3 1D 01 56 53 50 BB  hI..KI.Q.#..VSP;
0000:3980  E3 03 B9 06 00 33 D2 8B-C2 53 E8 EA DA 1E C5 36  c.9..3R.BShjZ.E6
0000:3990  F8 00 E8 5C DA 1F 5B E8-10 DB 8F 06 E3 03 1E C5  x.h\Z.[h.[..c..E
0000:39A0  36 F8 00 E8 4B DA 1F 5B-5E A1 1D 01 33 D2 B9 07  6x.hKZ.[^!..3R9.
0000:39B0  00 40 40 F7 F1 88 16 1F-01 32 C0 C3 B4 00 E3 FB  .@@wq....2@C4.c{
0000:39C0  AC 03 D0 E2 FB C3 50 51-56 8B F2 B9 FF 00 8B 04  ,.Pb{CPQV.r9....
0000:39D0  0A C0 74 29 80 FC 3A 75-06 80 7C 02 00 74 1E AC  .@t).|:u..|..t.,
0000:39E0  0A C0 74 36 3C 3F 74 1A-3C 2A 74 16 E8 B2 F6 75  .@t6<?t.<*t.h2vu
0000:39F0  EE E3 0A AC 0A C0 74 0E-E8 A6 F6 75 E3 41 0B C9  nc.,.@t.h&vucA.I
0000:3A00  EB 1C 33 C9 EB D9 2B F2-83 FE 02 74 0D 83 FE 04  k.3IkY+r.~.t..~.
0000:3A10  75 EB 8B F2 80 7C 01 3A-75 E3 0B C9 75 01 F9 5E  uk.r.|.:uc.Iu.y^
0000:3A20  59 58 C3 E8 A0 FF 72 0D-8B F2 E8 74 DD 73 F3 B0  YXCh .r..rht]ss0
0000:3A30  02 0A C9 75 02 B0 03 F9-C3 50 51 B0 FF 36 8E 06  ..Iu.0.yCPQ0.6..
0000:3A40  8B 01 BF 18 00 B9 14 00-F2 AE F9 75 02 4F F8 59  ..?..9..r.yu.OxY
0000:3A50  58 C3 53 51 36 C4 1E F4-00 33 F6 83 FB FF 74 18  XCSQ6D.t.3v.{.t.
0000:3A60  BF 06 00 26 8B 4F 04 26-80 39 00 74 0E 83 C7 28  ?..&.O.&.9.t..G(
0000:3A70  46 E2 F4 26 C4 1F EB E3-F9 EB 03 03 FB F8 59 5B  Fbt&D.kcyk..{xY[
0000:3A80  C3 36 C6 06 7A 06 00 3C-02 76 05 B0 0C E9 C1 CE  C6F.z..<.v.0.iAN
0000:3A90  36 8C 1E 6C 06 16 1F 89-16 6A 06 A2 6E 06 E8 98  6..l.....j."n.h.
0000:3AA0  FF 73 04 B0 04 EB E6 8C-06 71 06 89 3E 6F 06 E8  .s.0.kf..q..>o.h
0000:3AB0  A0 FF 72 EF 89 36 73 06-89 3E 75 06 8C 06 77 06   .ro.6s..>u...w.
0000:3AC0  1E C5 16 6A 06 E8 5B FF-1F 73 02 EB D8 8E 06 6B  .E.j.h[..s.kX..k
0000:3AD0  04 88 26 79 06 F6 C4 80-75 24 26 8A 47 0B A8 10  ..&y.vD.u$&.G.(.
0000:3AE0  74 04 B0 05 EB E5 A8 08-75 F8 A8 01 74 12 80 3E  t.0.ke(.ux(.t..>
0000:3AF0  7A 06 00 75 0B 80 3E 6E-06 00 75 E6 EB 02 16 07  z..u..>n..ufk...
0000:3B00  B9 0B 00 56 8B F3 8B 3E-75 06 1E 06 8E 06 77 06  9..V.s.>u.....w.
0000:3B10  1F 8A 67 0B 26 88 65 02-83 C7 04 F3 A4 1F 5E C4  ..g.&.e..G.s$.^D
0000:3B20  3E 75 06 83 C7 03 8A 26-79 06 E8 37 EF 16 1F C4  >u..G..&y.h7o..D
0000:3B30  3E 75 06 26 FE 05 A0 6E-06 26 88 45 01 33 C0 26  >u.&~. n.&.E.3@&
0000:3B40  89 45 24 26 89 45 26 40-26 89 45 11 C4 3E 6F 06  .E$&.E&@&.E.D>o.
0000:3B50  A1 73 06 26 88 05 83 EF-18 8B C7 E9 E9 CD E8 C2  !s.&...o..GiiMhB
0000:3B60  FE 73 03 E9 EB CD 74 0B-36 C5 3E 69 04 F6 47 0B  ~s.ikMt.6E>i.vG.
0000:3B70  01 74 04 B0 05 EB EC C6-07 E5 C6 45 05 01 AD 8B  .t.0.klF.eFE..-.
0000:3B80  D8 81 E3 FF 0F 16 1F 74-03 E8 B6 EA 26 8A 46 00  X.c....t.h6j&.F.
0000:3B90  E8 48 EC EB C6 E8 2E FE-73 04 B0 03 EB D7 52 1E  hHlkFh.~s.0.kWR.
0000:3BA0  16 1F C7 06 18 04 FF E5-8C 16 3D 04 C7 06 3B 04  ..G....e..=.G.;.
0000:3BB0  FE 04 8B F2 8A C1 80 E1-01 88 0E 7A 06 1F 1E E8  ~..r.A.a...z...h
0000:3BC0  3D DB 1F 5A 0A C0 74 08-3C 03 74 04 B0 05 EB CC  =[.Z.@t.<.t.0.kL
0000:3BD0  B0 02 E9 B2 FE 16 1F E8-5F FE 72 18 06 57 E8 9E  0.i2~..h_~r..Wh.
0000:3BE0  02 5E 1F 72 13 26 FE 05-8A 47 18 88 04 83 EE 18  .^.r.&~..G....n.
0000:3BF0  8B C6 EB 9F B0 04 EB D6-B0 06 EB FA 87 D9 53 51  .Fk.0.kV0.kz.YSQ
0000:3C00  E8 A2 02 16 1F 59 5B E8-89 02 87 D9 73 CE B0 06  h"...Y[h...YsN0.
0000:3C10  EB E8 3C 01 76 04 B0 01-EB F6 72 0E 8B D9 81 E3  kh<.v.0.kvr..Y.c
0000:3C20  D8 FF 74 06 B0 05 EB F0-EB FC 51 50 E8 F4 FD 5A  X.t.0.kpk|QPht}Z
0000:3C30  59 72 F5 36 C4 3E 69 04-16 1F 0A D2 74 15 26 80  Yru6D>i....Rt.&.
0000:3C40  67 0B D8 26 08 4F 0B 26-C6 45 05 01 B0 FF E8 8A  g.X&.O.&FE..0.h.
0000:3C50  EB EB 9F 33 C9 26 8A 4F-0B E8 86 CB 89 4C 04 EB  kk.3I&.O.h.K.L.k
0000:3C60  F0 1E 53 56 E8 50 D1 3C-FF 75 07 58 58 58 B0 0F  p.SVhPQ<.u.XXX0.
0000:3C70  EB B6 5F 8F 44 02 5B 89-5C 0E 26 83 7E 1C FF 75  k6_.D.[.\.&.~..u
0000:3C80  0D 53 57 36 C6 06 FB 03-16 E8 03 DA 5F 5B 8B F5  .SW6F.{..h.Z_[.u
0000:3C90  06 1F 8E C3 83 7C 1C 00-75 04 C6 44 1E 00 83 C6  ...C.|..u.FD...F
0000:3CA0  1E B9 40 00 AC AA 0A C0-E0 FA EB B3 36 89 16 7B  .9@.,*.@`zk36..{
0000:3CB0  06 36 8C 1E 7D 06 36 89-3E 7F 06 36 8C 06 81 06  .6..}.6.>..6....
0000:3CC0  E8 60 FD 73 02 EB A9 74-2A 36 8E 1E 6B 04 FF 77  h`}s.k)t*6..k..w
0000:3CD0  18 FF 77 1A FF 77 1E FF-77 1C FF 77 16 FF 77 0B  ..w..w..w..w..w.
0000:3CE0  36 FF 36 25 04 36 C5 36-7F 06 E8 B4 DA 58 72 07  6.6%.6E6..h4ZXr.
0000:3CF0  83 C4 0C B0 05 EB CE 36-3A 06 25 04 74 07 83 C4  .D.0.kN6:.%.t..D
0000:3D00  0C B0 11 EB F0 36 C5 36-7F 06 58 50 36 C7 06 18  .0.kp6E6..XP6G..
0000:3D10  04 FF E5 36 8C 16 3D 04-36 C7 06 3B 04 FE 04 E8  ..e6..=.6G.;.~.h
0000:3D20  DD D9 72 CC 36 C5 36 69-04 58 88 47 0B 8F 47 16  ]YrL6E6i.X.G..G.
0000:3D30  8F 47 1C 8F 47 1E 8F 47-1A 8F 47 18 C6 44 05 01  .G..G..G..G.FD..
0000:3D40  36 C5 36 7B 06 E8 59 DA-36 C5 36 69 04 C6 07 E5  6E6{.hYZ6E6i.F.e
0000:3D50  C6 44 05 01 16 1F B0 FF-E8 80 EA E9 E9 CB E8 65  FD....0.h.jiiKhe
0000:3D60  FC 73 06 74 04 B0 02 EB-9A 8B F2 51 36 FE 06 D5  |s.t.0.k..rQ6~.U
0000:3D70  00 36 C7 06 18 04 00 E5-E8 26 DA 59 36 88 0E FB  .6G....eh&ZY6..{
0000:3D80  03 73 04 B0 12 EB E0 36-8E 1E 6B 04 8A 6F 0B E8  .s.0.k`6..k..o.h
0000:3D90  DA DB 74 0D 36 FF 36 21-01 36 8B 1E 4D 04 E9 A0  Z[t.6.6!.6..M.i
0000:3DA0  00 36 C4 3E DF 00 36 A0-FB 03 AA 36 A0 25 04 AA  .6D>_.6 {.*6 %.*
0000:3DB0  B9 0B 00 53 BE EF 03 1E-16 1F F3 A4 1F 36 A1 21  9..S>o....s$.6!!
0000:3DC0  01 AB 36 A1 26 04 AB 36-A1 28 04 AB 36 A1 4D 04  .+6!&.+6!(.+6!M.
0000:3DD0  AB 8A 47 0B AA 8B 47 16-AB 8B 47 18 AB 8B 47 1C  +.G.*.G.+.G.+.G.
0000:3DE0  AB 8B 47 1E AB 5E B9 08-00 AC AA 3C 20 E0 FA 75  +.G.+^9..,*< `zu
0000:3DF0  01 4F 03 F1 80 3C 20 74-0F B0 2E AA B9 03 00 AC  .O.q.< t.0.*9..,
0000:3E00  AA 3C 20 E0 FA 75 01 4F-32 C0 AA E9 39 CB 36 C5  *< `zu.O2@*i9K6E
0000:3E10  36 DF 00 8B D6 42 56 E8-B9 F1 5E 73 05 B0 12 E9  6_..VBVh9q^s.0.i
0000:3E20  2F CB 8B 44 0D C4 6C 0F-0B C0 78 F1 8B 5C 13 8A  /K.D.Dl..@xq.\..
0000:3E30  14 36 88 16 FB 03 50 36-89 2E 26 04 36 8C 06 28  .6..{.P6..&.6..(
0000:3E40  04 E8 91 D8 58 C7 06 61-04 FF FF E8 C9 D7 E8 68  .h.XXG.a...hIWhh
0000:3E50  D7 E9 2D FF 50 C4 3E F4-00 83 FF FF 74 1E 26 2B  Wi-.PD>t....t.&+
0000:3E60  45 04 7C 05 26 C4 3D EB-F0 26 03 45 04 53 BB 28  E.|.&D=kp&.E.S;(
0000:3E70  00 F6 E3 5B 05 06 00 03-F8 F8 EB 01 F9 58 C3 50  .vc[....xxk.yXCP
0000:3E80  E8 10 00 72 F7 26 8A 05-3C FF 74 F0 32 E4 E8 C3  h..rw&..<.tp2dhC
0000:3E90  FF EB EA 83 FB 14 73 0B-8E 06 8B 01 8B FB 83 C7  .kj.{.s......{.G
0000:3EA0  18 F8 C3 F9 C3 16 1F E8-E9 FF 73 05 B0 06 E9 A0  .xCyC..hi.s.0.i
0000:3EB0  CA 26 8A 05 3C FF 74 F4-26 C6 05 FF 32 E4 E8 93  J&..<.tt&F..2dh.
0000:3EC0  FF 72 E9 06 1F FE 0D 8D-55 03 F6 45 1B C0 75 17  .ri..~..U.vE.@u.
0000:3ED0  FF 75 02 E8 FD F0 5B 36-88 1E FB 03 E8 FD EB 3C  .u.h}p[6..{.h}k<
0000:3EE0  FF 75 04 B0 02 EB C7 E9-5D CA 36 8C 06 85 06 36  .u.0.kGi]J6....6
0000:3EF0  89 1E 87 06 36 8F 06 83-06 36 C4 1E DF 00 06 53  ....6....6D._..S
0000:3F00  36 FF 36 83 06 E8 2A 00-36 89 16 DF 00 36 8C 1E  6.6..h*.6.._.6..
0000:3F10  E1 00 36 8E 06 85 06 36-8B 1E 87 06 C3 36 8F 06  a.6....6....C6..
0000:3F20  83 06 36 8F 06 DF 00 36-8F 06 E1 00 36 FF 36 83  ..6.._.6..a.6.6.
0000:3F30  06 C3 51 52 B1 04 D3 EA-8C D9 03 CA 8E D9 5A 81  .CQR1.Sj.Y.J.YZ.
0000:3F40  E2 0F 00 59 C3 E8 A2 FF-E8 3B 00 72 09 26 80 7D  b..YCh".h;.r.&.}
0000:3F50  01 01 75 07 B0 05 E8 C4-FF EB 8A E8 B1 E9 E8 81  ..u.0.hD.k.h1ih.
0000:3F60  C8 8B 44 04 36 8B 0E 89-06 89 4C 04 E8 AE FF E9  H.D.6.....L.h..i
0000:3F70  D5 C9 E8 75 FF E8 0E 00-72 DC 26 80 7D 01 00 74  UIhu.h..r\&.}..t
0000:3F80  D3 E8 93 E9 EB D8 16 1F-89 0E 89 06 E8 F0 FE B0  Sh.ikX......hp~0
0000:3F90  06 8B 0E 89 06 8D 55 03-06 1F C3 3C 03 72 04 B0  ......U...C<.r.0
0000:3FA0  01 EB B6 16 1F E8 D7 FE-06 1F 72 3D F6 45 1B 80  .k6..hW~..r=vE..
0000:3FB0  74 06 33 C0 33 D2 EB 16-FE C8 7C 0F FE C8 7C 1E  t.3@3Rk.~H|.~H|.
0000:3FC0  92 87 D1 03 45 13 13 55-15 EB 03 92 87 D1 89 45  ..Q.E..U.k...Q.E
0000:3FD0  24 89 55 26 E8 0B C8 89-54 06 89 04 EB 91 92 87  $.U&h.H.T...k...
0000:3FE0  D1 03 45 24 13 55 26 EB-E5 B0 06 EB B4 8C DE 16  Q.E$.U&ke0.k4.^.
0000:3FF0  1F 3C 03 77 50 52 E8 86-FE 5A 73 04 B0 06 EB EB  .<.wPRh.~Zs.0.kk
0000:4000  3C 02 73 32 3C 00 26 8A-45 1B 74 12 0A F6 74 04  <.s2<.&.E.t..vt.
0000:4010  B0 0D EB EA A8 80 74 55-26 88 55 1B EB BE 32 E4  0.kj(.tU&.U.k>2d
0000:4020  A8 80 74 08 26 C4 7D 1C-26 8A 65 05 E8 B3 C7 8B  (.t.&D}.&.e.h3G.
0000:4030  D0 89 54 06 EB E6 26 F6-45 1B 80 74 30 26 C4 7D  P.T.kf&vE..t0&D}
0000:4040  1C 32 DB EB 4D FE C8 FE-C8 3C 03 76 28 B4 01 2C  .2[kM~H~H<.v(4.,
0000:4050  04 74 06 B4 03 FE C8 75-14 50 E8 27 DC 58 72 11  .t.4.~Hu.Ph'\Xr.
0000:4060  E8 5B D2 8A E0 B0 FF 75-02 FE C0 EB C7 B0 01 EB  h[R.`0.u.~@kG0.k
0000:4070  A1 B0 05 EB FA 51 52 50-56 8A C3 E8 19 DC 72 0C  !0.kzQRPV.Ch.\r.
0000:4080  E8 60 E2 26 8A 5E 01 26-C4 7E 12 F8 5E 58 5A 59  h`b&.^.&D~.x^XZY
0000:4090  72 DF 26 F7 45 04 00 40-74 D3 FE C8 FE C8 74 07  r_&wE..@tS~H~Ht.
0000:40A0  C6 06 49 01 0C EB 05 C6-06 49 01 03 B0 16 8A E3  F.I..k.F.I..0..c
0000:40B0  A3 47 01 33 C0 A3 4A 01-A2 54 01 89 0E 59 01 89  #G.3@#J."T...Y..
0000:40C0  16 55 01 89 36 57 01 06-1F 8B F7 16 07 BB 47 01  .U..6W....w..;G.
0000:40D0  E8 1E D3 36 A1 59 01 EB-92 3C 02 72 04 B0 01 EB  h.S6!Y.k.<.r.0.k
0000:40E0  92 16 1F E8 99 FD 73 04-B0 06 EB F3 0A C0 75 13  ...h.}s.0.ks.@u.
0000:40F0  26 8B 4D 19 26 8B 55 17-E8 E7 C6 89 4C 04 89 54  &.M.&.U.hgF.L..T
0000:4100  06 EB D4 26 89 4D 19 26-89 55 17 26 80 65 1B BF  .kT&.M.&.U.&.e.?
0000:4110  EB EF FA FC 2E 89 16 E3-00 2E 89 26 F0 03 2E 8C  koz|...c...&p...
0000:4120  16 F2 03 BC C7 43 8C C8-8E D0 36 8C 1E 09 01 36  .r.<GC.H.P6....6
0000:4130  89 36 07 01 E8 E8 01 56-83 C6 0A 0E 07 BF 0D 00  .6..hh.V.F...?..
0000:4140  B0 03 AA FE C8 AA 32 C0-AA AA B9 04 00 F3 A5 B1  0.*~H*2@**9..s%1
0000:4150  03 B0 20 F3 AA 83 C7 0C-B0 C3 AA 5E 8B C6 AB 8C  .0 s*.G.0C*^.F+.
0000:4160  D8 AB 80 4C 04 03 36 89-36 FC 00 36 8C 1E FE 00  X+.L..6.6|.6..~.
0000:4170  C5 34 E8 AA 01 F6 44 04-08 74 F5 36 89 36 F8 00  E4h*.vD..tu6.6x.
0000:4180  36 8C 1E FA 00 BD C9 43-C5 34 83 FE FF 74 68 E8  6..z.=ICE4.~.thh
0000:4190  8D 01 F7 44 04 00 80 75-EF 36 8A 0E 3A 01 32 ED  ..wD...uo6..:.2m
0000:41A0  88 4C 0A 36 8A 16 00 01-32 F6 36 00 0E 00 01 1E  .L.6....2v6.....
0000:41B0  56 36 C5 1E 3F 01 8B 37-43 43 26 88 56 00 26 88  V6E.?..7CC&.V.&.
0000:41C0  76 01 53 51 52 E8 75 CC-26 8B 46 02 36 3B 06 01  v.SQRhuL&.F.6;..
0000:41D0  01 76 04 36 A3 01 01 5A-59 5B 8C D8 5E 1F 26 89  .v.6#..ZY[.X^.&.
0000:41E0  76 12 26 8C 5E 14 1E 56-FE C6 FE C2 8E D8 83 C5  v.&.^..V~F~B.X.E
0000:41F0  5E E2 C3 5E 1F EB 91 0E-1F 8B FD 8B 2E 01 01 B8  ^bC^.k....}....8
0000:4200  12 41 A3 F4 03 03 C5 05-10 00 A3 F0 00 8B D0 81  .A#t..E...#p..P.
0000:4210  EA 12 41 8B EA 03 EF 81-ED B7 02 55 BF C9 43 83  j.A.j.o.m7.U?IC.
0000:4220  C7 18 8A 0E 00 01 32 ED-05 5E 00 AB 83 C7 5C E2  G.....2m.^.+.G\b
0000:4230  F7 83 EF 5E B8 FF FF AB-83 C5 0F B1 04 D3 ED 8C  w.o^8..+.E.1.Sm.
0000:4240  CA 03 D5 BB 0F 00 8B 0E-E3 00 8C CD 89 0E E3 00  J.U;....c..M..c.
0000:4250  8E C5 26 8C 06 6D 01 33-C0 8E D8 8E C0 BF 82 00  .E&..m.3@.X.@?..
0000:4260  8B C5 C6 06 C0 00 EA C7-06 C1 00 DC 06 A3 C3 00  .EF.@.jG.A.\.#C.
0000:4270  C7 06 00 00 2A 2D A3 02-00 B9 11 00 F3 AB C7 06  G...*-#..9..s+G.
0000:4280  80 00 C7 06 C7 06 84 00-CB 06 C7 06 88 00 00 01  ..G.G...K.G.....
0000:4290  89 16 8A 00 C7 06 8C 00-DB 06 C7 06 90 00 DB 06  ....G...[.G...[.
0000:42A0  C7 06 94 00 E7 08 C7 06-98 00 21 09 C7 06 9C 00  G...g.G...!.G...
0000:42B0  70 35 C7 06 A0 00 DB 06-B9 0C 00 33 C0 BF A8 00  p5G. .[.9..3@?(.
0000:42C0  F3 AB 0E 1F 0E 07 B8 E0-02 05 0F 00 B1 04 D3 E8  s+....8`....1.Sh
0000:42D0  8C DF 03 F8 47 89 3E 8B-01 55 52 A1 E3 00 8B D7  ._.xG.>..UR!c..W
0000:42E0  E8 6E C9 0E 1F BF 18 00-33 C0 AB AA B0 FF B9 11  hnI..?..3@+*0.9.
0000:42F0  00 F3 AA 0E 07 8C 1E F6-00 BE 8B 06 E8 CE C8 0E  .s*....v.>..hNH.
0000:4300  1F 0E 07 5A 5D 59 BE C9-43 8B 3E F0 00 2B CF 3B  ...Z]Y>IC.>p.+O;
0000:4310  FE 76 07 49 03 F9 03 F1-41 FD 8E C5 E9 D7 C0 36  ~v.I.y.qA}.EiW@6
0000:4320  C6 06 2D 01 1A 36 C6 06-2E 01 00 36 C6 06 2F 01  F.-..6F....6F./.
0000:4330  00 36 C7 06 30 01 00 00-06 53 50 BB 2D 01 0E 07  .6G.0....SP;-...



0000:43D0  80 FB 05 72 06 2E C6 05-1F B3 00 E2 ED EB 07 0E  .{.r..F..3.bmk..
0000:43E0  07 B0 2D 47 F2 AA E8 2E-6A EB 61 3C 04 75 08 80  .0-Gr*h.jka<.u..
0000:43F0  FB F0 73 33 43 EB 07 3C-13 75 09 4B 74 29 89 9E  {ps3Ck.<.u.Kt)..
0000:4400  EF                                               o
-q



                                               ;* tabulky parametr– disk– DOS
                                               ;* (po inicializaci se p©em¡st¡)


                                               ;* ka‘d  tabulka je dlouh  5eh

0000:43c9                                      ;* disk A
                         db                      ; 00h: ‡¡slo disku
                         db                      ; 01h: rel. ‡¡slo log. disku
                         dw                      ; 02h: po‡et bajt– na sektor
                         db                      ; 04h: posledn¡ sektor v bloku
                         db                      ; 05h: © d bloku (v sektorech)
                         dw                      ; 06h: rezervovan‚ sektory
                         db                      ; 08h: po‡et tabulek FAT
                         dw                      ; 09h: po‡et polo‘ek ROOT adr.
                         dw                      ; 0bh: po‡ te‡n¡ datov˜ sektor
                         dw                      ; 0dh: maxim. ‡¡slo dat. bloku
                         db                      ; 0fh: po‡et sektor– ve FAT
                         dw                      ; 10h: po‡ te‡n¡ sektor ROOT
                         dd                      ; 12h: adresa ovlada‡e disku
                         db                      ; 16h: popisova‡ m‚dia
                         db                      ; 17h: p©¡znak zmˆny m‚dia
                                                 ;        FFh=m‚dium vymˆnˆno
                                                 ;        01h=m‚dium nezmˆnˆno
                                                 ;        00h=nezn m˜ stav m‚dia
                         dw                      ; 18h: adresa tab. n sled.disku
                                                 ;      (0ffffh=posledn¡)
                         dw                      ; 1ch: po‡ te‡n¡ blok aktivn¡ho
                                                 ;      adres ©e (0=ROOT)
                                                 ;      (-1 = nen¡ ovˆ©en)
                         db     40h dup(?)       ; 1eh: ASCIIZ aktivn¡ adres ©

0000:4427                                      ;* disk B
                         .....

                                               ;* diskov‚ buffery
                                               ;* ka‘d˜ buffer obsahuje 1 sektor
                                               ;* (nejvˆt¨¡, jak˜ se pou‘¡v )
                                                 ; 00h: ukazatel na dal¨¡ buffer
                                                 ; 04h: disk (A=0,..),0ffh=voln˜
                                                 ; 05h: sektor byl modifikov n
                                                 ; 06h:
                                                 ; 08h: logick‚ ‡¡slo sektoru
                                                 ; 0ah: po‡et kopi¡ k z pisu
                                                 ; 0bh: offset kopi¡ (sektor–)
                                                 ; 0ch: ukaz. na ©¡d. blok DOS
                                                 ; 10h: ... data

                                               ;* ©¡dic¡ blok pamˆti
                                                 ; 00h: "Z"=posledn¡,"M"=st©edn¡
                                                 ; 01h: segment PSP vlastn¡ka
                                                 ;       0000h=voln˜, 0008=DOS
                                                 ; 03h: velikost v odstavc¡ch
                                                 ; 05h: nepou‘ito

                                               ;* syst‚mov  tabulka soubor–
                                                 ; 00h: ukazatel na dal¨¡ tab.
                                                 ; 04h: po‡et soubor– v tabulce
                                                 ; 06h:  28h bajt– na soubor
                                                 ;     00h: ‡¡slo identifik toru
                                                 ;     01h: m¢d otev©en¡
                                                 ;     02h: atributy souboru
                                                 ;     03h: disk (0=znak. za©.)
                                                 ;     04h: jm‚no souboru FCB
                                                 ;     0ch: p©¡pona souboru FCB
                                                 ;     0fh: aktu ln¡ blok
                                                 ;     11h: d‚lka z znamu
                                                 ;     13h: velikost souboru
                                                 ;     17h: datum
                                                 ;     19h: ‡as
                                                 ;     1bh: atributy za©¡zen¡
                                                 ;       bit 6: 0=soub. modifik.
                                                 ;       bit 7: 0=blok. za©¡zen¡
                                                 ;znak:1ch: ukazatel na driver
                                                 ;blok:1ch: po‡ te‡n¡ alok. blok
                                                 ;blok:1eh: rel.blok posl.‡ten¡
                                                 ;     20h: aktu ln¡ alok. blok
                                                 ;     22h:
                                                 ;     24h: relat.aktual.z znam

                                               ;* ©¡dic¡ blok FCB souboru
                                                 ; -07h: 0ffh=ident. roz¨¡©. FCB
                                                 ; -06h: 0,..=rezervov no
                                                 ; -01h: atributy souboru
                                                 ;  00h: diskov  jednotka
                                                 ;  01h: jm‚no souboru
                                                 ;  09h: p©¡pona souboru
                                                 ;  0ch: aktu ln¡ blok
                                                 ;  0eh: d‚lka z znamu
                                                 ;  10h: velikost souboru
                                                 ;  14h: datum
                                                 ;  16h: ‡as
                                                 ; (18h: bit 7: 1=blok. za©¡z.)
                                                 ;  20h: aktu ln¡ z znam
                                                 ;  21h: relativn¡ z znam
