CONTEXT   0 241   0   3  72




        .z80

        org     100h

 0100:  ed 73 ba 1b             ld      (tbl1),sp
 0104:  31 ba 1b        lab4:   ld      sp,tbl1
 0107:  11 11 01                ld      de,tbl2
 010a:  0e 09                   ld      c,9
 010c:  cd 05 00                call    5
 010f:  18 48                   jr      lab1
; ......................................................
 0111:                  tbl2:   db      0ch
 0112:                          db      "            * DIMA V1.2 "
 012a:                          db      " 2.3.88  TESLA Roznov *"
 0141:                          db      0ah,0dh
 0143:                          db      "$"
 0144:                  tbl3:   db      0dh,16h
 0146:                          db      "Zvolte disk(A.."
 0155:                  byt1:   db      "B):$"
 0159:  3a 65 de        lab1:   ld      a,(0de65h)
 015c:  f6 40                   or      "@"
 015e:  32 55 01                ld      (byt1),a
 0161:  f5                      push    af
 0162:  11 44 01        lab2:   ld      de,tbl3
 0165:  0e 09                   ld      c,9
 0167:  cd 05 00                call    5
 016a:  11 20 19                ld      de,tbl4
 016d:  0e 0a                   ld      c,0ah
 016f:  cd 05 00                call    5
 0172:  3a 21 19                ld      a,(byt2)
 0175:  b7                      or      a
 0176:  28 ea                   jr      z,lab2
 0178:  3d                      dec     a
 0179:  20 e7                   jr      nz,lab2
 017b:  3a 22 19                ld      a,(byt3)
 017e:  cb af                   res     5,a
 0180:  c1                      pop     bc
 0181:  fe 40                   cp      "@"
 0183:  38 d4                   jr      c,lab1
 0185:  04                      inc     b
 0186:  b8                      cp      b
 0187:  30 d0                   jr      nc,lab1
 0189:  e6 0f                   and     0fh
 018b:  32 39 19                ld      (byt4),a
 018e:  11 11 01        lab115: ld      de,tbl2
 0191:  0e 09                   ld      c,9
 0193:  cd 05 00                call    5
 0196:  3a 39 19                ld      a,(byt4)
 0199:  f6 40                   or      "@"
 019b:  32 b1 01                ld      (byt5),a
 019e:  11 a9 01                ld      de,tbl5
 01a1:  0e 09                   ld      c,9
 01a3:  cd 05 00                call    5
 01a6:  c3 39 02                jp      lab3
; ......................................................
 01a9:                  tbl5:   db      0dh,0ah,0ah
 01ac:                          db      "  FD:"
 01b1:                  byt5:   db      " "
 01b2:                          db      0dh,0ah,0ah
 01b5:                          db      " SYSTEM ......S"
 01c4:                          db      0dh,0ah
 01c6:                          db      " ADRESAR .....D"
 01d5:                          db      0dh,0ah
 01d7:                          db      " SOUBOR ......F"
 01e6:                          db      0dh,0ah
 01e8:                          db      " ZAZNAM n ....R"
 01f7:                          db      0dh,0ah,0ah
 01fa:                          db      " novy start ..< ET1 >"
 020f:                          db      0dh,0ah
 0211:                          db      " ukonceni ....E"
 0220:                          db      0ah,0ah
 0222:                          db      "$"
 0223:                  tbl6:   db      0dh,16h
 0225:                          db      " Zadejte povel   : $"
 0239:  11 23 02        lab3:   ld      de,tbl6
 023c:  0e 09                   ld      c,9
 023e:  cd 05 00                call    5
 0241:  11 20 19                ld      de,tbl4
 0244:  0e 0a                   ld      c,0ah
 0246:  cd 05 00                call    5
 0249:  3a 21 19                ld      a,(byt2)
 024c:  b7                      or      a
 024d:  ca 04 01                jp      z,lab4
 0250:  3d                      dec     a
 0251:  20 e6                   jr      nz,lab3
 0253:  af                      xor     a
 0254:  32 73 1b                ld      (byt6),a
 0257:  32 72 1b                ld      (byt7),a
 025a:  3a 22 19                ld      a,(byt3)
 025d:  cb af                   res     5,a
 025f:  fe 53                   cp      "S"
 0261:  20 12                   jr      nz,lab5
 0263:  3e 01                   ld      a,1
 0265:  32 0c 19                ld      (byt17),a
 0268:  cd dc 02                call    lab252
 026b:  af              lab114: xor     a
 026c:  21 80 81                ld      hl,8180h
 026f:  cd 62 16                call    lab13
 0272:  c3 8e 01                jp      lab115
; ......................................................
 0275:  fe 44           lab5:   cp      "D"
 0277:  20 0a                   jr      nz,lab6
 0279:  3e 02                   ld      a,2
 027b:  32 0c 19                ld      (byt17),a
 027e:  cd ad 02                call    lab185
 0281:  18 e8                   jr      lab114
; ......................................................
 0283:  fe 46           lab6:   cp      "F"
 0285:  20 0a                   jr      nz,lab7
 0287:  3e 03                   ld      a,3
 0289:  32 0c 19                ld      (byt17),a
 028c:  cd f2 09                call    lab116
 028f:  18 da                   jr      lab114
; ......................................................
 0291:  fe 52           lab7:   cp      "R"
 0293:  20 05                   jr      nz,lab8
 0295:  cd 70 0e                call    lab9
 0298:  18 d1                   jr      lab114
; ......................................................
 029a:  fe 45           lab8:   cp      "E"
 029c:  20 9b                   jr      nz,lab3
 029e:  3a 39 19                ld      a,(byt4)
 02a1:  3d                      dec     a
 02a2:  5f                      ld      e,a
 02a3:  0e 0d                   ld      c,0dh
 02a5:  cd 05 00                call    5
 02a8:  ed 7b ba 1b             ld      sp,(tbl1)
 02ac:  c9                      ret     
; ......................................................
 02ad:  3a 39 19        lab185: ld      a,(byt4)
 02b0:  f6 40                   or      "@"
 02b2:  32 c3 02                ld      (byt32),a
 02b5:  11 bf 02                ld      de,tbl54
 02b8:  0e 09                   ld      c,9
 02ba:  cd 05 00                call    5
 02bd:  18 13                   jr      lab186
; ......................................................
 02bf:                  tbl54:  db      0ch
 02c0:                          db      "FD:"
 02c3:                  byt32:  db      "     ADRESAR  $"
 02d2:  cd 3b 09        lab186: call    lab187
 02d5:  b7                      or      a
 02d6:  ca 5e 03                jp      z,lab193
 02d9:  c3 17 03                jp      lab250
; ......................................................
 02dc:  3a 39 19        lab252: ld      a,(byt4)
 02df:  f6 40                   or      "@"
 02e1:  32 f2 02                ld      (byt38),a
 02e4:  11 ee 02                ld      de,tbl66
 02e7:  0e 09                   ld      c,9
 02e9:  cd 05 00                call    5
 02ec:  18 1b                   jr      lab253
; ......................................................
 02ee:                  tbl66:  db      0ch
 02ef:                          db      "FD:"
 02f2:                  byt38:  db      "     SYSTEM (SYL,SCPX)$"
 0309:  3a 39 19        lab253: ld      a,(byt4)
 030c:  4f                      ld      c,a
 030d:  0d                      dec     c
 030e:  21 be 1b                ld      hl,tbl56
 0311:  cd bf 16                call    lab254
 0314:  b0                      or      b
 0315:  28 42                   jr      z,lab256
 0317:  11 2a 03        lab250: ld      de,tbl65
 031a:  0e 09                   ld      c,9
 031c:  cd 05 00                call    5
 031f:  1e ff           lab251: ld      e,0ffh
 0321:  0e 06                   ld      c,6
 0323:  cd 05 00                call    5
 0326:  b7                      or      a
 0327:  28 f6                   jr      z,lab251
 0329:  c9                      ret     
; ......................................................
 032a:                  tbl65:  db      0dh,0ah
 032c:                          db      "Chyba cteni !  (navrat libovolnou"
 034d:                          db      " klavesou) $"
 0359:  3e 59           lab256: ld      a,"Y"
 035b:  32 61 1b                ld      (byt33),a
 035e:  21 be 1b        lab193: ld      hl,tbl56
 0361:  22 bc 1b                ld      (wrd17),hl
 0364:  21 00 00                ld      hl,0
 0367:  22 67 1b                ld      (wrd11),hl
 036a:  3e 30                   ld      a,"0"
 036c:  32 62 1b                ld      (tbl40),a
 036f:  32 63 1b                ld      (byt28),a
 0372:  32 64 1b                ld      (byt29),a
 0375:  32 65 1b                ld      (byt30),a
 0378:  2a bc 1b        lab205: ld      hl,(wrd17)
 037b:  11 5f 19                ld      de,tbl11
 037e:  01 80 00                ld      bc,80h
 0381:  ed b0                   ldir    
 0383:  06 02                   ld      b,2
 0385:  dd 21 17 19             ld      ix,1917h
 0389:  cd 61 13                call    lab137
 038c:  af              lab204: xor     a
 038d:  21 a8 97                ld      hl,97a8h
 0390:  cd 62 16                call    lab13
 0393:  11 a8 03                ld      de,tbl24
 0396:  0e 09                   ld      c,9
 0398:  cd 05 00                call    5
 039b:  1e ff           lab194: ld      e,0ffh
 039d:  0e 06                   ld      c,6
 039f:  cd 05 00                call    5
 03a2:  b7                      or      a
 03a3:  28 f6                   jr      z,lab194
 03a5:  f5                      push    af
 03a6:  18 25                   jr      lab195
; ......................................................
 03a8:                  tbl24:  db      16h
 03a9:                          db      " Zadejte povel : $"
 03bb:                  tbl64:  db      "Posledni zaznam !$"
 03cd:  af              lab195: xor     a
 03ce:  21 9d 81                ld      hl,819dh
 03d1:  cd 62 16                call    lab13
 03d4:  1e 16                   ld      e,16h
 03d6:  0e 02                   ld      c,2
 03d8:  cd 05 00                call    5
 03db:  f1                      pop     af
 03dc:  fe 0d                   cp      0dh
 03de:  20 37                   jr      nz,lab196
 03e0:  2a 67 1b                ld      hl,(wrd11)
 03e3:  23                      inc     hl
 03e4:  3a 61 1b                ld      a,(byt33)
 03e7:  bd                      cp      l
 03e8:  30 17           tbl49:  jr      nc,lab248
 03ea:  2d                      dec     l
 03eb:  bd                      cp      l
 03ec:  c2 1b 05                jp      nz,lab249
 03ef:  21 a0 81                ld      hl,81a0h
 03f2:  af                      xor     a
 03f3:  cd 62 16                call    lab13
 03f6:  11 bb 03                ld      de,tbl64
 03f9:  0e 09                   ld      c,9
 03fb:  cd 05 00                call    5
 03fe:  c3 8c 03                jp      lab204
; ......................................................
 0401:  22 67 1b        lab248: ld      (wrd11),hl
 0404:  11 62 1b                ld      de,tbl40
 0407:  cd 25 13                call    lab161
 040a:  2a bc 1b                ld      hl,(wrd17)
 040d:  01 80 00                ld      bc,80h
 0410:  09                      add     hl,bc
 0411:  22 bc 1b                ld      (wrd17),hl
 0414:  c3 78 03                jp      lab205
; ......................................................
 0417:  fe 03           lab196: cp      3
 0419:  20 7c                   jr      nz,lab197
 041b:  0e 0b           lab247: ld      c,0bh
 041d:  cd 05 00                call    5
 0420:  b7                      or      a
 0421:  28 07                   jr      z,lab213
 0423:  0e 01                   ld      c,1
 0425:  cd 05 00                call    5
 0428:  18 f1                   jr      lab247
; ......................................................
 042a:  3a 73 1b        lab213: ld      a,(byt6)
 042d:  b7                      or      a
 042e:  c8                      ret     z
 042f:  3a 0c 19                ld      a,(byt17)
 0432:  3d                      dec     a
 0433:  28 07                   jr      z,lab214
 0435:  cd 31 09                call    lab244
 0438:  b7                      or      a
 0439:  c8                      ret     z
 043a:  18 0d                   jr      lab246
; ......................................................
 043c:  3a 39 19        lab214: ld      a,(byt4)
 043f:  4f                      ld      c,a
 0440:  0d                      dec     c
 0441:  21 be 1b                ld      hl,tbl56
 0444:  cd c2 16                call    lab215
 0447:  b0                      or      b
 0448:  c8                      ret     z
 0449:  af              lab246: xor     a
 044a:  21 a0 81                ld      hl,81a0h
 044d:  cd 62 16                call    lab13
 0450:  11 63 04                ld      de,tbl63
 0453:  0e 09                   ld      c,9
 0455:  cd 05 00                call    5
 0458:  1e ff           lab243: ld      e,0ffh
 045a:  0e 06                   ld      c,6
 045c:  cd 05 00                call    5
 045f:  b7                      or      a
 0460:  28 f6                   jr      z,lab243
 0462:  c9                      ret     
; ......................................................
 0463:                  tbl63:  db      "  Chyba  vypisu  !  (navrat"
 047e:                          db      " libovolnou klavesou)   $"
 0497:  fe 13           lab197: cp      13h
 0499:  20 1d                   jr      nz,lab198
 049b:  3a 72 1b                ld      a,(byt7)
 049e:  b7                      or      a
 049f:  ca 8c 03                jp      z,lab204
 04a2:  32 73 1b                ld      (byt6),a
 04a5:  af                      xor     a
 04a6:  32 72 1b                ld      (byt7),a
 04a9:  01 80 00                ld      bc,80h
 04ac:  ed 5b bc 1b             ld      de,(wrd17)
 04b0:  21 5f 19                ld      hl,tbl11
 04b3:  ed b0                   ldir    
 04b5:  c3 8c 03                jp      lab204
; ......................................................
 04b8:  fe 0e           lab198: cp      0eh
 04ba:  c2 6e 05                jp      nz,lab199
 04bd:  3e 30           lab206: ld      a,"0"
 04bf:  32 64 1b                ld      (byt29),a
 04c2:  af                      xor     a
 04c3:  21 98 81                ld      hl,8198h
 04c6:  cd 62 16                call    lab13
 04c9:  1e 16                   ld      e,16h
 04cb:  0e 02                   ld      c,2
 04cd:  cd 05 00                call    5
 04d0:  11 20 19                ld      de,tbl4
 04d3:  0e 0a                   ld      c,0ah
 04d5:  cd 05 00                call    5
 04d8:  3a 21 19                ld      a,(byt2)
 04db:  b7                      or      a
 04dc:  28 df                   jr      z,lab206
 04de:  06 02                   ld      b,2
 04e0:  3d                      dec     a
 04e1:  21 64 1b                ld      hl,byt29
 04e4:  20 02                   jr      nz,lab207
 04e6:  23                      inc     hl
 04e7:  05                      dec     b
 04e8:  3a 22 19        lab207: ld      a,(byt3)
 04eb:  fe 30           lab208: cp      "0"
 04ed:  38 ce                   jr      c,lab206
 04ef:  fe 3a                   cp      ":"
 04f1:  30 ca                   jr      nc,lab206
 04f3:  77                      ld      (hl),a
 04f4:  23                      inc     hl
 04f5:  3a 23 19                ld      a,(byt13)
 04f8:  10 f1                   djnz    lab208
 04fa:  3a 64 1b                ld      a,(byt29)
 04fd:  e6 0f                   and     0fh
 04ff:  28 08                   jr      z,lab209
 0501:  47                      ld      b,a
 0502:  0e 0a                   ld      c,0ah
 0504:  af                      xor     a
 0505:  81              lab212: add     a,c
 0506:  10 fd                   djnz    lab212
 0508:  47                      ld      b,a
 0509:  3a 65 1b        lab209: ld      a,(byt30)
 050c:  e6 0f                   and     0fh
 050e:  80                      add     a,b
 050f:  6f                      ld      l,a
 0510:  26 00                   ld      h,0
 0512:  22 67 1b                ld      (wrd11),hl
 0515:  3a 61 1b                ld      a,(byt33)
 0518:  bd                      cp      l
 0519:  30 42                   jr      nc,lab210
 051b:  21 9d 81        lab249: ld      hl,819dh
 051e:  af                      xor     a
 051f:  cd 62 16                call    lab13
 0522:  0e 09                   ld      c,9
 0524:  11 2d 05                ld      de,tbl57
 0527:  cd 05 00                call    5
 052a:  c3 8c 03                jp      lab204
; ......................................................
 052d:                  tbl57:  db      "Zaznam neexistuje, pokracovani"
 054b:                          db      " pomoci  CTRL-N !$"
 055d:  2c              lab210: inc     l
 055e:  45                      ld      b,l
 055f:  21 3e 1b                ld      hl,tbl55
 0562:  11 80 00        lab211: ld      de,80h
 0565:  19                      add     hl,de
 0566:  10 fa                   djnz    lab211
 0568:  22 bc 1b                ld      (wrd17),hl
 056b:  c3 78 03                jp      lab205
; ......................................................
 056e:  fe 02           lab199: cp      2
 0570:  c2 9b 05                jp      nz,lab200
 0573:  2a 67 1b                ld      hl,(wrd11)
 0576:  7c                      ld      a,h
 0577:  b5                      or      l
 0578:  ca 8c 03                jp      z,lab204
 057b:  3a 61 1b                ld      a,(byt33)
 057e:  bd                      cp      l
 057f:  da 8c 03                jp      c,lab204
 0582:  2b                      dec     hl
 0583:  22 67 1b                ld      (wrd11),hl
 0586:  11 62 1b                ld      de,tbl40
 0589:  cd 25 13                call    lab161
 058c:  2a bc 1b                ld      hl,(wrd17)
 058f:  01 80 00                ld      bc,80h
 0592:  af                      xor     a
 0593:  ed 42                   sbc     hl,bc
 0595:  22 bc 1b                ld      (wrd17),hl
 0598:  c3 78 03                jp      lab205
; ......................................................
 059b:  fe 08           lab200: cp      8
 059d:  20 0d                   jr      nz,lab201
 059f:  cd a0 06                call    lab51
 05a2:  dd 21 17 19     lab203: ld      ix,1917h
 05a6:  cd 4d 15                call    lab25
 05a9:  c3 8c 03                jp      lab204
; ......................................................
 05ac:  fe 09           lab201: cp      9
 05ae:  ca bc 05                jp      z,lab202
 05b1:  fe 10                   cp      10h
 05b3:  c2 8c 03                jp      nz,lab204
 05b6:  cd 8b 16                call    lab110
 05b9:  c3 8c 03                jp      lab204
; ......................................................
 05bc:  cd 15 08        lab202: call    lab85
 05bf:  18 e1                   jr      lab203
; ......................................................
 05c1:  21 80 93        lab52:  ld      hl,9380h
 05c4:  af                      xor     a
 05c5:  cd 62 16                call    lab13
 05c8:  11 e6 05                ld      de,tbl25
 05cb:  0e 09                   ld      c,9
 05cd:  cd 05 00                call    5
 05d0:  21 ae 96                ld      hl,96aeh
 05d3:  af                      xor     a
 05d4:  cd 62 16                call    lab13
 05d7:  11 83 06                ld      de,tbl26
 05da:  0e 09                   ld      c,9
 05dc:  cd 05 00                call    5
 05df:  21 5f 19                ld      hl,tbl11
 05e2:  22 5f 1b                ld      (wrd7),hl
 05e5:  c9                      ret     
; ......................................................
 05e6:                  tbl25:  db      14h
 05e7:                          db      " --->   ... Kurzor 1 pozici"
 0602:                          db      " vpravo      "
 060f:                          db      0dh,0ah
 0611:                          db      " <---   ... Kurzor 1 pozici"
 062c:                          db      " vlevo      "
 0638:                          db      0dh,0ah
 063a:                          db      "  \/    ... Kurzor 1 radek"
 0654:                          db      " dolu     "
 065e:                          db      0dh,0ah
 0660:                          db      "  /\    ... Kurzor 1 radek"
 067a:                          db      " nahoru $"
 0683:                  tbl26:  db      "< ET1 >  ... ukonceni oprav"
 069e:                          db      " $"
 06a0:  cd c1 05        lab51:  call    lab52
 06a3:  af                      xor     a
 06a4:  21 ae 93                ld      hl,93aeh
 06a7:  cd 62 16                call    lab13
 06aa:  11 2b 15                ld      de,tbl23
 06ad:  0e 09                   ld      c,9
 06af:  cd 05 00                call    5
 06b2:  3e 01                   ld      a,1
 06b4:  32 74 1b                ld      (byt16),a
 06b7:  21 80 83                ld      hl,8380h
 06ba:  22 13 19                ld      (wrd8),hl
 06bd:  2a 13 19        lab59:  ld      hl,(wrd8)
 06c0:  af                      xor     a
 06c1:  cd 62 16                call    lab13
 06c4:  1e ff           lab53:  ld      e,0ffh
 06c6:  0e 06                   ld      c,6
 06c8:  cd 05 00                call    5
 06cb:  b7                      or      a
 06cc:  28 f6                   jr      z,lab53
 06ce:  fe 0d                   cp      0dh
 06d0:  c8                      ret     z
 06d1:  2a 13 19                ld      hl,(wrd8)
 06d4:  fe 08                   cp      8
 06d6:  28 04                   jr      z,lab54
 06d8:  fe 13                   cp      13h
 06da:  20 4a                   jr      nz,lab62
 06dc:  ed 4b 0f 19     lab54:  ld      bc,(wrd4)
 06e0:  ed 42                   sbc     hl,bc
 06e2:  20 16                   jr      nz,lab55
 06e4:  21 ae 91                ld      hl,91aeh
 06e7:  22 13 19                ld      (wrd8),hl
 06ea:  af                      xor     a
 06eb:  32 74 1b                ld      (byt16),a
 06ee:  2a 5f 1b                ld      hl,(wrd7)
 06f1:  01 7f 00                ld      bc,7fh
 06f4:  09                      add     hl,bc
 06f5:  22 5f 1b                ld      (wrd7),hl
 06f8:  18 c3                   jr      lab59
; ......................................................
 06fa:  2a 13 19        lab55:  ld      hl,(wrd8)
 06fd:  3e 80                   ld      a,80h
 06ff:  bd                      cp      l
 0700:  20 14                   jr      nz,lab56
 0702:  25                      dec     h
 0703:  25                      dec     h
 0704:  2e ae                   ld      l,0aeh
 0706:  22 13 19        lab58:  ld      (wrd8),hl
 0709:  2a 5f 1b                ld      hl,(wrd7)
 070c:  2b                      dec     hl
 070d:  22 5f 1b                ld      (wrd7),hl
 0710:  af              lab68:  xor     a
 0711:  32 74 1b        lab61:  ld      (byt16),a
 0714:  18 a7                   jr      lab59
; ......................................................
 0716:  3a 74 1b        lab56:  ld      a,(byt16)
 0719:  b7                      or      a
 071a:  20 06                   jr      nz,lab57
 071c:  2d                      dec     l
 071d:  22 13 19                ld      (wrd8),hl
 0720:  18 1f                   jr      lab60
; ......................................................
 0722:  2d              lab57:  dec     l
 0723:  2d                      dec     l
 0724:  18 e0                   jr      lab58
; ......................................................
 0726:  fe 15           lab62:  cp      15h
 0728:  28 04                   jr      z,lab63
 072a:  fe 04                   cp      4
 072c:  20 3f                   jr      nz,lab69
 072e:  01 ae 91        lab63:  ld      bc,91aeh
 0731:  ed 42                   sbc     hl,bc
 0733:  20 10                   jr      nz,lab64
 0735:  2a 0f 19                ld      hl,(wrd4)
 0738:  22 13 19                ld      (wrd8),hl
 073b:  21 5f 19                ld      hl,tbl11
 073e:  22 5f 1b                ld      (wrd7),hl
 0741:  3e 01           lab60:  ld      a,1
 0743:  18 cc                   jr      lab61
; ......................................................
 0745:  2a 13 19        lab64:  ld      hl,(wrd8)
 0748:  3e ae                   ld      a,0aeh
 074a:  bd                      cp      l
 074b:  20 10                   jr      nz,lab65
 074d:  24                      inc     h
 074e:  24                      inc     h
 074f:  2e 80                   ld      l,80h
 0751:  22 13 19        lab67:  ld      (wrd8),hl
 0754:  2a 5f 1b                ld      hl,(wrd7)
 0757:  23                      inc     hl
 0758:  22 5f 1b                ld      (wrd7),hl
 075b:  18 e4                   jr      lab60
; ......................................................
 075d:  3a 74 1b        lab65:  ld      a,(byt16)
 0760:  b7                      or      a
 0761:  28 06                   jr      z,lab66
 0763:  2c                      inc     l
 0764:  22 13 19                ld      (wrd8),hl
 0767:  18 a7                   jr      lab68
; ......................................................
 0769:  2c              lab66:  inc     l
 076a:  2c                      inc     l
 076b:  18 e4                   jr      lab67
; ......................................................
 076d:  fe 0a           lab69:  cp      0ah
 076f:  28 04                   jr      z,lab70
 0771:  fe 08                   cp      8
 0773:  20 20                   jr      nz,lab73
 0775:  3e 91           lab70:  ld      a,91h
 0777:  bc                      cp      h
 0778:  20 14                   jr      nz,lab71
 077a:  26 83                   ld      h,83h
 077c:  01 70 00                ld      bc,70h
 077f:  22 13 19        lab76:  ld      (wrd8),hl
 0782:  2a 5f 1b                ld      hl,(wrd7)
 0785:  af                      xor     a
 0786:  ed 42                   sbc     hl,bc
 0788:  22 5f 1b                ld      (wrd7),hl
 078b:  c3 bd 06                jp      lab59
; ......................................................
 078e:  24              lab71:  inc     h
 078f:  24                      inc     h
 0790:  01 10 00                ld      bc,10h
 0793:  18 12                   jr      lab72
; ......................................................
 0795:  fe 1a           lab73:  cp      1ah
 0797:  28 04                   jr      z,lab74
 0799:  fe 05                   cp      5
 079b:  20 1e                   jr      nz,lab77
 079d:  3e 83           lab74:  ld      a,83h
 079f:  bc                      cp      h
 07a0:  20 12                   jr      nz,lab75
 07a2:  26 91                   ld      h,91h
 07a4:  01 70 00                ld      bc,70h
 07a7:  22 13 19        lab72:  ld      (wrd8),hl
 07aa:  2a 5f 1b                ld      hl,(wrd7)
 07ad:  09                      add     hl,bc
 07ae:  22 5f 1b                ld      (wrd7),hl
 07b1:  c3 bd 06                jp      lab59
; ......................................................
 07b4:  25              lab75:  dec     h
 07b5:  25                      dec     h
 07b6:  01 10 00                ld      bc,10h
 07b9:  18 c4                   jr      lab76
; ......................................................
 07bb:  fe 09           lab77:  cp      9
 07bd:  20 06                   jr      nz,lab78
 07bf:  cd 4d 15                call    lab25
 07c2:  c3 15 08                jp      lab85
; ......................................................
 07c5:  fe 30           lab78:  cp      "0"
 07c7:  da c4 06                jp      c,lab53
 07ca:  fe 3a                   cp      ":"
 07cc:  30 30                   jr      nc,lab79
 07ce:  f5                      push    af
 07cf:  2a 13 19        lab81:  ld      hl,(wrd8)
 07d2:  cd 62 16                call    lab13
 07d5:  f1                      pop     af
 07d6:  e6 0f                   and     0fh
 07d8:  4f                      ld      c,a
 07d9:  3a 74 1b                ld      a,(byt16)
 07dc:  b7                      or      a
 07dd:  2a 5f 1b                ld      hl,(wrd7)
 07e0:  7e                      ld      a,(hl)
 07e1:  20 0f                   jr      nz,lab82
 07e3:  e6 f0                   and     0f0h
 07e5:  b1              lab83:  or      c
 07e6:  77                      ld      (hl),a
 07e7:  3e 01                   ld      a,1
 07e9:  32 72 1b                ld      (byt7),a
 07ec:  2a 13 19                ld      hl,(wrd8)
 07ef:  c3 2e 07                jp      lab63
; ......................................................
 07f2:  e6 0f           lab82:  and     0fh
 07f4:  cb 01                   rlc     c
 07f6:  cb 01                   rlc     c
 07f8:  cb 01                   rlc     c
 07fa:  cb 01                   rlc     c
 07fc:  18 e7                   jr      lab83
; ......................................................
 07fe:  cb af           lab79:  res     5,a
 0800:  f5                      push    af
 0801:  06 06                   ld      b,6
 0803:  16 0a                   ld      d,0ah
 0805:  3d              lab84:  dec     a
 0806:  fe 40                   cp      "@"
 0808:  28 07                   jr      z,lab80
 080a:  14                      inc     d
 080b:  10 f8                   djnz    lab84
 080d:  f1                      pop     af
 080e:  c3 c4 06                jp      lab53
; ......................................................
 0811:  f1              lab80:  pop     af
 0812:  d5                      push    de
 0813:  18 ba                   jr      lab81
; ......................................................
 0815:  cd c1 05        lab85:  call    lab52
 0818:  c3 27 08                jp      lab86
; ......................................................
 081b:  af                      xor     a
 081c:  cd 62 16                call    lab13
 081f:  11 09 15                ld      de,tbl22
 0822:  0e 09                   ld      c,9
 0824:  cd 05 00                call    5
 0827:  af              lab86:  xor     a
 0828:  21 b4 83                ld      hl,83b4h
 082b:  22 15 19                ld      (wrd6),hl
 082e:  af              lab92:  xor     a
 082f:  2a 15 19                ld      hl,(wrd6)
 0832:  cd 62 16                call    lab13
 0835:  1e ff           lab87:  ld      e,0ffh
 0837:  0e 06                   ld      c,6
 0839:  cd 05 00                call    5
 083c:  b7                      or      a
 083d:  28 f6                   jr      z,lab87
 083f:  fe 0d                   cp      0dh
 0841:  c8                      ret     z
 0842:  2a 15 19                ld      hl,(wrd6)
 0845:  fe 08                   cp      8
 0847:  28 04                   jr      z,lab88
 0849:  fe 13                   cp      13h
 084b:  20 35                   jr      nz,lab93
 084d:  ed 4b 11 19     lab88:  ld      bc,(wrd5)
 0851:  ed 42                   sbc     hl,bc
 0853:  20 12                   jr      nz,lab89
 0855:  21 c3 91                ld      hl,91c3h
 0858:  22 15 19                ld      (wrd6),hl
 085b:  2a 5f 1b                ld      hl,(wrd7)
 085e:  01 7f 00                ld      bc,7fh
 0861:  09                      add     hl,bc
 0862:  22 5f 1b                ld      (wrd7),hl
 0865:  18 c7                   jr      lab92
; ......................................................
 0867:  2a 15 19        lab89:  ld      hl,(wrd6)
 086a:  3e b4                   ld      a,0b4h
 086c:  bd                      cp      l
 086d:  20 10                   jr      nz,lab90
 086f:  25                      dec     h
 0870:  25                      dec     h
 0871:  2e c3                   ld      l,0c3h
 0873:  22 15 19        lab91:  ld      (wrd6),hl
 0876:  2a 5f 1b                ld      hl,(wrd7)
 0879:  2b                      dec     hl
 087a:  22 5f 1b                ld      (wrd7),hl
 087d:  18 af                   jr      lab92
; ......................................................
 087f:  2d              lab90:  dec     l
 0880:  18 f1                   jr      lab91
; ......................................................
 0882:  fe 15           lab93:  cp      15h
 0884:  28 04                   jr      z,lab94
 0886:  fe 04                   cp      4
 0888:  20 32                   jr      nz,lab98
 088a:  01 c3 91        lab94:  ld      bc,91c3h
 088d:  af                      xor     a
 088e:  ed 42                   sbc     hl,bc
 0890:  20 0e                   jr      nz,lab95
 0892:  2a 11 19                ld      hl,(wrd5)
 0895:  22 15 19                ld      (wrd6),hl
 0898:  21 5f 19                ld      hl,tbl11
 089b:  22 5f 1b                ld      (wrd7),hl
 089e:  18 8e                   jr      lab92
; ......................................................
 08a0:  2a 15 19        lab95:  ld      hl,(wrd6)
 08a3:  3e c3                   ld      a,0c3h
 08a5:  bd                      cp      l
 08a6:  20 11                   jr      nz,lab96
 08a8:  24                      inc     h
 08a9:  24                      inc     h
 08aa:  2e b4                   ld      l,0b4h
 08ac:  22 15 19        lab97:  ld      (wrd6),hl
 08af:  2a 5f 1b                ld      hl,(wrd7)
 08b2:  23                      inc     hl
 08b3:  22 5f 1b                ld      (wrd7),hl
 08b6:  c3 2e 08                jp      lab92
; ......................................................
 08b9:  2c              lab96:  inc     l
 08ba:  18 f0                   jr      lab97
; ......................................................
 08bc:  fe 0a           lab98:  cp      0ah
 08be:  28 04                   jr      z,lab99
 08c0:  fe 18                   cp      18h
 08c2:  20 20                   jr      nz,lab102
 08c4:  3e 91           lab99:  ld      a,91h
 08c6:  bc                      cp      h
 08c7:  20 14                   jr      nz,lab100
 08c9:  26 83                   ld      h,83h
 08cb:  01 70 00                ld      bc,70h
 08ce:  22 15 19        lab105: ld      (wrd6),hl
 08d1:  2a 5f 1b                ld      hl,(wrd7)
 08d4:  af                      xor     a
 08d5:  ed 42                   sbc     hl,bc
 08d7:  22 5f 1b                ld      (wrd7),hl
 08da:  c3 2e 08                jp      lab92
; ......................................................
 08dd:  24              lab100: inc     h
 08de:  24                      inc     h
 08df:  01 10 00                ld      bc,10h
 08e2:  18 12                   jr      lab101
; ......................................................
 08e4:  fe 1a           lab102: cp      1ah
 08e6:  28 04                   jr      z,lab103
 08e8:  fe 05                   cp      5
 08ea:  20 1e                   jr      nz,lab106
 08ec:  3e 83           lab103: ld      a,83h
 08ee:  bc                      cp      h
 08ef:  20 12                   jr      nz,lab104
 08f1:  26 91                   ld      h,91h
 08f3:  01 70 00                ld      bc,70h
 08f6:  22 15 19        lab101: ld      (wrd6),hl
 08f9:  2a 5f 1b                ld      hl,(wrd7)
 08fc:  09                      add     hl,bc
 08fd:  22 5f 1b                ld      (wrd7),hl
 0900:  c3 2e 08                jp      lab92
; ......................................................
 0903:  25              lab104: dec     h
 0904:  25                      dec     h
 0905:  01 10 00                ld      bc,10h
 0908:  18 c4                   jr      lab105
; ......................................................
 090a:  fe 08           lab106: cp      8
 090c:  20 06                   jr      nz,lab107
 090e:  cd 4d 15                call    lab25
 0911:  c3 a0 06                jp      lab51
; ......................................................
 0914:  fe 20           lab107: cp      " "
 0916:  da 35 08                jp      c,lab87
 0919:  fe 7f                   cp      7fh
 091b:  d2 35 08                jp      nc,lab87
 091e:  32 72 1b                ld      (byt7),a
 0921:  2a 5f 1b                ld      hl,(wrd7)
 0924:  77                      ld      (hl),a
 0925:  2a 15 19                ld      hl,(wrd6)
 0928:  cd 62 16                call    lab13
 092b:  2a 15 19                ld      hl,(wrd6)
 092e:  c3 8a 08                jp      lab94
; ......................................................
 0931:  dd 21 75 1b     lab244: ld      ix,1b75h
 0935:  dd 36 06 01             ld      (ix+6),1
 0939:  18 08                   jr      lab245
; ......................................................
 093b:  dd 21 75 1b     lab187: ld      ix,1b75h
 093f:  dd 36 06 00             ld      (ix+6),0
 0943:  3a 39 19        lab245: ld      a,(byt4)
 0946:  3d                      dec     a
 0947:  4f                      ld      c,a
 0948:  cd 1b de                call    0de1bh
 094b:  dd 21 75 1b             ld      ix,1b75h
 094f:  7e                      ld      a,(hl)
 0950:  dd 77 02                ld      (ix+2),a
 0953:  23                      inc     hl
 0954:  7e                      ld      a,(hl)
 0955:  dd 77 03                ld      (ix+3),a
 0958:  01 09 00                ld      bc,9
 095b:  09                      add     hl,bc
 095c:  7e                      ld      a,(hl)
 095d:  23                      inc     hl
 095e:  66                      ld      h,(hl)
 095f:  6f                      ld      l,a
 0960:  e5                      push    hl
 0961:  0e 07                   ld      c,7
 0963:  09                      add     hl,bc
 0964:  7e                      ld      a,(hl)
 0965:  23                      inc     hl
 0966:  66                      ld      h,(hl)
 0967:  6f                      ld      l,a
 0968:  23                      inc     hl
 0969:  7d                      ld      a,l
 096a:  0f                      rrca    
 096b:  0f                      rrca    
 096c:  dd 77 00                ld      (ix+0),a
 096f:  7c                      ld      a,h
 0970:  b7                      or      a
 0971:  28 04                   jr      z,lab188
 0973:  dd cb 00 f6             set     6,(ix+0)
 0977:  dd 7e 00        lab188: ld      a,(ix+0)
 097a:  3d                      dec     a
 097b:  32 61 1b                ld      (byt33),a
 097e:  dd 36 01 ff             ld      (ix+1),0ffh
 0982:  21 3e 1b                ld      hl,tbl55
 0985:  dd 75 04                ld      (ix+4),l
 0988:  dd 74 05                ld      (ix+5),h
 098b:  e1                      pop     hl
 098c:  0e 0d                   ld      c,0dh
 098e:  09                      add     hl,bc
 098f:  4e                      ld      c,(hl)
 0990:  23                      inc     hl
 0991:  46                      ld      b,(hl)
 0992:  dd e5                   push    ix
 0994:  cd 1e de                call    0de1eh
 0997:  dd e1                   pop     ix
 0999:  c3 be 09                jp      lab189
; ......................................................
 099c:  dd e1           lab190: pop     ix
 099e:  dd e5                   push    ix
 09a0:  dd 7e 06                ld      a,(ix+6)
 09a3:  b7                      or      a
 09a4:  28 09                   jr      z,lab191
 09a6:  cd 2a de                call    0de2ah
 09a9:  b7                      or      a
 09aa:  dd e1                   pop     ix
 09ac:  28 08                   jr      z,lab192
 09ae:  c9                      ret     
; ......................................................
 09af:  cd 27 de        lab191: call    0de27h
 09b2:  b7                      or      a
 09b3:  dd e1                   pop     ix
 09b5:  c0                      ret     nz
 09b6:  dd 7e 00        lab192: ld      a,(ix+0)
 09b9:  3d                      dec     a
 09ba:  dd 77 00                ld      (ix+0),a
 09bd:  c8                      ret     z
 09be:  dd 4e 01        lab189: ld      c,(ix+1)
 09c1:  0c                      inc     c
 09c2:  dd 71 01                ld      (ix+1),c
 09c5:  06 00                   ld      b,0
 09c7:  dd 5e 02                ld      e,(ix+2)
 09ca:  dd 56 03                ld      d,(ix+3)
 09cd:  dd e5                   push    ix
 09cf:  cd 30 de                call    0de30h
 09d2:  e5                      push    hl
 09d3:  c1                      pop     bc
 09d4:  cd 21 de                call    0de21h
 09d7:  dd e1                   pop     ix
 09d9:  01 80 00                ld      bc,80h
 09dc:  dd 6e 04                ld      l,(ix+4)
 09df:  dd 66 05                ld      h,(ix+5)
 09e2:  09                      add     hl,bc
 09e3:  dd 75 04                ld      (ix+4),l
 09e6:  dd 74 05                ld      (ix+5),h
 09e9:  e5                      push    hl
 09ea:  c1                      pop     bc
 09eb:  dd e5                   push    ix
 09ed:  cd 24 de                call    0de24h
 09f0:  18 aa                   jr      lab190
; ......................................................
 09f2:  3a 39 19        lab116: ld      a,(byt4)
 09f5:  26 03                   ld      h,3
 09f7:  cd 96 11                call    lab117
 09fa:  1e 14                   ld      e,14h
 09fc:  0e 02                   ld      c,2
 09fe:  cd 05 00                call    5
 0a01:  3a 39 19                ld      a,(byt4)
 0a04:  32 3a 19                ld      (byt20),a
 0a07:  f6 40                   or      "@"
 0a09:  32 23 0a                ld      (byt21),a
 0a0c:  11 1e 0a                ld      de,tbl32
 0a0f:  0e 09                   ld      c,9
 0a11:  cd 05 00                call    5
 0a14:  11 5f 0a                ld      de,tbl33
 0a17:  0e 09                   ld      c,9
 0a19:  cd 05 00                call    5
 0a1c:  18 65                   jr      lab125
; ......................................................
 0a1e:                  tbl32:  db      1,16h
 0a20:                          db      "FD:"
 0a23:                  byt21:  db      "   jmeno soub.:$"
 0a33:                  tbl37:  db      0dh,0ah,16h
 0a36:                          db      "   nepripustne jmeno souboru"
 0a52:                          db      " !!!  znovu !"
 0a5f:                  tbl33:  db      0dh,0ah,16h
 0a62:                          db      "( preruseni pomoci  < ET1"
 0a7b:                          db      " > )"
 0a7f:                          db      0dh,0ah,16h
 0a82:                          db      "$"
 0a83:  af              lab125: xor     a
 0a84:  21 92 80                ld      hl,8092h
 0a87:  cd 62 16                call    lab13
 0a8a:  11 2a 19                ld      de,tbl34
 0a8d:  0e 0a                   ld      c,0ah
 0a8f:  cd 05 00                call    5
 0a92:  3a 2b 19                ld      a,(byt22)
 0a95:  b7                      or      a
 0a96:  c8                      ret     z
 0a97:  fe 0d                   cp      0dh
 0a99:  20 13                   jr      nz,lab126
 0a9b:  11 33 0a        lab129: ld      de,tbl37
 0a9e:  0e 09                   ld      c,9
 0aa0:  cd 05 00                call    5
 0aa3:  0e 0b           lab130: ld      c,0bh
 0aa5:  cd 05 00                call    5
 0aa8:  b7                      or      a
 0aa9:  28 f8                   jr      z,lab130
 0aab:  c3 f2 09                jp      lab116
; ......................................................
 0aae:  4f              lab126: ld      c,a
 0aaf:  21 2c 19                ld      hl,tbl35
 0ab2:  11 3b 19                ld      de,tbl36
 0ab5:  3e 20                   ld      a," "
 0ab7:  06 0b                   ld      b,0bh
 0ab9:  12              lab127: ld      (de),a
 0aba:  13                      inc     de
 0abb:  10 fc                   djnz    lab127
 0abd:  11 3b 19                ld      de,tbl36
 0ac0:  06 09                   ld      b,9
 0ac2:  7e              lab184: ld      a,(hl)
 0ac3:  fe 2e                   cp      "."
 0ac5:  20 0c                   jr      nz,lab128
 0ac7:  06 04                   ld      b,4
 0ac9:  11 42 19                ld      de,tbl53
 0acc:  0d              lab131: dec     c
 0acd:  28 14                   jr      z,lab132
 0acf:  13                      inc     de
 0ad0:  23                      inc     hl
 0ad1:  18 ef                   jr      lab184
; ......................................................
 0ad3:  05              lab128: dec     b
 0ad4:  28 c5                   jr      z,lab129
 0ad6:  12                      ld      (de),a
 0ad7:  18 f3                   jr      lab131
; ......................................................
 0ad9:                  tbl38:  db      "*,:;><=?[]"
 0ae3:  11 3b 19        lab132: ld      de,tbl36
 0ae6:  06 0b                   ld      b,0bh
 0ae8:  c5              lab133: push    bc
 0ae9:  1a                      ld      a,(de)
 0aea:  01 0a 00                ld      bc,0ah
 0aed:  21 d9 0a                ld      hl,tbl38
 0af0:  ed b1                   cpir    
 0af2:  c1                      pop     bc
 0af3:  28 a6                   jr      z,lab129
 0af5:  13                      inc     de
 0af6:  10 f0                   djnz    lab133
 0af8:  11 6a 1b                ld      de,tbl39
 0afb:  21 62 1b                ld      hl,tbl40
 0afe:  06 04                   ld      b,4
 0b00:  3e 30                   ld      a,"0"
 0b02:  77              lab134: ld      (hl),a
 0b03:  12                      ld      (de),a
 0b04:  23                      inc     hl
 0b05:  13                      inc     de
 0b06:  10 fa                   djnz    lab134
 0b08:  12                      ld      (de),a
 0b09:  3e 20                   ld      a," "
 0b0b:  32 6c 1b                ld      (byt23),a
 0b0e:  21 00 00                ld      hl,0
 0b11:  22 67 1b                ld      (wrd11),hl
 0b14:  22 46 19                ld      (wrd12),hl
 0b17:  22 48 19                ld      (wrd13),hl
 0b1a:  22 5a 19                ld      (wrd14),hl
 0b1d:  22 5c 19                ld      (wrd15),hl
 0b20:  3a 39 19                ld      a,(byt4)
 0b23:  3d                      dec     a
 0b24:  5f                      ld      e,a
 0b25:  0e 0e                   ld      c,0eh
 0b27:  cd 05 00                call    5
 0b2a:  11 5f 19                ld      de,tbl11
 0b2d:  0e 1a                   ld      c,1ah
 0b2f:  cd 05 00                call    5
 0b32:  11 3a 19                ld      de,byt20
 0b35:  0e 0f                   ld      c,0fh
 0b37:  cd 05 00                call    5
 0b3a:  3c                      inc     a
 0b3b:  c2 0c 0c                jp      nz,lab135
 0b3e:  11 48 0b                ld      de,tbl51
 0b41:  0e 09                   ld      c,9
 0b43:  cd 05 00                call    5
 0b46:  18 51                   jr      lab181
; ......................................................
 0b48:                  tbl51:  db      0dh,0dh,0ah
 0b4b:                          db      "Soubor neni obsazen na diskete"
 0b69:                          db      " !  "
 0b6d:                          db      0dh,0ah
 0b6f:                          db      " Je treba tento soubor otevrit"
 0b8d:                          db      "  (A/N) ?  $"
 0b99:  af              lab181: xor     a
 0b9a:  32 22 19                ld      (byt3),a
 0b9d:  11 20 19                ld      de,tbl4
 0ba0:  0e 0a                   ld      c,0ah
 0ba2:  cd 05 00                call    5
 0ba5:  1e 14                   ld      e,14h
 0ba7:  0e 02                   ld      c,2
 0ba9:  cd 05 00                call    5
 0bac:  3a 22 19                ld      a,(byt3)
 0baf:  cb af                   res     5,a
 0bb1:  fe 41                   cp      "A"
 0bb3:  c2 f2 09                jp      nz,lab116
 0bb6:  af                      xor     a
 0bb7:  32 5e 19                ld      (byt24),a
 0bba:  11 3a 19                ld      de,byt20
 0bbd:  0e 16                   ld      c,16h
 0bbf:  cd 05 00                call    5
 0bc2:  3c                      inc     a
 0bc3:  20 7e                   jr      nz,lab182
 0bc5:  11 d8 0b                ld      de,tbl52
 0bc8:  0e 09                   ld      c,9
 0bca:  cd 05 00                call    5
 0bcd:  0e 0b           lab183: ld      c,0bh
 0bcf:  cd 05 00                call    5
 0bd2:  b7                      or      a
 0bd3:  28 f8                   jr      z,lab183
 0bd5:  c3 f2 09                jp      lab116
; ......................................................
 0bd8:                  tbl52:  db      0dh,0ah
 0bda:                          db      "Adresar je plny !  (navrat"
 0bf4:                          db      " libovolnou klavesou)  $"
 0c0c:  1e 0a           lab135: ld      e,0ah
 0c0e:  0e 02                   ld      c,2
 0c10:  cd 05 00                call    5
 0c13:  1e 14                   ld      e,14h
 0c15:  0e 02                   ld      c,2
 0c17:  cd 05 00                call    5
 0c1a:  af              lab173: xor     a
 0c1b:  32 5e 19                ld      (byt24),a
 0c1e:  11 3a 19                ld      de,byt20
 0c21:  0e 21                   ld      c,"!"
 0c23:  cd 05 00                call    5
 0c26:  b7                      or      a
 0c27:  28 25                   jr      z,lab136
 0c29:  fe 03                   cp      3
 0c2b:  20 0b                   jr      nz,lab178
 0c2d:  11 3a 19                ld      de,byt20
 0c30:  0e 21                   ld      c,"!"
 0c32:  cd 05 00                call    5
 0c35:  b7                      or      a
 0c36:  28 16                   jr      z,lab136
 0c38:  f6 30           lab178: or      "0"
 0c3a:  32 99 0c                ld      (byt31),a
 0c3d:  32 5e 19                ld      (byt24),a
 0c40:  af                      xor     a
 0c41:  18 02                   jr      lab179
; ......................................................
 0c43:  3e e5           lab182: ld      a,0e5h
 0c45:  06 80           lab179: ld      b,80h
 0c47:  21 5f 19                ld      hl,tbl11
 0c4a:  77              lab180: ld      (hl),a
 0c4b:  23                      inc     hl
 0c4c:  10 fc                   djnz    lab180
 0c4e:  06 04           lab136: ld      b,4
 0c50:  dd 21 17 19             ld      ix,1917h
 0c54:  cd 61 13                call    lab137
 0c57:  af                      xor     a
 0c58:  21 9d 81                ld      hl,819dh
 0c5b:  cd 62 16                call    lab13
 0c5e:  11 69 1b                ld      de,tbl42
 0c61:  0e 09                   ld      c,9
 0c63:  cd 05 00                call    5
 0c66:  3a 5e 19                ld      a,(byt24)
 0c69:  b7                      or      a
 0c6a:  ca a3 0c                jp      z,lab139
 0c6d:  af                      xor     a
 0c6e:  21 a6 81                ld      hl,81a6h
 0c71:  cd 62 16                call    lab13
 0c74:  11 7e 0c                ld      de,tbl50
 0c77:  0e 09                   ld      c,9
 0c79:  cd 05 00                call    5
 0c7c:  18 25                   jr      lab139
; ......................................................
 0c7e:                  tbl50:  db      "Zaznam neni v souboru! (EC="
 0c99:                  byt31:  db      " )$"
 0c9c:                  tbl43:  db      8,9,0dh,0eh,13h,3,10h
 0ca3:  af              lab139: xor     a
 0ca4:  21 a8 97                ld      hl,97a8h
 0ca7:  cd 62 16                call    lab13
 0caa:  11 a8 03                ld      de,tbl24
 0cad:  0e 09                   ld      c,9
 0caf:  cd 05 00                call    5
 0cb2:  f5                      push    af
 0cb3:  f1              lab140: pop     af
 0cb4:  1e ff                   ld      e,0ffh
 0cb6:  0e 06                   ld      c,6
 0cb8:  cd 05 00                call    5
 0cbb:  b7                      or      a
 0cbc:  f5                      push    af
 0cbd:  28 f4                   jr      z,lab140
 0cbf:  21 9c 0c                ld      hl,tbl43
 0cc2:  01 07 00                ld      bc,7
 0cc5:  ed b1                   cpir    
 0cc7:  28 0b                   jr      z,lab141
 0cc9:  fe 02                   cp      2
 0ccb:  20 e6                   jr      nz,lab140
 0ccd:    2a 67 1b                ld      hl,(wrd11)
 0cd0:  7c                      ld      a,h
 0cd1:  b5                      or      l
 0cd2:  28 df                   jr      z,lab140
 0cd4:  af              lab141: xor     a
 0cd5:  21 a6 81                ld      hl,81a6h
 0cd8:  cd 62 16                call    lab13
 0cdb:  1e 16                   ld      e,16h
 0cdd:  0e 02                   ld      c,2
 0cdf:  cd 05 00                call    5
 0ce2:  f1                      pop     af
 0ce3:  fe 08                   cp      8
 0ce5:  20 08                   jr      nz,lab142
 0ce7:  cd a0 06                call    lab51
 0cea:  cd 4d 15        lab177: call    lab25
 0ced:  18 b4                   jr      lab139
; ......................................................
 0cef:  fe 09           lab142: cp      9
 0cf1:  20 05                   jr      nz,lab143
 0cf3:  cd 15 08                call    lab85
 0cf6:  18 f2                   jr      lab177
; ......................................................
 0cf8:  fe 0d           lab143: cp      0dh
 0cfa:  20 1c                   jr      nz,lab144
 0cfc:  2a 67 1b                ld      hl,(wrd11)
 0cff:  23                      inc     hl
 0d00:  22 67 1b        lab160: ld      (wrd11),hl
 0d03:  11 62 1b                ld      de,tbl40
 0d06:  cd 25 13                call    lab161
 0d09:  2a 67 1b                ld      hl,(wrd11)
 0d0c:  22 5b 19                ld      (wrd16),hl
 0d0f:  11 6a 1b                ld      de,tbl39
 0d12:  cd f3 12                call    lab169
 0d15:  c3 1a 0c                jp      lab173
; ......................................................
 0d18:  fe 02           lab144: cp      2
 0d1a:  20 06                   jr      nz,lab145
 0d1c:  2a 67 1b                ld      hl,(wrd11)
 0d1f:  2b                      dec     hl
 0d20:  18 de                   jr      lab160
; ......................................................
 0d22:  fe 0e           lab145: cp      0eh
 0d24:  c2 a2 0d                jp      nz,lab146
 0d27:  af              lab153: xor     a
 0d28:  21 98 81                ld      hl,8198h
 0d2b:  cd 62 16                call    lab13
 0d2e:  1e 16                   ld      e,16h
 0d30:  0e 02                   ld      c,2
 0d32:  cd 05 00                call    5
 0d35:  11 24 19                ld      de,tbl47
 0d38:  0e 0a                   ld      c,0ah
 0d3a:  cd 05 00                call    5
 0d3d:  3a 25 19                ld      a,(byt27)
 0d40:  b7                      or      a
 0d41:  ca 27 0d                jp      z,lab153
 0d44:  4f                      ld      c,a
 0d45:  47                      ld      b,a
 0d46:  21 26 19                ld      hl,tbl48
 0d49:  3e 2f           lab154: ld      a,"/"
 0d4b:  be                      cp      (hl)
 0d4c:  30 d9                   jr      nc,lab153
 0d4e:  3e 39                   ld      a,"9"
 0d50:  be                      cp      (hl)
 0d51:  38 d4                   jr      c,lab153
 0d53:  23                      inc     hl
 0d54:  10 f3                   djnz    lab154
 0d56:  11 62 1b                ld      de,tbl40
 0d59:  06 04                   ld      b,4
 0d5b:  3e 30                   ld      a,"0"
 0d5d:  12              lab155: ld      (de),a
 0d5e:  13                      inc     de
 0d5f:  10 fc                   djnz    lab155
 0d61:  1b                      dec     de
 0d62:  2b              lab156: dec     hl
 0d63:  7e                      ld      a,(hl)
 0d64:  12                      ld      (de),a
 0d65:  1b                      dec     de
 0d66:  0d                      dec     c
 0d67:  20 f9                   jr      nz,lab156
 0d69:  21 00 00                ld      hl,0
 0d6c:  3a 62 1b                ld      a,(tbl40)
 0d6f:  e6 0f                   and     0fh
 0d71:  28 07                   jr      z,lab157
 0d73:  11 e8 03                ld      de,tbl49
 0d76:  19              lab176: add     hl,de
 0d77:  3d                      dec     a
 0d78:  20 fc                   jr      nz,lab176
 0d7a:  3a 63 1b        lab157: ld      a,(byt28)
 0d7d:  e6 0f                   and     0fh
 0d7f:  28 07                   jr      z,lab158
 0d81:  11 64 00                ld      de,64h
 0d84:  19              lab175: add     hl,de
 0d85:  3d                      dec     a
 0d86:  20 fc                   jr      nz,lab175
 0d88:  3a 64 1b        lab158: ld      a,(byt29)
 0d8b:  e6 0f                   and     0fh
 0d8d:  28 07                   jr      z,lab159
 0d8f:  11 0a 00                ld      de,0ah
 0d92:  19              lab174: add     hl,de
 0d93:  3d                      dec     a
 0d94:  20 fc                   jr      nz,lab174
 0d96:  3a 65 1b        lab159: ld      a,(byt30)
 0d99:  e6 0f                   and     0fh
 0d9b:  5f                      ld      e,a
 0d9c:  16 00                   ld      d,0
 0d9e:  19                      add     hl,de
 0d9f:  c3 00 0d                jp      lab160
; ......................................................
 0da2:  fe 13           lab146: cp      13h
 0da4:  20 65                   jr      nz,lab147
 0da6:  3a 72 1b                ld      a,(byt7)
 0da9:  b7                      or      a
 0daa:  ca a3 0c                jp      z,lab139
 0dad:  11 3a 19                ld      de,byt20
 0db0:  0e 22                   ld      c,22h
 0db2:  cd 05 00                call    5
 0db5:  b7                      or      a
 0db6:  20 07                   jr      nz,lab151
 0db8:  3c                      inc     a
 0db9:  32 73 1b                ld      (byt6),a
 0dbc:  c3 a3 0c                jp      lab139
; ......................................................
 0dbf:  f6 30           lab151: or      "0"
 0dc1:  32 f7 0d                ld      (byt26),a
 0dc4:  f5                      push    af
 0dc5:  af                      xor     a
 0dc6:  21 a6 81                ld      hl,81a6h
 0dc9:  cd 62 16                call    lab13
 0dcc:  f1                      pop     af
 0dcd:  fe 35                   cp      "5"
 0dcf:  11 fb 0d                ld      de,tbl45
 0dd2:  28 03                   jr      z,lab152
 0dd4:  11 df 0d                ld      de,tbl46
 0dd7:  0e 09           lab152: ld      c,9
 0dd9:  cd 05 00                call    5
 0ddc:  c3 a3 0c                jp      lab139
; ......................................................
 0ddf:                  tbl46:  db      "Chyba pri zapisu    (EC="
 0df7:                  byt26:  db      " )!$"
 0dfb:                  tbl45:  db      "Adresar plny ! $"
 0e0b:  fe 10           lab147: cp      10h
 0e0d:  20 06                   jr      nz,lab148
 0e0f:  cc 8b 16                call    z,lab110
 0e12:  c3 a3 0c                jp      lab139
; ......................................................
 0e15:  0e 0b           lab148: ld      c,0bh
 0e17:  cd 05 00                call    5
 0e1a:  b7                      or      a
 0e1b:  28 07                   jr      z,lab149
 0e1d:  0e 01                   ld      c,1
 0e1f:  cd 05 00                call    5
 0e22:  18 f1                   jr      lab148
; ......................................................
 0e24:  3a 73 1b        lab149: ld      a,(byt6)
 0e27:  b7                      or      a
 0e28:  c8                      ret     z
 0e29:  11 3a 19                ld      de,byt20
 0e2c:  0e 10                   ld      c,10h
 0e2e:  cd 05 00                call    5
 0e31:  3c                      inc     a
 0e32:  c0                      ret     nz
 0e33:  af                      xor     a
 0e34:  21 a6 81                ld      hl,81a6h
 0e37:  cd 62 16                call    lab13
 0e3a:  11 4b 0e                ld      de,tbl44
 0e3d:  0e 09                   ld      c,9
 0e3f:  cd 05 00                call    5
 0e42:  0e 0b           lab150: ld      c,0bh
 0e44:  cd 05 00                call    5
 0e47:  b7                      or      a
 0e48:  28 f8                   jr      z,lab150
 0e4a:  c9                      ret     
; ......................................................
 0e4b:                  tbl44:  db      "Chyba uzavreni ! (navrat"
 0e63:                          db      " lib.klav.) $"
 0e70:  3a 39 19        lab9:   ld      a,(byt4)
 0e73:  f6 40                   or      "@"
 0e75:  32 8b 1b                ld      (byt8),a
 0e78:  32 8a 0e                ld      (byt9),a
 0e7b:  11 86 0e                ld      de,tbl7
 0e7e:  0e 09                   ld      c,9
 0e80:  cd 05 00                call    5
 0e83:  c3 1f 0f                jp      lab10
; ......................................................
 0e86:                  tbl7:   db      0ch
 0e87:                          db      "FD:"
 0e8a:                  byt9:   db      "    zvolte zaznam  ( zadanim"
 0ea6:                          db      " stopy a sektoru )  $"
 0ebb:  36 30           lab11:  ld      (hl),"0"
 0ebd:  23                      inc     hl
 0ebe:  36 30                   ld      (hl),"0"
 0ec0:  47                      ld      b,a
 0ec1:  04                      inc     b
 0ec2:  05              lab12:  dec     b
 0ec3:  c8                      ret     z
 0ec4:  34                      inc     (hl)
 0ec5:  7e                      ld      a,(hl)
 0ec6:  fe 3a                   cp      ":"
 0ec8:  20 f8                   jr      nz,lab12
 0eca:  36 30                   ld      (hl),"0"
 0ecc:  2b                      dec     hl
 0ecd:  34                      inc     (hl)
 0ece:  23                      inc     hl
 0ecf:  18 f1                   jr      lab12
; ......................................................
 0ed1:  36 30           lab16:  ld      (hl),"0"
 0ed3:  3d                      dec     a
 0ed4:  3a 22 19                ld      a,(byt3)
 0ed7:  20 0c                   jr      nz,lab17
 0ed9:  23                      inc     hl
 0eda:  77                      ld      (hl),a
 0edb:  e6 0f                   and     0fh
 0edd:  4f                      ld      c,a
 0ede:  06 00           lab18:  ld      b,0
 0ee0:  eb                      ex      de,hl
 0ee1:  71                      ld      (hl),c
 0ee2:  23                      inc     hl
 0ee3:  70                      ld      (hl),b
 0ee4:  c9                      ret     
; ......................................................
 0ee5:  77              lab17:  ld      (hl),a
 0ee6:  e6 0f                   and     0fh
 0ee8:  47                      ld      b,a
 0ee9:  23                      inc     hl
 0eea:  3a 23 19                ld      a,(byt13)
 0eed:  77                      ld      (hl),a
 0eee:  e6 0f                   and     0fh
 0ef0:  4f              lab19:  ld      c,a
 0ef1:  78                      ld      a,b
 0ef2:  b7                      or      a
 0ef3:  28 e9                   jr      z,lab18
 0ef5:  05                      dec     b
 0ef6:  3e 0a                   ld      a,0ah
 0ef8:  81                      add     a,c
 0ef9:  18 f5                   jr      lab19
; ......................................................
 0efb:  3a 88 1b        lab21:  ld      a,(tbl14)
 0efe:  4f                      ld      c,a
 0eff:  06 00                   ld      b,0
 0f01:  cd 1e de                call    0de1eh
 0f04:  3a 85 1b                ld      a,(tbl16)
 0f07:  4f                      ld      c,a
 0f08:  06 00                   ld      b,0
 0f0a:  21 65 de                ld      hl,0de65h
 0f0d:  3a 39 19                ld      a,(byt4)
 0f10:  be                      cp      (hl)
 0f11:  28 01                   jr      z,lab22
 0f13:  0b                      dec     bc
 0f14:  cd 21 de        lab22:  call    0de21h
 0f17:  c9                      ret     
; ......................................................
 0f18:                          db      0,0,0,0,0,0,0
 0f1f:  3a 39 19        lab10:  ld      a,(byt4)
 0f22:  3d                      dec     a
 0f23:  4f                      ld      c,a
 0f24:  cd 1b de                call    0de1bh
 0f27:  01 0a 00                ld      bc,0ah
 0f2a:  09                      add     hl,bc
 0f2b:  7e                      ld      a,(hl)
 0f2c:  23                      inc     hl
 0f2d:  66                      ld      h,(hl)
 0f2e:  6f                      ld      l,a
 0f2f:  e5                      push    hl
 0f30:  7e                      ld      a,(hl)
 0f31:  32 7c 1b                ld      (byt10),a
 0f34:  21 7d 1b                ld      hl,tbl8
 0f37:  cd bb 0e                call    lab11
 0f3a:  e1                      pop     hl
 0f3b:  e5                      push    hl
 0f3c:  01 0d 00                ld      bc,0dh
 0f3f:  09                      add     hl,bc
 0f40:  7e                      ld      a,(hl)
 0f41:  32 82 1b                ld      (byt11),a
 0f44:  21 83 1b                ld      hl,tbl9
 0f47:  cd bb 0e                call    lab11
 0f4a:  e1                      pop     hl
 0f4b:  01 20 00        wrd9:   ld      bc,20h
 0f4e:  09                      add     hl,bc
 0f4f:  7e                      ld      a,(hl)
 0f50:  32 7f 1b                ld      (byt12),a
 0f53:  21 80 1b                ld      hl,tbl10
 0f56:  cd bb 0e                call    lab11
 0f59:  01 5f 19                ld      bc,tbl11
 0f5c:  cd 24 de                call    0de24h
 0f5f:  21 80 81        lab108: ld      hl,8180h
 0f62:  af                      xor     a
 0f63:  cd 62 16                call    lab13
 0f66:  2a 83 1b                ld      hl,(tbl9)
 0f69:  22 80 0f                ld      (wrd1),hl
 0f6c:  2a 80 1b                ld      hl,(tbl10)
 0f6f:  22 85 0f                ld      (wrd2),hl
 0f72:  2a 7d 1b                ld      hl,(tbl8)
 0f75:  22 9f 0f                ld      (wrd3),hl
 0f78:  18 2a                   jr      lab14
; ......................................................
 0f7a:                  tbl12:  db      "stopa("
 0f80:                  wrd1:   db      "....."
 0f85:                  wrd2:   db      "..):          sektor (1..."
 0f9f:                  wrd3:   db      "..):$"
 0fa4:  11 7a 0f        lab14:  ld      de,tbl12
 0fa7:  0e 09                   ld      c,9
 0fa9:  cd 05 00                call    5
 0fac:  21 90 81        lab15:  ld      hl,8190h
 0faf:  af                      xor     a
 0fb0:  cd 62 16                call    lab13
 0fb3:  11 20 19                ld      de,tbl4
 0fb6:  0e 0a                   ld      c,0ah
 0fb8:  cd 05 00                call    5
 0fbb:  3a 21 19                ld      a,(byt2)
 0fbe:  b7                      or      a
 0fbf:  28 eb                   jr      z,lab15
 0fc1:  21 89 1b                ld      hl,tbl13
 0fc4:  11 88 1b                ld      de,tbl14
 0fc7:  cd d1 0e                call    lab16
 0fca:  3a 88 1b                ld      a,(tbl14)
 0fcd:  21 82 1b                ld      hl,byt11
 0fd0:  be                      cp      (hl)
 0fd1:  38 d1                   jr      c,lab14
 0fd3:  21 7f 1b                ld      hl,byt12
 0fd6:  be                      cp      (hl)
 0fd7:  38 04                   jr      c,lab20
 0fd9:  28 02                   jr      z,lab20
 0fdb:  18 c7                   jr      lab14
; ......................................................
 0fdd:  21 a9 81        lab20:  ld      hl,81a9h
 0fe0:  af                      xor     a
 0fe1:  cd 62 16                call    lab13
 0fe4:  1e 16                   ld      e,16h
 0fe6:  0e 02                   ld      c,2
 0fe8:  cd 05 00                call    5
 0feb:  11 20 19                ld      de,tbl4
 0fee:  0e 0a                   ld      c,0ah
 0ff0:  cd 05 00                call    5
 0ff3:  3a 21 19                ld      a,(byt2)
 0ff6:  b7                      or      a
 0ff7:  28 e4                   jr      z,lab20
 0ff9:  21 86 1b                ld      hl,tbl15
 0ffc:  11 85 1b                ld      de,tbl16
 0fff:  cd d1 0e                call    lab16
 1002:  3a 7c 1b                ld      a,(byt10)
 1005:  21 85 1b                ld      hl,tbl16
 1008:  be                      cp      (hl)
 1009:  38 d2                   jr      c,lab20
 100b:  7e                      ld      a,(hl)
 100c:  b7                      or      a
 100d:  28 ce                   jr      z,lab20
 100f:  cd fb 0e        lab48:  call    lab21
 1012:  cd 27 de                call    0de27h
 1015:  b7                      or      a
 1016:  28 28                   jr      z,lab23
 1018:  af                      xor     a
 1019:  21 b0 81                ld      hl,81b0h
 101c:  cd 62 16                call    lab13
 101f:  11 31 10                ld      de,tbl28
 1022:  0e 09                   ld      c,9
 1024:  cd 05 00                call    5
 1027:  3a 8b 1b                ld      a,(byt8)
 102a:  b7                      or      a
 102b:  ca 40 10                jp      z,lab23
 102e:  c3 5f 0f                jp      lab108
; ......................................................
 1031:                  tbl28:  db      "Chyba cteni ! $"
 1040:  21 80 81        lab23:  ld      hl,8180h
 1043:  af                      xor     a
 1044:  cd 62 16                call    lab13
 1047:  dd 21 17 19             ld      ix,1917h
 104b:  cd 90 13                call    lab24
 104e:  af              lab44:  xor     a
 104f:  32 8b 1b                ld      (byt8),a
 1052:  21 a8 97                ld      hl,97a8h
 1055:  cd 62 16                call    lab13
 1058:  11 a8 03                ld      de,tbl24
 105b:  0e 09                   ld      c,9
 105d:  cd 05 00                call    5
 1060:  1e ff           lab36:  ld      e,0ffh
 1062:  0e 06                   ld      c,6
 1064:  cd 05 00                call    5
 1067:  b7                      or      a
 1068:  28 f6                   jr      z,lab36
 106a:  f5                      push    af
 106b:  af                      xor     a
 106c:  21 b0 81                ld      hl,81b0h
 106f:  cd 62 16                call    lab13
 1072:  1e 16                   ld      e,16h
 1074:  0e 02                   ld      c,2
 1076:  cd 05 00                call    5
 1079:  f1                      pop     af
 107a:  fe 03                   cp      3
 107c:  20 0e                   jr      nz,lab37
 107e:  0e 0b           lab113: ld      c,0bh
 1080:  cd 05 00                call    5
 1083:  b7                      or      a
 1084:  c8                      ret     z
 1085:  0e 01                   ld      c,1
 1087:  cd 05 00                call    5
 108a:  18 f2                   jr      lab113
; ......................................................
 108c:  fe 13           lab37:  cp      13h
 108e:  20 33                   jr      nz,lab38
 1090:  3a 72 1b                ld      a,(byt7)
 1093:  b7                      or      a
 1094:  28 aa                   jr      z,lab23
 1096:  cd fb 0e                call    lab21
 1099:  cd 2a de                call    0de2ah
 109c:  b7                      or      a
 109d:  28 a1                   jr      z,lab23
 109f:  af                      xor     a
 10a0:  21 b0 81                ld      hl,81b0h
 10a3:  cd 62 16                call    lab13
 10a6:  11 b1 10                ld      de,tbl27
 10a9:  0e 09                   ld      c,9
 10ab:  cd 05 00                call    5
 10ae:  c3 40 10                jp      lab23
; ......................................................
 10b1:                  tbl27:  db      "Chyba zapisu  !!!$"
 10c3:  fe 10           lab38:  cp      10h
 10c5:  20 06                   jr      nz,lab39
 10c7:  cd 8b 16                call    lab110
 10ca:  c3 40 10                jp      lab23
; ......................................................
 10cd:  fe 0e           lab39:  cp      0eh
 10cf:  20 10                   jr      nz,lab40
 10d1:  0e 0b           lab109: ld      c,0bh
 10d3:  cd 05 00                call    5
 10d6:  b7                      or      a
 10d7:  ca 5f 0f                jp      z,lab108
 10da:  0e 01                   ld      c,1
 10dc:  cd 05 00                call    5
 10df:  18 f0                   jr      lab109
; ......................................................
 10e1:  fe 09           lab40:  cp      9
 10e3:  20 06                   jr      nz,lab41
 10e5:  cd 15 08                call    lab85
 10e8:  c3 40 10                jp      lab23
; ......................................................
 10eb:  fe 08           lab41:  cp      8
 10ed:  20 06                   jr      nz,lab42
 10ef:  cd a0 06                call    lab51
 10f2:  c3 40 10                jp      lab23
; ......................................................
 10f5:  fe 0d           lab42:  cp      0dh
 10f7:  c2 62 11                jp      nz,lab43
 10fa:  3a 7c 1b                ld      a,(byt10)
 10fd:  21 85 1b                ld      hl,tbl16
 1100:  be                      cp      (hl)
 1101:  28 24                   jr      z,lab50
 1103:  34                      inc     (hl)
 1104:  7e                      ld      a,(hl)
 1105:  21 86 1b        lab49:  ld      hl,tbl15
 1108:  cd bb 0e                call    lab11
 110b:  21 a9 81        lab47:  ld      hl,81a9h
 110e:  af                      xor     a
 110f:  cd 62 16                call    lab13
 1112:  3a 86 1b                ld      a,(tbl15)
 1115:  5f                      ld      e,a
 1116:  0e 02                   ld      c,2
 1118:  cd 05 00                call    5
 111b:  3a 87 1b                ld      a,(byt15)
 111e:  5f                      ld      e,a
 111f:  0e 02                   ld      c,2
 1121:  cd 05 00                call    5
 1124:  c3 0f 10                jp      lab48
; ......................................................
 1127:  3a 88 1b        lab50:  ld      a,(tbl14)
 112a:  21 7f 1b                ld      hl,byt12
 112d:  be                      cp      (hl)
 112e:  ca 40 10                jp      z,lab23
 1131:  3c                      inc     a
 1132:  32 88 1b                ld      (tbl14),a
 1135:  21 89 1b                ld      hl,tbl13
 1138:  cd bb 0e                call    lab11
 113b:  3e 01                   ld      a,1
 113d:  32 85 1b                ld      (tbl16),a
 1140:  21 30 31                ld      hl,3130h
 1143:  22 86 1b                ld      (tbl15),hl
 1146:  21 90 81        lab46:  ld      hl,8190h
 1149:  af                      xor     a
 114a:  cd 62 16                call    lab13
 114d:  3a 89 1b                ld      a,(tbl13)
 1150:  5f                      ld      e,a
 1151:  0e 02                   ld      c,2
 1153:  cd 05 00                call    5
 1156:  3a 8a 1b                ld      a,(byt14)
 1159:  5f                      ld      e,a
 115a:  0e 02                   ld      c,2
 115c:  cd 05 00                call    5
 115f:  c3 0b 11                jp      lab47
; ......................................................
 1162:  fe 02           lab43:  cp      2
 1164:  c2 4e 10                jp      nz,lab44
 1167:  3a 85 1b                ld      a,(tbl16)
 116a:  fe 01                   cp      1
 116c:  28 06                   jr      z,lab45
 116e:  3d                      dec     a
 116f:  32 85 1b                ld      (tbl16),a
 1172:  18 91                   jr      lab49
; ......................................................
 1174:  3a 88 1b        lab45:  ld      a,(tbl14)
 1177:  21 82 1b                ld      hl,byt11
 117a:  be                      cp      (hl)
 117b:  ca 40 10                jp      z,lab23
 117e:  3d                      dec     a
 117f:  32 88 1b                ld      (tbl14),a
 1182:  21 89 1b                ld      hl,tbl13
 1185:  cd bb 0e                call    lab11
 1188:  3a 7c 1b                ld      a,(byt10)
 118b:  32 85 1b                ld      (tbl16),a
 118e:  21 86 1b                ld      hl,tbl15
 1191:  cd bb 0e                call    lab11
 1194:  18 b0                   jr      lab46
; ......................................................
 1196:  c3 2a 12        lab117: jp      lab118
; ......................................................
 1199:                  byt18:  db      0
 119a:                  tbl29:  db      0,0,0,0,0,0,0,0,0,0,0,0,0,0,0
 11a9:                  tbl30:  db      0,0,0,0,0,0,0,0,0,0,0,0,0,0,0,0,0
 11ba:                          db      0,0,0,0,0,0,0,0,0,0,0,0,0,0,0,0,0
 11cb:                          db      0,0,0,0,0,0,0,0,0,0,0,0,0,0,0,0,0
 11dc:                          db      0,0,0,0,0,0,0,0,0,0,0,0,0,0,0,0,0
 11ed:                          db      0,0,0,0,0,0,0,0,0,0,0,0,0,0,0,0,0
 11fe:                          db      0,0,0,0,0,0,0,0,0,0,0,0,0,0,0,0,0
 120f:                          db      0,0,0,0,0,0,0,0,0,0,0,0,0,0,0,0,0
 1220:                          db      0,0,0,0,0,0,0,0,0
 1229:                  byt19:  db      0
 122a:  32 99 11        lab118: ld      (byt18),a
 122d:  3d                      dec     a
 122e:  e5                      push    hl
 122f:  4f                      ld      c,a
 1230:  cd 1b de                call    0de1bh
 1233:  e1                      pop     hl
 1234:  7c                      ld      a,h
 1235:  2e 80                   ld      l,80h
 1237:  85                      add     a,l
 1238:  67                      ld      h,a
 1239:  af                      xor     a
 123a:  cd 62 16                call    lab13
 123d:  06 0b                   ld      b,0bh
 123f:  21 9a 11                ld      hl,tbl29
 1242:  3e 3f                   ld      a,"?"
 1244:  77              lab119: ld      (hl),a
 1245:  23                      inc     hl
 1246:  10 fc                   djnz    lab119
 1248:  36 00                   ld      (hl),0
 124a:  23                      inc     hl
 124b:  36 00                   ld      (hl),0
 124d:  23                      inc     hl
 124e:  36 00                   ld      (hl),0
 1250:  11 a9 11                ld      de,tbl30
 1253:  0e 1a                   ld      c,1ah
 1255:  cd 05 00                call    5
 1258:  11 99 11                ld      de,byt18
 125b:  0e 11                   ld      c,11h
 125d:  cd 05 00                call    5
 1260:  fe ff                   cp      0ffh
 1262:  20 32                   jr      nz,lab120
 1264:  0e 09                   ld      c,9
 1266:  11 6d 12                ld      de,tbl31
 1269:  cd 05 00                call    5
 126c:  c9                      ret     
; ......................................................
 126d:                  tbl31:  db      "  *** Zadny soubor neni na"
 1287:                          db      " diskete ! ***$"
 1296:  cd 9b 12        lab120: call    lab121
 1299:  18 2d                   jr      lab123
; ......................................................
 129b:  0f              lab121: rrca    
 129c:  0f                      rrca    
 129d:  0f                      rrca    
 129e:  e6 60                   and     "`"
 12a0:  5f                      ld      e,a
 12a1:  16 00                   ld      d,0
 12a3:  21 a9 11                ld      hl,tbl30
 12a6:  19                      add     hl,de
 12a7:  23                      inc     hl
 12a8:  06 0b                   ld      b,0bh
 12aa:  5e              lab122: ld      e,(hl)
 12ab:  cb bb                   res     7,e
 12ad:  c5                      push    bc
 12ae:  e5                      push    hl
 12af:  0e 02                   ld      c,2
 12b1:  cd 05 00                call    5
 12b4:  e1                      pop     hl
 12b5:  23                      inc     hl
 12b6:  c1                      pop     bc
 12b7:  10 f1                   djnz    lab122
 12b9:  1e 20                   ld      e," "
 12bb:  0e 02                   ld      c,2
 12bd:  cd 05 00                call    5
 12c0:  1e 20                   ld      e," "
 12c2:  0e 02                   ld      c,2
 12c4:  cd 05 00                call    5
 12c7:  c9                      ret     
; ......................................................
 12c8:  3e 05           lab123: ld      a,5
 12ca:  32 29 12                ld      (byt19),a
 12cd:  11 99 11        lab124: ld      de,byt18
 12d0:  0e 12                   ld      c,12h
 12d2:  cd 05 00                call    5
 12d5:  fe ff                   cp      0ffh
 12d7:  c8                      ret     z
 12d8:  cd 9b 12                call    lab121
 12db:  21 29 12                ld      hl,byt19
 12de:  35                      dec     (hl)
 12df:  20 ec                   jr      nz,lab124
 12e1:  36 06                   ld      (hl),6
 12e3:  1e 0d                   ld      e,0dh
 12e5:  0e 02                   ld      c,2
 12e7:  cd 05 00                call    5
 12ea:  1e 0a                   ld      e,0ah
 12ec:  0e 02                   ld      c,2
 12ee:  cd 05 00                call    5
 12f1:  18 da                   jr      lab124
; ......................................................
 12f3:  7c              lab169: ld      a,h
 12f4:  e6 f0                   and     0f0h
 12f6:  0f                      rrca    
 12f7:  0f                      rrca    
 12f8:  0f                      rrca    
 12f9:  0f                      rrca    
 12fa:  cd 18 13                call    lab170
 12fd:  7c                      ld      a,h
 12fe:  e6 0f                   and     0fh
 1300:  cd 18 13                call    lab170
 1303:  3e 20                   ld      a," "
 1305:  12                      ld      (de),a
 1306:  13                      inc     de
 1307:  7d                      ld      a,l
 1308:  e6 f0                   and     0f0h
 130a:  0f                      rrca    
 130b:  0f                      rrca    
 130c:  0f                      rrca    
 130d:  0f                      rrca    
 130e:  cd 18 13                call    lab170
 1311:  7d                      ld      a,l
 1312:  e6 0f                   and     0fh
 1314:  cd 18 13                call    lab170
 1317:  c9                      ret     
; ......................................................
 1318:  fe 0a           lab170: cp      0ah
 131a:  38 04                   jr      c,lab171
 131c:  c6 37                   add     a,"7"
 131e:  18 02                   jr      lab172
; ......................................................
 1320:  f6 30           lab171: or      "0"
 1322:  12              lab172: ld      (de),a
 1323:  13                      inc     de
 1324:  c9                      ret     
; ......................................................
 1325:  d5              lab161: push    de
 1326:  06 04                   ld      b,4
 1328:  3e 30                   ld      a,"0"
 132a:  12              lab162: ld      (de),a
 132b:  13                      inc     de
 132c:  10 fc                   djnz    lab162
 132e:  d1                      pop     de
 132f:  af                      xor     a
 1330:  01 e8 03                ld      bc,tbl49
 1333:  ed 42           lab168: sbc     hl,bc
 1335:  38 05                   jr      c,lab163
 1337:  1a                      ld      a,(de)
 1338:  3c                      inc     a
 1339:  12                      ld      (de),a
 133a:  18 f7                   jr      lab168
; ......................................................
 133c:  09              lab163: add     hl,bc
 133d:  13                      inc     de
 133e:  af                      xor     a
 133f:  01 64 00                ld      bc,64h
 1342:  ed 42           lab167: sbc     hl,bc
 1344:  38 05                   jr      c,lab164
 1346:  1a                      ld      a,(de)
 1347:  3c                      inc     a
 1348:  12                      ld      (de),a
 1349:  18 f7                   jr      lab167
; ......................................................
 134b:  09              lab164: add     hl,bc
 134c:  13                      inc     de
 134d:  af                      xor     a
 134e:  01 0a 00                ld      bc,0ah
 1351:  ed 42           lab166: sbc     hl,bc
 1353:  38 05                   jr      c,lab165
 1355:  1a                      ld      a,(de)
 1356:  3c                      inc     a
 1357:  12                      ld      (de),a
 1358:  18 f7                   jr      lab166
; ......................................................
 135a:  09              lab165: add     hl,bc
 135b:  13                      inc     de
 135c:  7d                      ld      a,l
 135d:  f6 30                   or      "0"
 135f:  12                      ld      (de),a
 1360:  c9                      ret     
; ......................................................
 1361:  c5              lab137: push    bc
 1362:  21 80 81                ld      hl,8180h
 1365:  af                      xor     a
 1366:  cd 62 16                call    lab13
 1369:  c1                      pop     bc
 136a:  c5                      push    bc
 136b:  78                      ld      a,b
 136c:  f6 30                   or      "0"
 136e:  32 a4 13                ld      (byt25),a
 1371:  11 9b 13                ld      de,tbl41
 1374:  0e 09                   ld      c,9
 1376:  cd 05 00                call    5
 1379:  c1                      pop     bc
 137a:  21 62 1b                ld      hl,tbl40
 137d:  cb 48                   bit     1,b
 137f:  28 02                   jr      z,lab138
 1381:  23                      inc     hl
 1382:  23                      inc     hl
 1383:  e5              lab138: push    hl
 1384:  c5                      push    bc
 1385:  5e                      ld      e,(hl)
 1386:  0e 02                   ld      c,2
 1388:  cd 05 00                call    5
 138b:  c1                      pop     bc
 138c:  e1                      pop     hl
 138d:  23                      inc     hl
 138e:  10 f3                   djnz    lab138
 1390:  11 b5 13        lab24:  ld      de,tbl18
 1393:  0e 09                   ld      c,9
 1395:  cd 05 00                call    5
 1398:  c3 4d 15                jp      lab25
; ......................................................
 139b:                  tbl41:  db      16h
 139c:                          db      "zaznam ("
 13a4:                  byt25:  db      "2 dek.-nastav.):$"
 13b5:                  tbl18:  db      0dh,0ah
 13b7:                          db      "HEX:                    "
 13cf:                          db      "                        "
 13e7:                          db      "    ISO:$"
 13f0:                  tbl19:  db      "-----------------------------------"
 1413:                          db      "-----------------------------------"
 1436:                          db      "----------$"
 1441:                  tbl20:  db      14h,0dh
 1443:                          db      "< ET1 > ... dalsi zaznam"
 145b:                          db      "    "
 145f:                          db      0dh,0ah
 1461:                          db      "CTRL-B  ... predchozi zaznam"
 147d:                          db      "     "
 1482:                          db      0dh,0ah
 1484:                          db      "CTRL-N  ... nove cislo zaznamu"
 14a2:                          db      "       "
 14a9:                          db      0dh,0ah
 14ab:                          db      "CTRL-C  ... preruseni rezimu"
 14c7:                          db      "      "
 14cd:                          db      0dh,0ah
 14cf:                          db      "< HLT > ... zaznamenani oprav"
 14ec:                          db      "  $"
 14ef:                  tbl21:  db      "<PRINT>... tisk zaznamu "
 1507:                          db      " $"
 1509:                  tbl22:  db      " <---  ... zmeny v HEX -"
 1521:                          db      " kodu    $"
 152b:                  tbl23:  db      " -->|  ... zmeny v ISO -"
 1543:                          db      " kodu    $"
 154d:  21 80 92        lab25:  ld      hl,9280h
 1550:  af                      xor     a
 1551:  cd 62 16                call    lab13
 1554:  11 f0 13                ld      de,tbl19
 1557:  0e 09                   ld      c,9
 1559:  cd 05 00                call    5
 155c:  11 41 14                ld      de,tbl20
 155f:  0e 09                   ld      c,9
 1561:  cd 05 00                call    5
 1564:  21 a8 93                ld      hl,93a8h
 1567:  af                      xor     a
 1568:  cd 62 16                call    lab13
 156b:  11 ef 14                ld      de,tbl21
 156e:  0e 09                   ld      c,9
 1570:  cd 05 00                call    5
 1573:  21 a8 94                ld      hl,94a8h
 1576:  af                      xor     a
 1577:  cd 62 16                call    lab13
 157a:  11 09 15                ld      de,tbl22
 157d:  0e 09                   ld      c,9
 157f:  cd 05 00                call    5
 1582:  21 a8 95                ld      hl,95a8h
 1585:  af                      xor     a
 1586:  cd 62 16                call    lab13
 1589:  11 2b 15                ld      de,tbl23
 158c:  0e 09                   ld      c,9
 158e:  cd 05 00                call    5
 1591:  06 80                   ld      b,80h
 1593:  dd 6e 00                ld      l,(ix+0)
 1596:  dd 66 01                ld      h,(ix+1)
 1599:  dd 5e 02                ld      e,(ix+2)
 159c:  dd 56 03                ld      d,(ix+3)
 159f:  7e              lab28:  ld      a,(hl)
 15a0:  4f                      ld      c,a
 15a1:  e6 f0                   and     0f0h
 15a3:  0f                      rrca    
 15a4:  0f                      rrca    
 15a5:  0f                      rrca    
 15a6:  0f                      rrca    
 15a7:  f6 30                   or      "0"
 15a9:  fe 3a                   cp      ":"
 15ab:  38 02                   jr      c,lab26
 15ad:  c6 07                   add     a,7
 15af:  12              lab26:  ld      (de),a
 15b0:  13                      inc     de
 15b1:  79                      ld      a,c
 15b2:  e6 0f                   and     0fh
 15b4:  f6 30                   or      "0"
 15b6:  fe 3a                   cp      ":"
 15b8:  38 02                   jr      c,lab27
 15ba:  c6 07                   add     a,7
 15bc:  12              lab27:  ld      (de),a
 15bd:  13                      inc     de
 15be:  23                      inc     hl
 15bf:  10 de                   djnz    lab28
 15c1:  06 80                   ld      b,80h
 15c3:  dd 6e 00                ld      l,(ix+0)
 15c6:  dd 66 01                ld      h,(ix+1)
 15c9:  dd 5e 04                ld      e,(ix+4)
 15cc:  dd 56 05                ld      d,(ix+5)
 15cf:  0e 2e           lab30:  ld      c,"."
 15d1:  7e                      ld      a,(hl)
 15d2:  fe 20                   cp      " "
 15d4:  38 05                   jr      c,lab29
 15d6:  fe 7f                   cp      7fh
 15d8:  30 01                   jr      nc,lab29
 15da:  4f                      ld      c,a
 15db:  79              lab29:  ld      a,c
 15dc:  12                      ld      (de),a
 15dd:  13                      inc     de
 15de:  23                      inc     hl
 15df:  10 ee                   djnz    lab30
 15e1:  2a 0f 19                ld      hl,(wrd4)
 15e4:  af                      xor     a
 15e5:  cd 62 16                call    lab13
 15e8:  dd 6e 02                ld      l,(ix+2)
 15eb:  dd 66 03                ld      h,(ix+3)
 15ee:  0e 08                   ld      c,8
 15f0:  06 10           lab35:  ld      b,10h
 15f2:  5e              lab31:  ld      e,(hl)
 15f3:  23                      inc     hl
 15f4:  c5                      push    bc
 15f5:  e5                      push    hl
 15f6:  0e 02                   ld      c,2
 15f8:  cd 05 00                call    5
 15fb:  e1                      pop     hl
 15fc:  5e                      ld      e,(hl)
 15fd:  23                      inc     hl
 15fe:  e5                      push    hl
 15ff:  0e 02                   ld      c,2
 1601:  cd 05 00                call    5
 1604:  1e 20                   ld      e," "
 1606:  0e 02                   ld      c,2
 1608:  cd 05 00                call    5
 160b:  e1                      pop     hl
 160c:  c1                      pop     bc
 160d:  10 e3                   djnz    lab31
 160f:  0d                      dec     c
 1610:  28 1b                   jr      z,lab32
 1612:  e5                      push    hl
 1613:  c5                      push    bc
 1614:  1e 0d                   ld      e,0dh
 1616:  0e 02                   ld      c,2
 1618:  cd 05 00                call    5
 161b:  1e 0a                   ld      e,0ah
 161d:  0e 02                   ld      c,2
 161f:  cd 05 00                call    5
 1622:  1e 0a                   ld      e,0ah
 1624:  0e 02                   ld      c,2
 1626:  cd 05 00                call    5
 1629:  c1                      pop     bc
 162a:  e1                      pop     hl
 162b:  18 c3                   jr      lab35
; ......................................................
 162d:  2a 11 19        lab32:  ld      hl,(wrd5)
 1630:  22 15 19                ld      (wrd6),hl
 1633:  af                      xor     a
 1634:  cd 62 16                call    lab13
 1637:  dd 6e 04                ld      l,(ix+4)
 163a:  dd 66 05                ld      h,(ix+5)
 163d:  0e 08                   ld      c,8
 163f:  06 10           lab34:  ld      b,10h
 1641:  5e              lab33:  ld      e,(hl)
 1642:  23                      inc     hl
 1643:  c5                      push    bc
 1644:  e5                      push    hl
 1645:  0e 02                   ld      c,2
 1647:  cd 05 00                call    5
 164a:  e1                      pop     hl
 164b:  c1                      pop     bc
 164c:  10 f3                   djnz    lab33
 164e:  0d                      dec     c
 164f:  c8                      ret     z
 1650:  e5                      push    hl
 1651:  c5                      push    bc
 1652:  2a 15 19                ld      hl,(wrd6)
 1655:  24                      inc     h
 1656:  24                      inc     h
 1657:  22 15 19                ld      (wrd6),hl
 165a:  af                      xor     a
 165b:  cd 62 16                call    lab13
 165e:  c1                      pop     bc
 165f:  e1                      pop     hl
 1660:  18 dd                   jr      lab34
; ......................................................
 1662:  f5              lab13:  push    af
 1663:  e5                      push    hl
 1664:  1e 1b                   ld      e,1bh
 1666:  0e 02                   ld      c,2
 1668:  cd 05 00                call    5
 166b:  e1                      pop     hl
 166c:  e5                      push    hl
 166d:  5c                      ld      e,h
 166e:  0e 02                   ld      c,2
 1670:  cd 05 00                call    5
 1673:  e1                      pop     hl
 1674:  5d                      ld      e,l
 1675:  0e 02                   ld      c,2
 1677:  cd 05 00                call    5
 167a:  f1                      pop     af
 167b:  b7                      or      a
 167c:  c8                      ret     z
 167d:  5f                      ld      e,a
 167e:  0e 02                   ld      c,2
 1680:  cd 05 00                call    5
 1683:  1e 08                   ld      e,8
 1685:  0e 02                   ld      c,2
 1687:  cd 05 00                call    5
 168a:  c9                      ret     
; ......................................................
 168b:  21 05 f8        lab110: ld      hl,0f805h
 168e:  0e 13                   ld      c,13h
 1690:  06 4a                   ld      b,"J"
 1692:  7e              lab112: ld      a,(hl)
 1693:  cb bf                   res     7,a
 1695:  b7                      or      a
 1696:  20 02                   jr      nz,lab111
 1698:  3e 20                   ld      a," "
 169a:  5f              lab111: ld      e,a
 169b:  c5                      push    bc
 169c:  e5                      push    hl
 169d:  0e 05                   ld      c,5
 169f:  cd 05 00                call    5
 16a2:  e1                      pop     hl
 16a3:  23                      inc     hl
 16a4:  c1                      pop     bc
 16a5:  10 eb                   djnz    lab112
 16a7:  06 50                   ld      b,"P"
 16a9:  e5                      push    hl
 16aa:  c5                      push    bc
 16ab:  1e 0a                   ld      e,0ah
 16ad:  0e 05                   ld      c,5
 16af:  cd 05 00                call    5
 16b2:  1e 0d                   ld      e,0dh
 16b4:  0e 05                   ld      c,5
 16b6:  cd 05 00                call    5
 16b9:  c1                      pop     bc
 16ba:  e1                      pop     hl
 16bb:  0d                      dec     c
 16bc:  20 d4                   jr      nz,lab112
 16be:  c9                      ret     
; ......................................................
 16bf:  af              lab254: xor     a
 16c0:  18 02                   jr      lab255
; ......................................................
 16c2:  3e ff           lab215: ld      a,0ffh
 16c4:  32 eb 18        lab255: ld      (byt34),a
 16c7:  22 ec 18                ld      (wrd18),hl
 16ca:  ed 5b 3e 00             ld      de,(3eh)
 16ce:  21 62 00                ld      hl,62h
 16d1:  19                      add     hl,de
 16d2:  7e                      ld      a,(hl)
 16d3:  3d                      dec     a
 16d4:  b9                      cp      c
 16d5:  30 03                   jr      nc,lab216
 16d7:  3e 01                   ld      a,1
 16d9:  c9                      ret     
; ......................................................
 16da:  21 41 00        lab216: ld      hl,41h
 16dd:  19                      add     hl,de
 16de:  5e                      ld      e,(hl)
 16df:  23                      inc     hl
 16e0:  56                      ld      d,(hl)
 16e1:  21 0a 00                ld      hl,0ah
 16e4:  19                      add     hl,de
 16e5:  11 10 00                ld      de,10h
 16e8:  79                      ld      a,c
 16e9:  b7              lab242: or      a
 16ea:  28 04                   jr      z,lab217
 16ec:  19                      add     hl,de
 16ed:  3d                      dec     a
 16ee:  18 f9                   jr      lab242
; ......................................................
 16f0:  5e              lab217: ld      e,(hl)
 16f1:  23                      inc     hl
 16f2:  56                      ld      d,(hl)
 16f3:  d5                      push    de
 16f4:  dd e1                   pop     ix
 16f6:  dd 7e 12                ld      a,(ix+12h)
 16f9:  b7                      or      a
 16fa:  20 03                   jr      nz,lab218
 16fc:  3e 01                   ld      a,1
 16fe:  c9                      ret     
; ......................................................
 16ff:  2a 3e 00        lab218: ld      hl,(3eh)
 1702:  11 3f 00                ld      de,3fh
 1705:  19                      add     hl,de
 1706:  5e                      ld      e,(hl)
 1707:  23                      inc     hl
 1708:  56                      ld      d,(hl)
 1709:  eb                      ex      de,hl
 170a:  22 9b 18                ld      (wrd19),hl
 170d:  dd 46 0d                ld      b,(ix+0dh)
 1710:  2a ec 18                ld      hl,(wrd18)
 1713:  dd cb 15 7e             bit     7,(ix+15h)
 1717:  20 17                   jr      nz,lab219
 1719:  11 00 0d                ld      de,lab160
 171c:  19                      add     hl,de
 171d:  dd cb 15 46             bit     0,(ix+15h)
 1721:  28 0a           tbl17:  jr      z,lab239
 1723:  dd cb 15 4e             bit     1,(ix+15h)
 1727:  28 03                   jr      z,lab241
 1729:  11 00 1a                ld      de,tbl61
 172c:  19              lab241: add     hl,de
 172d:  05              lab239: dec     b
 172e:  28 07                   jr      z,lab240
 1730:  c5              lab219: push    bc
 1731:  cd 00 18                call    lab220
 1734:  c1                      pop     bc
 1735:  10 f9                   djnz    lab219
 1737:  22 f0 18        lab240: ld      (wrd20),hl
 173a:  2a ec 18                ld      hl,(wrd18)
 173d:  dd cb 15 7e             bit     7,(ix+15h)
 1741:  28 07                   jr      z,lab224
 1743:  af                      xor     a
 1744:  cd 17 18                call    lab235
 1747:  3e 00                   ld      a,0
 1749:  c9                      ret     
; ......................................................
 174a:  dd 7e 16        lab224: ld      a,(ix+16h)
 174d:  cb df                   set     3,a
 174f:  21 d1 18                ld      hl,tbl58
 1752:  11 de 18                ld      de,tbl59
 1755:  12                      ld      (de),a
 1756:  cb b7                   res     6,a
 1758:  77                      ld      (hl),a
 1759:  3a eb 18                ld      a,(byt34)
 175c:  b7                      or      a
 175d:  28 04                   jr      z,lab225
 175f:  35                      dec     (hl)
 1760:  eb                      ex      de,hl
 1761:  35                      dec     (hl)
 1762:  eb                      ex      de,hl
 1763:  dd 7e 17        lab225: ld      a,(ix+17h)
 1766:  23                      inc     hl
 1767:  13                      inc     de
 1768:  77                      ld      (hl),a
 1769:  cb d7                   set     2,a
 176b:  12                      ld      (de),a
 176c:  06 08                   ld      b,8
 176e:  23              lab226: inc     hl
 176f:  13                      inc     de
 1770:  10 fc                   djnz    lab226
 1772:  dd 7e 1b                ld      a,(ix+1bh)
 1775:  12                      ld      (de),a
 1776:  77                      ld      (hl),a
 1777:  13                      inc     de
 1778:  23                      inc     hl
 1779:  dd 7e 1c                ld      a,(ix+1ch)
 177c:  12                      ld      (de),a
 177d:  cb d7                   set     2,a
 177f:  77                      ld      (hl),a
 1780:  dd 6e 1d                ld      l,(ix+1dh)
 1783:  dd 66 1e                ld      h,(ix+1eh)
 1786:  22 dc 18                ld      (wrd21),hl
 1789:  22 e9 18                ld      (wrd22),hl
 178c:  dd 7e 15                ld      a,(ix+15h)
 178f:  e6 03                   and     3
 1791:  fe 01                   cp      1
 1793:  28 3f                   jr      z,lab227
 1795:  ed 5b ec 18             ld      de,(wrd18)
 1799:  ed 53 ee 18             ld      (wrd23),de
 179d:  21 d1 18                ld      hl,tbl58
 17a0:  cd 6b 18                call    lab228
 17a3:  78                      ld      a,b
 17a4:  b7                      or      a
 17a5:  3e 00                   ld      a,0
 17a7:  c0                      ret     nz
 17a8:  11 00 0d                ld      de,lab160
 17ab:  2a ec 18                ld      hl,(wrd18)
 17ae:  19                      add     hl,de
 17af:  22 ec 18                ld      (wrd18),hl
 17b2:  dd cb 15 46             bit     0,(ix+15h)
 17b6:  28 40                   jr      z,lab238
 17b8:  eb                      ex      de,hl
 17b9:  ed 53 ee 18             ld      (wrd23),de
 17bd:  21 de 18                ld      hl,tbl59
 17c0:  cd 6b 18                call    lab228
 17c3:  78                      ld      a,b
 17c4:  b7                      or      a
 17c5:  3e 00                   ld      a,0
 17c7:  c0                      ret     nz
 17c8:  11 00 1a                ld      de,tbl61
 17cb:  2a ec 18                ld      hl,(wrd18)
 17ce:  19                      add     hl,de
 17cf:  22 ec 18                ld      (wrd18),hl
 17d2:  18 24                   jr      lab238
; ......................................................
 17d4:  3a d9 18        lab227: ld      a,(byt35)
 17d7:  87                      add     a,a
 17d8:  32 d9 18                ld      (byt35),a
 17db:  ed 5b ec 18             ld      de,(wrd18)
 17df:  ed 53 ee 18             ld      (wrd23),de
 17e3:  21 d1 18                ld      hl,tbl58
 17e6:  cd 6b 18                call    lab228
 17e9:  78                      ld      a,b
 17ea:  b7                      or      a
 17eb:  3e 00                   ld      a,0
 17ed:  c0                      ret     nz
 17ee:  11 00 1a                ld      de,tbl61
 17f1:  2a ec 18                ld      hl,(wrd18)
 17f4:  19                      add     hl,de
 17f5:  22 ec 18                ld      (wrd18),hl
 17f8:  3e 01           lab238: ld      a,1
 17fa:  cd 17 18                call    lab235
 17fd:  3e 00                   ld      a,0
 17ff:  c9                      ret     
; ......................................................
 1800:  e5              lab220: push    hl
 1801:  dd 46 1f                ld      b,(ix+1fh)
 1804:  dd 7e 18                ld      a,(ix+18h)
 1807:  21 80 00                ld      hl,80h
 180a:  b7              lab223: or      a
 180b:  28 04                   jr      z,lab221
 180d:  29                      add     hl,hl
 180e:  3d                      dec     a
 180f:  18 f9                   jr      lab223
; ......................................................
 1811:  eb              lab221: ex      de,hl
 1812:  e1                      pop     hl
 1813:  19              lab222: add     hl,de
 1814:  10 fd                   djnz    lab222
 1816:  c9                      ret     
; ......................................................
 1817:  22 ee 18        lab235: ld      (wrd23),hl
 181a:  21 f2 18                ld      hl,tbl62
 181d:  32 f4 18                ld      (byt36),a
 1820:  dd 46 16                ld      b,(ix+16h)
 1823:  3a eb 18                ld      a,(byt34)
 1826:  b7                      or      a
 1827:  28 01                   jr      z,lab236
 1829:  05                      dec     b
 182a:  70              lab236: ld      (hl),b
 182b:  cb de                   set     3,(hl)
 182d:  23                      inc     hl
 182e:  dd 7e 17                ld      a,(ix+17h)
 1831:  77                      ld      (hl),a
 1832:  23                      inc     hl
 1833:  23                      inc     hl
 1834:  36 00                   ld      (hl),0
 1836:  23                      inc     hl
 1837:  36 01                   ld      (hl),1
 1839:  23                      inc     hl
 183a:  eb                      ex      de,hl
 183b:  dd e5                   push    ix
 183d:  dd e5                   push    ix
 183f:  e1                      pop     hl
 1840:  01 18 00                ld      bc,18h
 1843:  09                      add     hl,bc
 1844:  01 03 00                ld      bc,3
 1847:  ed b0                   ldir    
 1849:  13                      inc     de
 184a:  01 04 00                ld      bc,4
 184d:  ed b0                   ldir    
 184f:  dd e1                   pop     ix
 1851:  3a f4 18                ld      a,(byt36)
 1854:  47                      ld      b,a
 1855:  dd 7e 0d                ld      a,(ix+0dh)
 1858:  90                      sub     b
 1859:  47                      ld      b,a
 185a:  dd 4e 1f                ld      c,(ix+1fh)
 185d:  af                      xor     a
 185e:  81              lab237: add     a,c
 185f:  10 fd                   djnz    lab237
 1861:  32 fa 18                ld      (byt37),a
 1864:  21 f2 18                ld      hl,tbl62
 1867:  ed 5b ee 18             ld      de,(wrd23)
 186b:  cd 8a 18        lab228: call    lab229
 186e:  78                      ld      a,b
 186f:  b7                      or      a
 1870:  c0                      ret     nz
 1871:  3a eb 18                ld      a,(byt34)
 1874:  b7                      or      a
 1875:  c8                      ret     z
 1876:  34                      inc     (hl)
 1877:  ed 5b f0 18             ld      de,(wrd20)
 187b:  cd 8a 18                call    lab229
 187e:  78                      ld      a,b
 187f:  b7                      or      a
 1880:  c0                      ret     nz
 1881:  cd a2 18                call    lab230
 1884:  06 00                   ld      b,0
 1886:  c8                      ret     z
 1887:  06 4b                   ld      b,"K"
 1889:  c9                      ret     
; ......................................................
 188a:  e5              lab229: push    hl
 188b:  d5                      push    de
 188c:  dd e5                   push    ix
 188e:  d5                      push    de
 188f:  11 ff 18                ld      de,tbl60
 1892:  d5                      push    de
 1893:  01 0d 00                ld      bc,0dh
 1896:  ed b0                   ldir    
 1898:  e1                      pop     hl
 1899:  d1                      pop     de
 189a:  cd 00 00                db      0cdh
 189b:                  wrd19:  db      0,0
 189d:  dd e1                   pop     ix
 189f:  d1                      pop     de
 18a0:  e1                      pop     hl
 18a1:  c9                      ret     
; ......................................................
 18a2:  01 05 00        lab230: ld      bc,5
 18a5:  09                      add     hl,bc
 18a6:  7e                      ld      a,(hl)
 18a7:  01 03 00                ld      bc,3
 18aa:  09                      add     hl,bc
 18ab:  46                      ld      b,(hl)
 18ac:  21 80 00                ld      hl,80h
 18af:  b7              lab234: or      a
 18b0:  28 04                   jr      z,lab231
 18b2:  29                      add     hl,hl
 18b3:  3d                      dec     a
 18b4:  18 f9                   jr      lab234
; ......................................................
 18b6:  eb              lab231: ex      de,hl
 18b7:  21 00 00                ld      hl,0
 18ba:  19              lab232: add     hl,de
 18bb:  10 fd                   djnz    lab232
 18bd:  4d                      ld      c,l
 18be:  44                      ld      b,h
 18bf:  2a ee 18                ld      hl,(wrd23)
 18c2:  ed 5b f0 18             ld      de,(wrd20)
 18c6:  1a              lab233: ld      a,(de)
 18c7:  be                      cp      (hl)
 18c8:  c0                      ret     nz
 18c9:  23                      inc     hl
 18ca:  13                      inc     de
 18cb:  0b                      dec     bc
 18cc:  79                      ld      a,c
 18cd:  b0                      or      b
 18ce:  20 f6                   jr      nz,lab233
 18d0:  c9                      ret     
; ......................................................
 18d1:                  tbl58:  db      0eh,0,0,0,1,0,1ah,4
 18d9:                  byt35:  db      1ah,0,0
 18dc:                  wrd21:  db      0,0
 18de:                  tbl59:  db      4eh,4,0,1,1,1,1ah,0fh,1ah,0,0
 18e9:                  wrd22:  db      0,0
 18eb:                  byt34:  db      0
 18ec:                  wrd18:  db      0,0
 18ee:                  wrd23:  db      0,0
 18f0:                  wrd20:  db      0,0
 18f2:                  tbl62:  db      0,0
 18f4:                  byt36:  db      0,0,0,0,0,0
 18fa:                  byt37:  db      0,0,0,0,0
 18ff:                  tbl60:  db      0,0,0,0,0,0,0,0,0,0,0,0,0
 190c:                  byt17:  db      0,87h,81h
 190f:                  wrd4:   db      80h,83h
 1911:                  wrd5:   db      0b4h,83h
 1913:                  wrd8:   db      0,0
 1915:                  wrd6:   db      0,0,5fh,19h,0dfh,19h,0dfh,1ah,1,0
 191f:                          db      0
 1920:                  tbl4:   db      2
 1921:                  byt2:   db      0
 1922:                  byt3:   db      0
 1923:                  byt13:  db      0
 1924:                  tbl47:  db      4
 1925:                  byt27:  db      0
 1926:                  tbl48:  db      0,0,0,0
 192a:                  tbl34:  db      0dh
 192b:                  byt22:  db      0
 192c:                  tbl35:  db      0,0,0,0,0,0,0,0,0,0,0,0,0
 1939:                  byt4:   db      0
 193a:                  byt20:  db      " "
 193b:                  tbl36:  db      "       "
 1942:                  tbl53:  db      "    "
 1946:                  wrd12:  db      0,0
 1948:                  wrd13:  db      0,0,0,0,0,0,0,0,0,0,0,0,0,0,0,0,0
 1959:                          db      0
 195a:                  wrd14:  db      0
 195b:                  wrd16:  db      0
 195c:                  wrd15:  db      0,0
 195e:                  byt24:  db      0
 195f:                  tbl11:  db      0,0,0,0,0,0,0,0,0,0,0,0,0,0,0,0,0
 1970:                          db      0,0,0,0,0,0,0,0,0,0,0,0,0,0,0,0,0
 1981:                          db      0,0,0,0,0,0,0,0,0,0,0,0,0,0,0,0,0
 1992:                          db      0,0,0,0,0,0,0,0,0,0,0,0,0,0,0,0,0
 19a3:                          db      0,0,0,0,0,0,0,0,0,0,0,0,0,0,0,0,0
 19b4:                          db      0,0,0,0,0,0,0,0,0,0,0,0,0,0,0,0,0
 19c5:                          db      0,0,0,0,0,0,0,0,0,0,0,0,0,0,0,0,0
 19d6:                          db      0,0,0,0,0,0,0,0,0,0,0,0,0,0,0,0,0
 19e7:                          db      0,0,0,0,0,0,0,0,0,0,0,0,0,0,0,0,0
 19f8:                          db      0,0,0,0,0,0,0,0
 1a00:                  tbl61:  db      0,0,0,0,0,0,0,0,0,0,0,0,0,0,0,0,0
 1a11:                          db      0,0,0,0,0,0,0,0,0,0,0,0,0,0,0,0,0
 1a22:                          db      0,0,0,0,0,0,0,0,0,0,0,0,0,0,0,0,0
 1a33:                          db      0,0,0,0,0,0,0,0,0,0,0,0,0,0,0,0,0
 1a44:                          db      0,0,0,0,0,0,0,0,0,0,0,0,0,0,0,0,0
 1a55:                          db      0,0,0,0,0,0,0,0,0,0,0,0,0,0,0,0,0
 1a66:                          db      0,0,0,0,0,0,0,0,0,0,0,0,0,0,0,0,0
 1a77:                          db      0,0,0,0,0,0,0,0,0,0,0,0,0,0,0,0,0
 1a88:                          db      0,0,0,0,0,0,0,0,0,0,0,0,0,0,0,0,0
 1a99:                          db      0,0,0,0,0,0,0,0,0,0,0,0,0,0,0,0,0
 1aaa:                          db      0,0,0,0,0,0,0,0,0,0,0,0,0,0,0,0,0
 1abb:                          db      0,0,0,0,0,0,0,0,0,0,0,0,0,0,0,0,0
 1acc:                          db      0,0,0,0,0,0,0,0,0,0,0,0,0,0,0,0,0
 1add:                          db      0,0
 1adf:                          db      "..................................."
 1b02:                          db      "..................................."
 1b25:                          db      "........................."
 1b3e:                  tbl55:  db      "................................."
 1b5f:                  wrd7:   db      0,0
 1b61:                  byt33:  db      0
 1b62:                  tbl40:  db      0
 1b63:                  byt28:  db      0
 1b64:                  byt29:  db      0
 1b65:                  byt30:  db      0
 1b66:                          db      "$"
 1b67:                  wrd11:  db      22h,0
 1b69:                  tbl42:  db      "("
 1b6a:                  tbl39:  db      "00"
 1b6c:                  byt23:  db      " 00H)$"
 1b72:                  byt7:   db      0
 1b73:                  byt6:   db      0
 1b74:                  byt16:  db      "m"
 1b75:                          db      0,0,0,0,0,0,0
 1b7c:                  byt10:  db      0
 1b7d:                  tbl8:   db      0,0
 1b7f:                  byt12:  db      0
 1b80:                  tbl10:  db      0,0
 1b82:                  byt11:  db      0
 1b83:                  tbl9:   db      0,0
 1b85:                  tbl16:  db      0
 1b86:                  tbl15:  db      0
 1b87:                  byt15:  db      0
 1b88:                  tbl14:  db      0
 1b89:                  tbl13:  db      0
 1b8a:                  byt14:  db      0
 1b8b:                  byt8:   db      0,0c7h,0c7h,0c7h,0c7h,0c7h,0c7h,0c7h
 1b93:                          db      0c7h,0c7h,0c7h,0c7h,0c7h,0c7h,0c7h
 1b9a:                          db      0c7h,0c7h,0c7h,0c7h,0c7h,0c7h,0c7h
 1ba1:                          db      0c7h,0c7h,0c7h,0c7h,0c7h,0c7h,0c7h
 1ba8:                          db      0c7h,0c7h,0c7h,0c7h,0c7h,0c7h,0c7h
 1baf:                          db      0c7h,0c7h,0c7h,0c7h,0c7h,0c7h,0c7h
 1bb6:                          db      0c7h,0c7h,0c7h,0c7h
 1bba:                  tbl1:   db      0c7h,0c7h
 1bbc:                  wrd17:  db      0,0
 1bbe:                  tbl56:  db      0
 1bbf:                          db      "................................"
 1bdf:                          db      0,0,0,0,0,0,0
 1be6:                          db      "$"
 1be7:                          db      22h,0
 1be9:                          db      "(00 00H)$"
 1bf2:                          db      0,0
 1bf4:                          db      "m"
 1bf5:                          db      0,0,0,0,0,0,0,0,0,0,0,91h,94h,0,0

        end     100h
