

152C:1668 9A00000B18     CALL   180B:0000 
152C:166D 9A0000A417     CALL   17A4:0000 
152C:1672 9A9507EF16     CALL   16EF:0795 

152C:1677 55             PUSH   BP
152C:1678 89E5           MOV    BP,SP 
152C:167A BF36C6         MOV    DI,C636 
152C:167D 1E             PUSH   DS 
152C:167E 57             PUSH   DI 
152C:167F BF0416         MOV    DI,1604 
152C:1682 0E             PUSH   CS 
152C:1683 57             PUSH   DI 
152C:1684 31C0           XOR    AX,AX 
152C:1686 50             PUSH   AX 

152C:1687 9A68130B18     CALL   180B:1368
152C:168C 9AA0120B18     CALL   180B:12A0 

152C:1691 BF36C6         MOV    DI,C636
152C:1694 1E             PUSH   DS 
152C:1695 57             PUSH   DI 
152C:1696 BF3716         MOV    DI,1637 
152C:1699 0E             PUSH   CS 
152C:169A 57             PUSH   DI 
152C:169B 31C0           XOR    AX,AX 
152C:169D 50             PUSH   AX 
152C:169E 9A68130B18     CALL   180B:1368 
152C:16A3 9AA0120B18     CALL   180B:12A0 
152C:16A8 BF36C6         MOV    DI,C636 
152C:16AB 1E             PUSH   DS 
152C:16AC 57             PUSH   DI 
152C:16AD 9AA0120B18     CALL   180B:12A0 
152C:16B2 E81BFE         CALL   14D0 
152C:16B5 E888F1         CALL   0840 
152C:16B8 E8B6FB         CALL   1271 
152C:16BB 89EC           MOV    SP,BP 
152C:16BD 5D             POP    BP 
152C:16BE 31C0           XOR    AX,AX 
152C:16C0 9AD8000B18     CALL   180B:00D8 

; -----------------------------------------------------------------------------
; -----------------------------------------------------------------------------


152C:16C5 06             PUSH   ES
152C:16C6 0E             PUSH   CS 
152C:16C7 1F             POP    DS 
152C:16C8 8B0E0C00       MOV    CX,[000C] 
152C:16CC 8BF1           MOV    SI,CX 
152C:16CE 4E             DEC    SI 
152C:16CF 89F7           MOV    DI,SI 
152C:16D1 8CDB           MOV    BX,DS 
152C:16D3 031E0A00       ADD    BX,[000A] 
152C:16D7 8EC3           MOV    ES,BX 
152C:16D9 FD             STD     
152C:16DA F3             REPZ   
152C:16DB A4             MOVSB   
152C:16DC 53             PUSH   BX 
152C:16DD B82B00         MOV    AX,002B 
152C:16E0 50             PUSH   AX 
152C:16E1 CB             RETF    




152C:16E2 2E8B2E0800     MOV    BP,CS:[0008]
152C:16E7 8CDA           MOV    DX,DS 
152C:16E9 89E8           MOV    AX,BP 
152C:16EB 3D0010         CMP    AX,1000 
152C:16EE 7603           JBE    16F3 
152C:16F0 B80010         MOV    AX,1000 
152C:16F3 29C5           SUB    BP,AX 
152C:16F5 29C2           SUB    DX,AX 
152C:16F7 29C3           SUB    BX,AX 
152C:16F9 8EDA           MOV    DS,DX 
152C:16FB 8EC3           MOV    ES,BX 
152C:16FD B103           MOV    CL,03 
152C:16FF D3E0           SHL    AX,CL 
152C:1701 89C1           MOV    CX,AX 
152C:1703 D1E0           SHL    AX,1 
152C:1705 48             DEC    AX 
152C:1706 48             DEC    AX 
152C:1707 8BF0           MOV    SI,AX 
152C:1709 8BF8           MOV    DI,AX 
152C:170B F3             REPZ   
152C:170C A5             MOVSW   
152C:170D 09ED           OR     BP,BP 
152C:170F 75D8           JNZ    16E9 
152C:1711 FC             CLD     
152C:1712 8EC2           MOV    ES,DX 
152C:1714 8EDB           MOV    DS,BX 
152C:1716 31F6           XOR    SI,SI 
152C:1718 31FF           XOR    DI,DI 
152C:171A BA1000         MOV    DX,0010 
152C:171D AD             LODSW   
152C:171E 89C5           MOV    BP,AX 
152C:1720 D1ED           SHR    BP,1 
152C:1722 4A             DEC    DX 
152C:1723 7505           JNZ    172A 
152C:1725 AD             LODSW   
152C:1726 89C5           MOV    BP,AX 
152C:1728 B210           MOV    DL,10 
152C:172A 7303           JNB    172F 
152C:172C A4             MOVSB   
152C:172D EBF1           JMP    1720 
152C:172F 31C9           XOR    CX,CX 
152C:1731 D1ED           SHR    BP,1 
152C:1733 4A             DEC    DX 
152C:1734 7505           JNZ    173B 
152C:1736 AD             LODSW   
152C:1737 89C5           MOV    BP,AX 
152C:1739 B210           MOV    DL,10 
152C:173B 7222           JB     175F 
152C:173D D1ED           SHR    BP,1 
152C:173F 4A             DEC    DX 
152C:1740 7505           JNZ    1747 
152C:1742 AD             LODSW   
152C:1743 89C5           MOV    BP,AX 
152C:1745 B210           MOV    DL,10 
152C:1747 D1D1           RCL    CX,1 
152C:1749 D1ED           SHR    BP,1 
152C:174B 4A             DEC    DX 
152C:174C 7505           JNZ    1753 
152C:174E AD             LODSW   
152C:174F 89C5           MOV    BP,AX 
152C:1751 B210           MOV    DL,10 
152C:1753 D1D1           RCL    CX,1 
152C:1755 41             INC    CX 
152C:1756 41             INC    CX 
152C:1757 AC             LODSB   
152C:1758 B7FF           MOV    BH,FF 
152C:175A 8AD8           MOV    BL,AL 
152C:175C E91300         JMP    1772 
152C:175F AD             LODSW   
152C:1760 8BD8           MOV    BX,AX 
152C:1762 B103           MOV    CL,03 
152C:1764 D2EF           SHR    BH,CL 
152C:1766 80CFE0         OR     BH,E0 
152C:1769 80E407         AND    AH,07 
152C:176C 740C           JZ     177A 
152C:176E 88E1           MOV    CL,AH 
152C:1770 41             INC    CX 
152C:1771 41             INC    CX 
152C:1772 268A01         MOV    AL,ES:[BX+DI] 
152C:1775 AA             STOSB   
152C:1776 E2FA           LOOP   1772 
152C:1778 EBA6           JMP    1720 
152C:177A AC             LODSB   
152C:177B 08C0           OR     AL,AL 
152C:177D 7434           JZ     17B3 
152C:177F 3C01           CMP    AL,01 
152C:1781 7405           JZ     1788 
152C:1783 88C1           MOV    CL,AL 
152C:1785 41             INC    CX 
152C:1786 EBEA           JMP    1772 
152C:1788 89FB           MOV    BX,DI 
152C:178A 83E70F         AND    DI,+0F 
152C:178D 81C70020       ADD    DI,2000 
152C:1791 B104           MOV    CL,04 
152C:1793 D3EB           SHR    BX,CL 
152C:1795 8CC0           MOV    AX,ES 
152C:1797 01D8           ADD    AX,BX 
152C:1799 2D0002         SUB    AX,0200 
152C:179C 8EC0           MOV    ES,AX 
152C:179E 89F3           MOV    BX,SI 
152C:17A0 83E60F         AND    SI,+0F 
152C:17A3 D3EB           SHR    BX,CL 
152C:17A5 8CD8           MOV    AX,DS 
152C:17A7 01D8           ADD    AX,BX 
152C:17A9 8ED8           MOV    DS,AX 
152C:17AB E972FF         JMP    1720 
152C:17AE 2A4641         SUB    AL,[BP+41] 
152C:17B1 42             INC    DX 
152C:17B2 2A0E1FBE       SUB    CL,[BE1F] 
152C:17B6 58             POP    AX 
152C:17B7 015B83         ADD    [BP+DI-7D],BX 
152C:17BA C3             RET     
152C:17BB 1089DA31       ADC    [BX+DI+31DA],CL 
152C:17BF FFAC08C0       JMP    FAR [SI+C008] 
152C:17C3 7416           JZ     17DB 
152C:17C5 B400           MOV    AH,00 
152C:17C7 01C7           ADD    DI,AX 
152C:17C9 8BC7           MOV    AX,DI 
152C:17CB 83E70F         AND    DI,+0F 
152C:17CE B104           MOV    CL,04 
152C:17D0 D3E8           SHR    AX,CL 
152C:17D2 01C2           ADD    DX,AX 
152C:17D4 8EC2           MOV    ES,DX 
152C:17D6 26011D         ADD    ES:[DI],BX 
152C:17D9 EBE5           JMP    17C0 
152C:17DB AD             LODSW   
152C:17DC 09C0           OR     AX,AX 
152C:17DE 7508           JNZ    17E8 
152C:17E0 81C2FF0F       ADD    DX,0FFF 
152C:17E4 8EC2           MOV    ES,DX 
152C:17E6 EBD8           JMP    17C0 
152C:17E8 3D0100         CMP    AX,0001 
152C:17EB 75DA           JNZ    17C7 
152C:17ED 8BC3           MOV    AX,BX 
152C:17EF 8B3E0400       MOV    DI,[0004] 
152C:17F3 8B360600       MOV    SI,[0006] 
152C:17F7 01C6           ADD    SI,AX 
152C:17F9 01060200       ADD    [0002],AX 
152C:17FD 2D1000         SUB    AX,0010 
152C:1800 8ED8           MOV    DS,AX 
152C:1802 8EC0           MOV    ES,AX 
152C:1804 31DB           XOR    BX,BX 
152C:1806 FA             CLI     
152C:1807 8ED6           MOV    SS,SI 
152C:1809 8BE7           MOV    SP,DI 
152C:180B FB             STI     
152C:180C 2EFF2F         JMP    FAR CS:[BX] 
152C:180F 0049C9         ADD    [BX+DI-37],CL 
152C:1812 CDCD           INT    CD 
152C:1814 CDCD           INT    CD 
152C:1816 CDCD           INT    CD 
152C:1818 CDCD           INT    CD 
152C:181A CDCD           INT    CD 
152C:181C CDCD           INT    CD 
152C:181E CDCD           INT    CD 
152C:1820 CDCD           INT    CD 
152C:1822 CDCD           INT    CD 
152C:1824 CDCD           INT    CD 
152C:1826 CDCD           INT    CD 
152C:1828 CDCD           INT    CD 
152C:182A CDCD           INT    CD 
152C:182C CDCD           INT    CD 
152C:182E CDCD           INT    CD 
152C:1830 CDCD           INT    CD 
152C:1832 CDCD           INT    CD 
152C:1834 CDCD           INT    CD 
152C:1836 CDCD           INT    CD 
152C:1838 CDCD           INT    CD 
152C:183A CDCD           INT    CD 
152C:183C CDCD           INT    CD 
152C:183E CDCD           INT    CD 
152C:1840 CDCD           INT    CD 
152C:1842 CDCD           INT    CD 
152C:1844 CDCD           INT    CD 
152C:1846 CDCD           INT    CD 
152C:1848 CDCD           INT    CD 
152C:184A CDCD           INT    CD 
152C:184C CDCD           INT    CD 
152C:184E CDCD           INT    CD 
152C:1850 CDCD           INT    CD 
152C:1852 CDCD           INT    CD 
152C:1854 CDCD           INT    CD 
152C:1856 CDCD           INT    CD 
152C:1858 CDBB           INT    BB 
152C:185A 49             DEC    CX 
152C:185B BA2043         MOV    DX,4320 
152C:185E 65             DB     65 
152C:185F 207072         AND    [BX+SI+72],DH 
152C:1862 6F             OUTSW   
152C:1863 67             DB     67 
152C:1864 7261           JB     18C7 
152C:1866 6D             INSW    
152C:1867 6D             INSW    
152C:1868 65             DB     65 
152C:1869 206120         AND    [BX+DI+20],AH 
152C:186C 82748220       XOR    Byte Ptr [SI-7E],20           ;' ' 
152C:1870 63             DB     63 
152C:1871 6F             OUTSW   
152C:1872 6E             OUTSB   
152C:1873 877520         XCHG   SI,[DI+20] 
152C:1876 65             DB     65 
152C:1877 7420           JZ     1899 
152C:1879 7282           JB     17FD 
152C:187B 61             POPA    
152C:187C 6C             INSB    
152C:187D 6973822070     IMUL   SI,[BP+DI-7E],7020 
152C:1882 61             POPA    
152C:1883 7220           JB     18A5 
152C:1885 46             INC    SI 
152C:1886 61             POPA    
152C:1887 627269         BOUND  SI,[BP+SI+69] 
152C:188A 63             DB     63 
152C:188B 65             DB     65 
152C:188C 204245         AND    [BP+SI+45],AL 
152C:188F 4C             DEC    SP 
152C:1890 4C             DEC    SP 
152C:1891 41             INC    CX 
152C:1892 52             PUSH   DX 
152C:1893 44             INC    SP 
152C:1894 207175         AND    [BX+DI+75],DH 
152C:1897 69206120       IMUL   SP,[BX+SI],2061 
152C:189B 64             DB     64 
152C:189C 82636964       AND    Byte Ptr [BP+DI+69],64        ;'d' 
152C:18A0 822020         AND    Byte Ptr [BX+SI],20           ;' ' 
152C:18A3 BA49BA         MOV    DX,BA49 
152C:18A6 206782         AND    [BX-7E],AH 
152C:18A9 6E             OUTSB   
152C:18AA 82726575       XOR    Byte Ptr [BP+SI+65],75        ;'u' 
152C:18AE 7365           JNB    1915 
152C:18B0 6D             INSW    
152C:18B1 65             DB     65 
152C:18B2 6E             OUTSB   
152C:18B3 7420           JZ     18D5 
152C:18B5 64             DB     64 
152C:18B6 65             DB     65 
152C:18B7 206C65         AND    [SI+65],CH 
152C:18BA 206D65         AND    [DI+65],CH 
152C:18BD 7474           JZ     1933 
152C:18BF 7265           JB     1926 
152C:18C1 20656E         AND    [DI+6E],AH 
152C:18C4 204652         AND    [BP+52],AL 
152C:18C7 45             INC    BP 
152C:18C8 45             INC    BP 
152C:18C9 57             PUSH   DI 
152C:18CA 41             INC    CX 
152C:18CB 52             PUSH   DX 
152C:18CC 45             INC    BP 
152C:18CD 2E2020         AND    CS:[BX+SI],AH 
152C:18D0 2020           AND    [BX+SI],AH 
152C:18D2 2020           AND    [BX+SI],AH 
152C:18D4 2020           AND    [BX+SI],AH 
152C:18D6 2020           AND    [BX+SI],AH 
152C:18D8 2020           AND    [BX+SI],AH 
152C:18DA 2020           AND    [BX+SI],AH 
152C:18DC 2020           AND    [BX+SI],AH 
152C:18DE 2020           AND    [BX+SI],AH 
152C:18E0 2020           AND    [BX+SI],AH 
152C:18E2 2020           AND    [BX+SI],AH 
152C:18E4 2020           AND    [BX+SI],AH 
152C:18E6 2020           AND    [BX+SI],AH 
152C:18E8 2020           AND    [BX+SI],AH 
152C:18EA 2020           AND    [BX+SI],AH 
152C:18EC 20BA49BA       AND    [BP+SI+BA49],BH 
152C:18F0 205369         AND    [BP+DI+69],DL 
152C:18F3 20766F         AND    [BP+6F],DH 
152C:18F6 7573           JNZ    196B 
152C:18F8 206176         AND    [BX+DI+76],AH 
152C:18FB 65             DB     65 
152C:18FC 7A20           JPE    191E 
152C:18FE 64             DB     64 
152C:18FF 65             DB     65 
152C:1900 7320           JNB    1922 
152C:1902 7072           JO     1976 
152C:1904 6F             OUTSW   
152C:1905 626C8A         BOUND  BP,[SI-76] 
152C:1908 6D             INSW    
152C:1909 65             DB     65 
152C:190A 7320           JNB    192C 
152C:190C 6F             OUTSW   
152C:190D 7520           JNZ    192F 
152C:190F 64             DB     64 
152C:1910 65             DB     65 
152C:1911 7320           JNB    1933 
152C:1913 7375           JNB    198A 
152C:1915 67             DB     67 
152C:1916 67             DB     67 
152C:1917 65             DB     65 
152C:1918 7374           JNB    198E 
152C:191A 696F6E7320     IMUL   BP,[BX+6E],2073 
152C:191F 706F           JO     1990 
152C:1921 7572           JNZ    1995 
152C:1923 206365         AND    [BP+DI+65],AH 
152C:1926 207072         AND    [BX+SI+72],DH 
152C:1929 6F             OUTSW   
152C:192A 67             DB     67 
152C:192B 7261           JB     198E 
152C:192D 6D             INSW    
152C:192E 6D             INSW    
152C:192F 65             DB     65 
152C:1930 2C20           SUB    AL,20                         ;' ' 
152C:1932 2020           AND    [BX+SI],AH 
152C:1934 2020           AND    [BX+SI],AH 
152C:1936 20BA49BA       AND    [BP+SI+BA49],BH 
152C:193A 20766F         AND    [BP+6F],DH 
152C:193D 7573           JNZ    19B2 
152C:193F 20706F         AND    [BX+SI+6F],DH 
152C:1942 7576           JNZ    19BA 
152C:1944 65             DB     65 
152C:1945 7A20           JPE    1967 
152C:1947 82637269       AND    Byte Ptr [BP+DI+72],69        ;'i' 
152C:194B 7265           JB     19B2 
152C:194D 20853A20       AND    [DI+203A],AL 
152C:1951 2020           AND    [BX+SI],AH 
152C:1953 2020           AND    [BX+SI],AH 
152C:1955 2020           AND    [BX+SI],AH 
152C:1957 46             INC    SI 
152C:1958 61             POPA    
152C:1959 627269         BOUND  SI,[BP+SI+69] 
152C:195C 63             DB     63 
152C:195D 65             DB     65 
152C:195E 204245         AND    [BP+SI+45],AL 
152C:1961 4C             DEC    SP 
152C:1962 4C             DEC    SP 
152C:1963 41             INC    CX 
152C:1964 52             PUSH   DX 
152C:1965 44             INC    SP 
152C:1966 2020           AND    [BX+SI],AH 
152C:1968 2020           AND    [BX+SI],AH 
152C:196A 2020           AND    [BX+SI],AH 
152C:196C 2020           AND    [BX+SI],AH 
152C:196E 2020           AND    [BX+SI],AH 
152C:1970 2020           AND    [BX+SI],AH 
152C:1972 2020           AND    [BX+SI],AH 
152C:1974 2020           AND    [BX+SI],AH 
152C:1976 2020           AND    [BX+SI],AH 
152C:1978 2020           AND    [BX+SI],AH 
152C:197A 2020           AND    [BX+SI],AH 
152C:197C 2020           AND    [BX+SI],AH 
152C:197E 2020           AND    [BX+SI],AH 
152C:1980 20BA49BA       AND    [BP+SI+BA49],BH 
152C:1984 2020           AND    [BX+SI],AH 
152C:1986 2020           AND    [BX+SI],AH 
152C:1988 2020           AND    [BX+SI],AH 
152C:198A 2020           AND    [BX+SI],AH 
152C:198C 2020           AND    [BX+SI],AH 
152C:198E 2020           AND    [BX+SI],AH 
152C:1990 2020           AND    [BX+SI],AH 
152C:1992 2020           AND    [BX+SI],AH 
152C:1994 2020           AND    [BX+SI],AH 
152C:1996 2020           AND    [BX+SI],AH 
152C:1998 2020           AND    [BX+SI],AH 
152C:199A 2020           AND    [BX+SI],AH 
152C:199C 2020           AND    [BX+SI],AH 
152C:199E 3435           XOR    AL,35                         ;'5' 
152C:19A0 3120           XOR    [BX+SI],SP 
152C:19A2 63             DB     63 
152C:19A3 68656D         PUSH   6D65 
152C:19A6 696E206475     IMUL   BP,[BP+20],7564 
152C:19AB 206D61         AND    [DI+61],CH 
152C:19AE 7320           JNB    19D0 
152C:19B0 64             DB     64 
152C:19B1 65             DB     65 
152C:19B2 206D61         AND    [DI+61],CH 
152C:19B5 746F           JZ     1A26 
152C:19B7 7572           JNZ    1A2B 
152C:19B9 2020           AND    [BX+SI],AH 
152C:19BB 2020           AND    [BX+SI],AH 
152C:19BD 2020           AND    [BX+SI],AH 
152C:19BF 2020           AND    [BX+SI],AH 
152C:19C1 2020           AND    [BX+SI],AH 
152C:19C3 2020           AND    [BX+SI],AH 
152C:19C5 2020           AND    [BX+SI],AH 
152C:19C7 2020           AND    [BX+SI],AH 
152C:19C9 2020           AND    [BX+SI],AH 
152C:19CB BA49BA         MOV    DX,BA49 
152C:19CE 2020           AND    [BX+SI],AH 
152C:19D0 2020           AND    [BX+SI],AH 
152C:19D2 2020           AND    [BX+SI],AH 
152C:19D4 2020           AND    [BX+SI],AH 
152C:19D6 2020           AND    [BX+SI],AH 
152C:19D8 2020           AND    [BX+SI],AH 
152C:19DA 2020           AND    [BX+SI],AH 
152C:19DC 2020           AND    [BX+SI],AH 
152C:19DE 2020           AND    [BX+SI],AH 
152C:19E0 2020           AND    [BX+SI],AH 
152C:19E2 2020           AND    [BX+SI],AH 
152C:19E4 2020           AND    [BX+SI],AH 
152C:19E6 2020           AND    [BX+SI],AH 
152C:19E8 2020           AND    [BX+SI],AH 
152C:19EA 2020           AND    [BX+SI],AH 
152C:19EC 3334           XOR    SI,[SI] 
152C:19EE 37             AAA     
152C:19EF 3930           CMP    [BX+SI],SI 
152C:19F1 204752         AND    [BX+52],AL 
152C:19F4 41             INC    CX 
152C:19F5 42             INC    DX 
152C:19F6 45             INC    BP 
152C:19F7 4C             DEC    SP 
152C:19F8 53             PUSH   BX 
152C:19F9 2020           AND    [BX+SI],AH 
152C:19FB 2028           AND    [BX+SI],CH 
152C:19FD 46             INC    SI 
152C:19FE 52             PUSH   DX 
152C:19FF 41             INC    CX 
152C:1A00 4E             DEC    SI 
152C:1A01 43             INC    BX 
152C:1A02 45             INC    BP 
152C:1A03 2920           SUB    [BX+SI],SP 
152C:1A05 2020           AND    [BX+SI],AH 
152C:1A07 2020           AND    [BX+SI],AH 
152C:1A09 2020           AND    [BX+SI],AH 
152C:1A0B 2020           AND    [BX+SI],AH 
152C:1A0D 2020           AND    [BX+SI],AH 
152C:1A0F 2020           AND    [BX+SI],AH 
152C:1A11 2020           AND    [BX+SI],AH 
152C:1A13 2020           AND    [BX+SI],AH 
152C:1A15 BA49BA         MOV    DX,BA49 
152C:1A18 2020           AND    [BX+SI],AH 
152C:1A1A 2020           AND    [BX+SI],AH 
152C:1A1C 2020           AND    [BX+SI],AH 
152C:1A1E 2020           AND    [BX+SI],AH 
152C:1A20 2020           AND    [BX+SI],AH 
152C:1A22 2020           AND    [BX+SI],AH 
152C:1A24 2020           AND    [BX+SI],AH 
152C:1A26 2020           AND    [BX+SI],AH 
152C:1A28 2020           AND    [BX+SI],AH 
152C:1A2A 2020           AND    [BX+SI],AH 
152C:1A2C 2020           AND    [BX+SI],AH 
152C:1A2E 2020           AND    [BX+SI],AH 
152C:1A30 2020           AND    [BX+SI],AH 
152C:1A32 2020           AND    [BX+SI],AH 
152C:1A34 2020           AND    [BX+SI],AH 
152C:1A36 2020           AND    [BX+SI],AH 
152C:1A38 2020           AND    [BX+SI],AH 
152C:1A3A 2020           AND    [BX+SI],AH 
152C:1A3C 2020           AND    [BX+SI],AH 
152C:1A3E 2020           AND    [BX+SI],AH 
152C:1A40 2020           AND    [BX+SI],AH 
152C:1A42 2020           AND    [BX+SI],AH 
152C:1A44 2020           AND    [BX+SI],AH 
152C:1A46 2020           AND    [BX+SI],AH 
152C:1A48 2020           AND    [BX+SI],AH 
152C:1A4A 2020           AND    [BX+SI],AH 
152C:1A4C 2020           AND    [BX+SI],AH 
152C:1A4E 2020           AND    [BX+SI],AH 
152C:1A50 2020           AND    [BX+SI],AH 
152C:1A52 2020           AND    [BX+SI],AH 
152C:1A54 2020           AND    [BX+SI],AH 
152C:1A56 2020           AND    [BX+SI],AH 
152C:1A58 2020           AND    [BX+SI],AH 
152C:1A5A 2020           AND    [BX+SI],AH 
152C:1A5C 2020           AND    [BX+SI],AH 
152C:1A5E 20BA49BA       AND    [BP+SI+BA49],BH 
152C:1A62 206F75         AND    [BX+75],CH 
152C:1A65 20656E         AND    [DI+6E],AH 
152C:1A68 766F           JBE    1AD9 
152C:1A6A 7965           JNS    1AD1 
152C:1A6C 7220           JB     1A8E 
152C:1A6E 756E           JNZ    1ADE 
152C:1A70 206D65         AND    [DI+65],CH 
152C:1A73 7373           JNB    1AE8 
152C:1A75 61             POPA    
152C:1A76 67             DB     67 
152C:1A77 65             DB     65 
152C:1A78 20656E         AND    [DI+6E],AH 
152C:1A7B 204241         AND    [BP+SI+41],AL 
152C:1A7E 4C             DEC    SP 
152C:1A7F 207375         AND    [BP+DI+75],DH 
152C:1A82 7220           JB     1AA4 
152C:1A84 52             PUSH   DX 
152C:1A85 54             PUSH   SP 
152C:1A86 45             INC    BP 
152C:1A87 4C             DEC    SP 
152C:1A88 206F75         AND    [BX+75],CH 
152C:1A8B 205142         AND    [BX+DI+42],DL 
152C:1A8E 53             PUSH   BX 
152C:1A8F 53             PUSH   BX 
152C:1A90 206175         AND    [BX+DI+75],AH 
152C:1A93 207073         AND    [BX+SI+73],DH 
152C:1A96 65             DB     65 
152C:1A97 7564           JNZ    1AFD 
152C:1A99 6F             OUTSW   
152C:1A9A 3A20           CMP    AH,[BX+SI] 
152C:1A9C 46             INC    SI 
152C:1A9D 41             INC    CX 
152C:1A9E 42             INC    DX 
152C:1A9F 2020           AND    [BX+SI],AH 
152C:1AA1 2020           AND    [BX+SI],AH 
152C:1AA3 2020           AND    [BX+SI],AH 
152C:1AA5 2020           AND    [BX+SI],AH 
152C:1AA7 2020           AND    [BX+SI],AH 
152C:1AA9 BA49C8         MOV    DX,C849 
152C:1AAC CDCD           INT    CD 
152C:1AAE CDCD           INT    CD 
152C:1AB0 CDCD           INT    CD 
152C:1AB2 CDCD           INT    CD 
152C:1AB4 CDCD           INT    CD 
152C:1AB6 CDCD           INT    CD 
152C:1AB8 CDCD           INT    CD 
152C:1ABA CDCD           INT    CD 
152C:1ABC CDCD           INT    CD 
152C:1ABE CDCD           INT    CD 
152C:1AC0 CDCD           INT    CD 
152C:1AC2 CDCD           INT    CD 
152C:1AC4 CDCD           INT    CD 
152C:1AC6 CDCD           INT    CD 
152C:1AC8 CDCD           INT    CD 
152C:1ACA CDCD           INT    CD 
152C:1ACC CDCD           INT    CD 
152C:1ACE CDCD           INT    CD 
152C:1AD0 CDCD           INT    CD 
152C:1AD2 CDCD           INT    CD 
152C:1AD4 CDCD           INT    CD 
152C:1AD6 CDCD           INT    CD 
152C:1AD8 CDCD           INT    CD 
152C:1ADA CDCD           INT    CD 
152C:1ADC CDCD           INT    CD 
152C:1ADE CDCD           INT    CD 
152C:1AE0 CDCD           INT    CD 
152C:1AE2 CDCD           INT    CD 
152C:1AE4 CDCD           INT    CD 
152C:1AE6 CDCD           INT    CD 
152C:1AE8 CDCD           INT    CD 
152C:1AEA CDCD           INT    CD 
152C:1AEC CDCD           INT    CD 
152C:1AEE CDCD           INT    CD 
152C:1AF0 CDCD           INT    CD 
152C:1AF2 CDBC           INT    BC 
152C:1AF4 55             PUSH   BP 
152C:1AF5 89E5           MOV    BP,SP 
152C:1AF7 BF36C6         MOV    DI,C636 
152C:1AFA 1E             PUSH   DS 
152C:1AFB 57             PUSH   DI 
152C:1AFC 9AA0120B18     CALL   180B:12A0 
152C:1B01 9A0E020B18     CALL   180B:020E 
152C:1B06 BF36C6         MOV    DI,C636 
152C:1B09 1E             PUSH   DS 
152C:1B0A 57             PUSH   DI 
152C:1B0B BF0000         MOV    DI,0000 
152C:1B0E 0E             PUSH   CS 
152C:1B0F 57             PUSH   DI 
152C:1B10 31C0           XOR    AX,AX 
152C:1B12 50             PUSH   AX 
152C:1B13 9A68130B18     CALL   180B:1368 
152C:1B18 9AA0120B18     CALL   180B:12A0 
152C:1B1D 9A0E020B18     CALL   180B:020E 
152C:1B22 BF36C6         MOV    DI,C636 
152C:1B25 1E             PUSH   DS 
152C:1B26 57             PUSH   DI 
152C:1B27 BF4A00         MOV    DI,004A 
152C:1B2A 0E             PUSH   CS 
152C:1B2B 57             PUSH   DI 
152C:1B2C 31C0           XOR    AX,AX 
152C:1B2E 50             PUSH   AX 
152C:1B2F 9A68130B18     CALL   180B:1368 
152C:1B34 9AA0120B18     CALL   180B:12A0 
152C:1B39 9A0E020B18     CALL   180B:020E 
152C:1B3E BF36C6         MOV    DI,C636 
152C:1B41 1E             PUSH   DS 
152C:1B42 57             PUSH   DI 
152C:1B43 BF9400         MOV    DI,0094 
152C:1B46 0E             PUSH   CS 
152C:1B47 57             PUSH   DI 
152C:1B48 31C0           XOR    AX,AX 
152C:1B4A 50             PUSH   AX 
152C:1B4B 9A68130B18     CALL   180B:1368 
152C:1B50 9AA0120B18     CALL   180B:12A0 
152C:1B55 9A0E020B18     CALL   180B:020E 
152C:1B5A BF36C6         MOV    DI,C636 
152C:1B5D 1E             PUSH   DS 
152C:1B5E 57             PUSH   DI 
152C:1B5F BFDE00         MOV    DI,00DE 
152C:1B62 0E             PUSH   CS 
152C:1B63 57             PUSH   DI 
152C:1B64 31C0           XOR    AX,AX 
152C:1B66 50             PUSH   AX 
152C:1B67 9A68130B18     CALL   180B:1368 
152C:1B6C 9AA0120B18     CALL   180B:12A0 
152C:1B71 9A0E020B18     CALL   180B:020E 
152C:1B76 BF36C6         MOV    DI,C636 
152C:1B79 1E             PUSH   DS 
152C:1B7A 57             PUSH   DI 
152C:1B7B BF2801         MOV    DI,0128 
152C:1B7E 0E             PUSH   CS 
152C:1B7F 57             PUSH   DI 
152C:1B80 31C0           XOR    AX,AX 
152C:1B82 50             PUSH   AX 
152C:1B83 9A68130B18     CALL   180B:1368 
152C:1B88 9AA0120B18     CALL   180B:12A0 
152C:1B8D 9A0E020B18     CALL   180B:020E 
152C:1B92 BF36C6         MOV    DI,C636 
152C:1B95 1E             PUSH   DS 
152C:1B96 57             PUSH   DI 
152C:1B97 BF7201         MOV    DI,0172 
152C:1B9A 0E             PUSH   CS 
152C:1B9B 57             PUSH   DI 
152C:1B9C 31C0           XOR    AX,AX 
152C:1B9E 50             PUSH   AX 
152C:1B9F 9A68130B18     CALL   180B:1368 
152C:1BA4 9AA0120B18     CALL   180B:12A0 
152C:1BA9 9A0E020B18     CALL   180B:020E 
152C:1BAE BF36C6         MOV    DI,C636 
152C:1BB1 1E             PUSH   DS 
152C:1BB2 57             PUSH   DI 
152C:1BB3 BFBC01         MOV    DI,01BC 
152C:1BB6 0E             PUSH   CS 
152C:1BB7 57             PUSH   DI 
152C:1BB8 31C0           XOR    AX,AX 
152C:1BBA 50             PUSH   AX 
152C:1BBB 9A68130B18     CALL   180B:1368 
152C:1BC0 9AA0120B18     CALL   180B:12A0 
152C:1BC5 9A0E020B18     CALL   180B:020E 
152C:1BCA BF36C6         MOV    DI,C636 
152C:1BCD 1E             PUSH   DS 
152C:1BCE 57             PUSH   DI 
152C:1BCF BF0602         MOV    DI,0206 
152C:1BD2 0E             PUSH   CS 
152C:1BD3 57             PUSH   DI 
152C:1BD4 31C0           XOR    AX,AX 
152C:1BD6 50             PUSH   AX 
152C:1BD7 9A68130B18     CALL   180B:1368 
152C:1BDC 9AA0120B18     CALL   180B:12A0 
152C:1BE1 9A0E020B18     CALL   180B:020E 
152C:1BE6 BF36C6         MOV    DI,C636 
152C:1BE9 1E             PUSH   DS 
152C:1BEA 57             PUSH   DI 
152C:1BEB BF5002         MOV    DI,0250 
152C:1BEE 0E             PUSH   CS 
152C:1BEF 57             PUSH   DI 
152C:1BF0 31C0           XOR    AX,AX 
152C:1BF2 50             PUSH   AX 
152C:1BF3 9A68130B18     CALL   180B:1368 
152C:1BF8 9AA0120B18     CALL   180B:12A0 
152C:1BFD 9A0E020B18     CALL   180B:020E 
152C:1C02 BF36C6         MOV    DI,C636 
152C:1C05 1E             PUSH   DS 
152C:1C06 57             PUSH   DI 
152C:1C07 BF9A02         MOV    DI,029A 
152C:1C0A 0E             PUSH   CS 
152C:1C0B 57             PUSH   DI 
152C:1C0C 31C0           XOR    AX,AX 
152C:1C0E 50             PUSH   AX 
152C:1C0F 9A68130B18     CALL   180B:1368 
152C:1C14 9AA0120B18     CALL   180B:12A0 
152C:1C19 9A0E020B18     CALL   180B:020E 
152C:1C1E 89EC           MOV    SP,BP 
152C:1C20 5D             POP    BP 
152C:1C21 CB             RETF    
152C:1C22 0000           ADD    [BX+SI],AL 
152C:1C24 0000           ADD    [BX+SI],AL 
152C:1C26 0000           ADD    [BX+SI],AL 
152C:1C28 0000           ADD    [BX+SI],AL 
152C:1C2A 0000           ADD    [BX+SI],AL 
152C:1C2C 0000           ADD    [BX+SI],AL 
152C:1C2E 0000           ADD    [BX+SI],AL 
152C:1C30 55             PUSH   BP 
152C:1C31 89E5           MOV    BP,SP 
152C:1C33 FE066C03       INC    Byte Ptr [036C] 
152C:1C37 A06C03         MOV    AL,[036C] 
152C:1C3A 3A06EC02       CMP    AL,[02EC] 
152C:1C3E 7710           JA     1C50 
152C:1C40 A06C03         MOV    AL,[036C] 
152C:1C43 30E4           XOR    AH,AH 
152C:1C45 8BF8           MOV    DI,AX 
152C:1C47 8A85EC02       MOV    AL,[DI+02EC] 
152C:1C4B A26D03         MOV    [036D],AL 
152C:1C4E EB05           JMP    1C55 
152C:1C50 C6066D030D     MOV    Byte Ptr [036D],0D 
152C:1C55 89EC           MOV    SP,BP 
152C:1C57 5D             POP    BP 
152C:1C58 CB             RETF    
152C:1C59 55             PUSH   BP 
152C:1C5A 89E5           MOV    BP,SP 
152C:1C5C 803E6D0320     CMP    Byte Ptr [036D],20            ;' ' 
152C:1C61 7407           JZ     1C6A 
152C:1C63 803E6D0309     CMP    Byte Ptr [036D],09 
152C:1C68 7506           JNZ    1C70 
152C:1C6A 0E             PUSH   CS 
152C:1C6B E8C2FF         CALL   1C30 
152C:1C6E EBEC           JMP    1C5C 
152C:1C70 89EC           MOV    SP,BP 
152C:1C72 5D             POP    BP 
152C:1C73 CB             RETF    
152C:1C74 55             PUSH   BP 
152C:1C75 89E5           MOV    BP,SP 
152C:1C77 81EC0003       SUB    SP,0300 
152C:1C7B 0E             PUSH   CS 
152C:1C7C E8DAFF         CALL   1C59 
152C:1C7F C68600FF00     MOV    Byte Ptr [BP+FF00],00 
152C:1C84 803E6D0320     CMP    Byte Ptr [036D],20            ;' ' 
152C:1C89 744E           JZ     1CD9 
152C:1C8B 803E6D0309     CMP    Byte Ptr [036D],09 
152C:1C90 7447           JZ     1CD9 
152C:1C92 803E6D030D     CMP    Byte Ptr [036D],0D 
152C:1C97 7440           JZ     1CD9 
152C:1C99 8DBE00FD       LEA    DI,[BP+FD00] 
152C:1C9D 16             PUSH   SS 
152C:1C9E 57             PUSH   DI 
152C:1C9F 8DBE00FF       LEA    DI,[BP+FF00] 
152C:1CA3 16             PUSH   SS 
152C:1CA4 57             PUSH   DI 
152C:1CA5 9A1C060B18     CALL   180B:061C 
152C:1CAA 8DBE00FE       LEA    DI,[BP+FE00] 
152C:1CAE 16             PUSH   SS 
152C:1CAF 57             PUSH   DI 
152C:1CB0 A06D03         MOV    AL,[036D] 
152C:1CB3 50             PUSH   AX 
152C:1CB4 9AA5170B18     CALL   180B:17A5 
152C:1CB9 50             PUSH   AX 
152C:1CBA 9A37070B18     CALL   180B:0737 
152C:1CBF 9AA9060B18     CALL   180B:06A9 
152C:1CC4 8DBE00FF       LEA    DI,[BP+FF00] 
152C:1CC8 16             PUSH   SS 
152C:1CC9 57             PUSH   DI 
152C:1CCA B8FF00         MOV    AX,00FF 
152C:1CCD 50             PUSH   AX 
152C:1CCE 9A36060B18     CALL   180B:0636 
152C:1CD3 0E             PUSH   CS 
152C:1CD4 E859FF         CALL   1C30 
152C:1CD7 EBAB           JMP    1C84 
152C:1CD9 8DBE00FF       LEA    DI,[BP+FF00] 
152C:1CDD 16             PUSH   SS 
152C:1CDE 57             PUSH   DI 
152C:1CDF C47E06         LES    DI,[BP+06] 
152C:1CE2 06             PUSH   ES 
152C:1CE3 57             PUSH   DI 
152C:1CE4 B8FF00         MOV    AX,00FF 
152C:1CE7 50             PUSH   AX 
152C:1CE8 9A36060B18     CALL   180B:0636 
152C:1CED 89EC           MOV    SP,BP 
152C:1CEF 5D             POP    BP 
152C:1CF0 CB             RETF    
152C:1CF1 124669         ADC    AL,[BP+69] 
152C:1CF4 63             DB     63 
152C:1CF5 686965         PUSH   6569 
152C:1CF8 7220           JB     1D1A 
152C:1CFA 6E             OUTSB   
152C:1CFB 6F             OUTSW   
152C:1CFC 6E             OUTSB   
152C:1CFD 207472         AND    [SI+72],DH 
152C:1D00 6F             OUTSW   
152C:1D01 7576           JNZ    1D79 
152C:1D03 821A43         SBB    Byte Ptr [BP+SI],43           ;'C' 
152C:1D06 68656D         PUSH   6D65 
152C:1D09 696E206427     IMUL   BP,[BP+20],2764 
152C:1D0E 61             POPA    
152C:1D0F 63             DB     63 
152C:1D10 63             DB     63 
152C:1D11 8A7320         MOV    DH,[BP+DI+20] 
152C:1D14 696E74726F     IMUL   BP,[BP+74],6F72 
152C:1D19 7576           JNZ    1D91 
152C:1D1B 61             POPA    
152C:1D1C 626C65         BOUND  BP,[SI+65] 
152C:1D1F 185472         SBB    [SI+72],DL 
152C:1D22 6F             OUTSW   
152C:1D23 7020           JO     1D45 
152C:1D25 64             DB     64 
152C:1D26 65             DB     65 
152C:1D27 206669         AND    [BP+69],AH 
152C:1D2A 63             DB     63 
152C:1D2B 686965         PUSH   6569 
152C:1D2E 7273           JB     1DA3 
152C:1D30 206F75         AND    [BX+75],CH 
152C:1D33 7665           JBE    1D9A 
152C:1D35 7274           JB     1DAB 
152C:1D37 7319           JNB    1D52 
152C:1D39 41             INC    CX 
152C:1D3A 63             DB     63 
152C:1D3B 63             DB     63 
152C:1D3C 8A7320         MOV    DH,[BP+DI+20] 
152C:1D3F 61             POPA    
152C:1D40 7520           JNZ    1D62 
152C:1D42 66             DB     66 
152C:1D43 6963686965     IMUL   SP,[BP+DI+68],6569 
152C:1D48 7220           JB     1D6A 
152C:1D4A 696E746572     IMUL   BP,[BP+74],7265 
152C:1D4F 64             DB     64 
152C:1D50 6974224964     IMUL   SI,[SI+22],6449 
152C:1D55 65             DB     65 
152C:1D56 6E             OUTSB   
152C:1D57 7469           JZ     1DC2 
152C:1D59 66             DB     66 
152C:1D5A 6963617465     IMUL   SP,[BP+DI+61],6574 
152C:1D5F 7572           JNZ    1DD3 
152C:1D61 206465         AND    [SI+65],AH 
152C:1D64 206669         AND    [BP+69],AH 
152C:1D67 63             DB     63 
152C:1D68 686965         PUSH   6569 
152C:1D6B 7220           JB     1D8D 
152C:1D6D 696E76616C     IMUL   BP,[BP+76],6C61 
152C:1D72 696465144D     IMUL   SP,[SI+65],4D14 
152C:1D77 826D6F69       SUB    Byte Ptr [DI+6F],69           ;'i' 
152C:1D7B 7265           JB     1DE2 
152C:1D7D 20696E         AND    [BX+DI+6E],CH 
152C:1D80 7375           JNB    1DF7 
152C:1D82 66             DB     66 
152C:1D83 66             DB     66 
152C:1D84 6973616E74     IMUL   SI,[BP+DI+61],746E 
152C:1D89 65             DB     65 
152C:1D8A 16             PUSH   SS 
152C:1D8B 45             INC    BP 
152C:1D8C 6E             OUTSB   
152C:1D8D 7669           JBE    1DF8 
152C:1D8F 726F           JB     1E00 
152C:1D91 6E             OUTSB   
152C:1D92 6E             OUTSB   
152C:1D93 65             DB     65 
152C:1D94 6D             INSW    
152C:1D95 65             DB     65 
152C:1D96 6E             OUTSB   
152C:1D97 7420           JZ     1DB9 
152C:1D99 696E76616C     IMUL   BP,[BP+76],6C61 
152C:1D9E 6964650F46     IMUL   SP,[SI+65],460F 
152C:1DA3 6F             OUTSW   
152C:1DA4 726D           JB     1E13 
152C:1DA6 61             POPA    
152C:1DA7 7420           JZ     1DC9 
152C:1DA9 696E76616C     IMUL   BP,[BP+76],6C61 
152C:1DAE 6964651543     IMUL   SP,[SI+65],4315 
152C:1DB3 6F             OUTSW   
152C:1DB4 64             DB     64 
152C:1DB5 65             DB     65 
152C:1DB6 206427         AND    [SI+27],AH 
152C:1DB9 61             POPA    
152C:1DBA 63             DB     63 
152C:1DBB 63             DB     63 
152C:1DBC 8A7320         MOV    DH,[BP+DI+20] 
152C:1DBF 696E76616C     IMUL   BP,[BP+76],6C61 
152C:1DC4 6964651B4C     IMUL   SP,[SI+65],4C1B 
152C:1DC9 65             DB     65 
152C:1DCA 63             DB     63 
152C:1DCB 7465           JZ     1E32 
152C:1DCD 7572           JNZ    1E41 
152C:1DCF 206465         AND    [SI+65],AH 
152C:1DD2 206469         AND    [SI+69],AH 
152C:1DD5 7371           JNB    1E48 
152C:1DD7 7565           JNZ    1E3E 
152C:1DD9 20696E         AND    [BX+DI+6E],CH 
152C:1DDC 63             DB     63 
152C:1DDD 6F             OUTSW   
152C:1DDE 7272           JB     1E52 
152C:1DE0 65             DB     65 
152C:1DE1 63             DB     63 
152C:1DE2 7427           JZ     1E0B 
152C:1DE4 4E             DEC    SI 
152C:1DE5 65             DB     65 
152C:1DE6 207065         AND    [BX+SI+65],DH 
152C:1DE9 7574           JNZ    1E5F 
152C:1DEB 207375         AND    [BP+DI+75],DH 
152C:1DEE 7070           JO     1E60 
152C:1DF0 7269           JB     1E5B 
152C:1DF2 6D             INSW    
152C:1DF3 65             DB     65 
152C:1DF4 7220           JB     1E16 
152C:1DF6 6C             INSB    
152C:1DF7 65             DB     65 
152C:1DF8 207282         AND    [BP+SI-7E],DH 
152C:1DFB 7065           JO     1E62 
152C:1DFD 7274           JB     1E73 
152C:1DFF 6F             OUTSW   
152C:1E00 6972652063     IMUL   SI,[BP+SI+65],6320 
152C:1E05 6F             OUTSW   
152C:1E06 7572           JNZ    1E7A 
152C:1E08 61             POPA    
152C:1E09 6E             OUTSB   
152C:1E0A 7423           JZ     1E2F 
152C:1E0C 4E             DEC    SI 
152C:1E0D 65             DB     65 
152C:1E0E 207065         AND    [BX+SI+65],DH 
152C:1E11 7574           JNZ    1E87 
152C:1E13 207265         AND    [BP+SI+65],DH 
152C:1E16 6E             OUTSB   
152C:1E17 6F             OUTSW   
152C:1E18 6D             INSW    
152C:1E19 6D             INSW    
152C:1E1A 65             DB     65 
152C:1E1B 7220           JB     1E3D 
152C:1E1D 64             DB     64 
152C:1E1E 65             DB     65 
152C:1E1F 206469         AND    [SI+69],AH 
152C:1E22 7371           JNB    1E95 
152C:1E24 7565           JNZ    1E8B 
152C:1E26 20852064       AND    [DI+6420],AL 
152C:1E2A 6973717565     IMUL   SI,[BP+DI+71],6575 
152C:1E2F 0F50           CTS    50 
152C:1E31 6C             INSB    
152C:1E32 7573           JNZ    1EA7 
152C:1E34 206465         AND    [SI+65],AH 
152C:1E37 206669         AND    [BP+69],AH 
152C:1E3A 63             DB     63 
152C:1E3B 686965         PUSH   6569 
152C:1E3E 7211           JB     1E51 
152C:1E40 45             INC    BP 
152C:1E41 7272           JB     1EB5 
152C:1E43 65             DB     65 
152C:1E44 7572           JNZ    1EB8 
152C:1E46 20656E         AND    [DI+6E],AH 
152C:1E49 206C65         AND    [SI+65],CH 
152C:1E4C 63             DB     63 
152C:1E4D 7475           JZ     1EC4 
152C:1E4F 7265           JB     1EB6 
152C:1E51 124572         ADC    AL,[DI+72] 
152C:1E54 7265           JB     1EBB 
152C:1E56 7572           JNZ    1ECA 
152C:1E58 20656E         AND    [DI+6E],AH 
152C:1E5B 20826372       AND    [BP+SI+7263],AL 
152C:1E5F 6974757265     IMUL   SI,[SI+75],6572 
152C:1E64 1D5661         SBB    AX,6156 
152C:1E67 7269           JB     1ED2 
152C:1E69 61             POPA    
152C:1E6A 626C65         BOUND  BP,[SI+65] 
152C:1E6D 206669         AND    [BP+69],AH 
152C:1E70 63             DB     63 
152C:1E71 686965         PUSH   6569 
152C:1E74 7220           JB     1E96 
152C:1E76 6E             OUTSB   
152C:1E77 6F             OUTSW   
152C:1E78 6E             OUTSB   
152C:1E79 206166         AND    [BX+DI+66],AH 
152C:1E7C 66             DB     66 
152C:1E7D 65             DB     65 
152C:1E7E 63             DB     63 
152C:1E7F 7482           JZ     1E03 
152C:1E81 65             DB     65 
152C:1E82 124669         ADC    AL,[BP+69] 
152C:1E85 63             DB     63 
152C:1E86 686965         PUSH   6569 
152C:1E89 7220           JB     1EAB 
152C:1E8B 6E             OUTSB   
152C:1E8C 6F             OUTSW   
152C:1E8D 6E             OUTSB   
152C:1E8E 206F75         AND    [BX+75],CH 
152C:1E91 7665           JBE    1EF8 
152C:1E93 7274           JB     1F09 
152C:1E95 1D4669         SBB    AX,6946 
152C:1E98 63             DB     63 
152C:1E99 686965         PUSH   6569 
152C:1E9C 7220           JB     1EBE 
152C:1E9E 6E             OUTSB   
152C:1E9F 6F             OUTSW   
152C:1EA0 6E             OUTSB   
152C:1EA1 206F75         AND    [BX+75],CH 
152C:1EA4 7665           JBE    1F0B 
152C:1EA6 7274           JB     1F1C 
152C:1EA8 20656E         AND    [DI+6E],AH 
152C:1EAB 206C65         AND    [SI+65],CH 
152C:1EAE 63             DB     63 
152C:1EAF 7475           JZ     1F26 
152C:1EB1 7265           JB     1F18 
152C:1EB3 1E             PUSH   DS 
152C:1EB4 46             INC    SI 
152C:1EB5 6963686965     IMUL   SP,[BP+DI+68],6569 
152C:1EBA 7220           JB     1EDC 
152C:1EBC 6E             OUTSB   
152C:1EBD 6F             OUTSW   
152C:1EBE 6E             OUTSB   
152C:1EBF 206F75         AND    [BX+75],CH 
152C:1EC2 7665           JBE    1F29 
152C:1EC4 7274           JB     1F3A 
152C:1EC6 20656E         AND    [DI+6E],AH 
152C:1EC9 20826372       AND    [BP+SI+7263],AL 
152C:1ECD 6974757265     IMUL   SI,[SI+75],6572 
152C:1ED2 19466F         SBB    [BP+6F],AX 
152C:1ED5 726D           JB     1F44 
152C:1ED7 61             POPA    
152C:1ED8 7420           JZ     1EFA 
152C:1EDA 6E             OUTSB   
152C:1EDB 756D           JNZ    1F4A 
152C:1EDD 82726971       XOR    Byte Ptr [BP+SI+69],71        ;'q' 
152C:1EE1 7565           JNZ    1F48 
152C:1EE3 20696E         AND    [BX+DI+6E],CH 
152C:1EE6 7661           JBE    1F49 
152C:1EE8 6C             INSB    
152C:1EE9 6964651A44     IMUL   SP,[SI+65],441A 
152C:1EEE 6973717565     IMUL   SI,[BP+DI+71],6575 
152C:1EF3 207072         AND    [BX+SI+72],DH 
152C:1EF6 6F             OUTSW   
152C:1EF7 7482           JZ     1E7B 
152C:1EF9 67             DB     67 
152C:1EFA 822065         AND    Byte Ptr [BX+SI],65           ;'e' 
152C:1EFD 6E             OUTSB   
152C:1EFE 20826372       AND    [BP+SI+7263],AL 
152C:1F02 6974757265     IMUL   SI,[SI+75],6572 
152C:1F07 19556E         SBB    [DI+6E],DX 
152C:1F0A 6974822064     IMUL   SI,[SI-7E],6420 
152C:1F0F 65             DB     65 
152C:1F10 206469         AND    [SI+69],AH 
152C:1F13 7371           JNB    1F86 
152C:1F15 7565           JNZ    1F7C 
152C:1F17 206E6F         AND    [BP+6F],CH 
152C:1F1A 6E             OUTSB   
152C:1F1B 207072         AND    [BX+SI+72],DH 
152C:1F1E 887465         MOV    [SI+65],DH 
152C:1F21 11436F         ADC    [BP+DI+6F],AX 
152C:1F24 6D             INSW    
152C:1F25 6D             INSW    
152C:1F26 61             POPA    
152C:1F27 6E             OUTSB   
152C:1F28 64             DB     64 
152C:1F29 65             DB     65 
152C:1F2A 20696E         AND    [BX+DI+6E],CH 
152C:1F2D 63             DB     63 
152C:1F2E 6F             OUTSW   
152C:1F2F 6E             OUTSB   
152C:1F30 6E             OUTSB   
152C:1F31 7565           JNZ    1F98 
152C:1F33 18446F         SBB    [SI+6F],AL 
152C:1F36 6E             OUTSB   
152C:1F37 6E             OUTSB   
152C:1F38 82657320       AND    Byte Ptr [DI+73],20           ;' ' 
152C:1F3C 6C             INSB    
152C:1F3D 7565           JNZ    1FA4 
152C:1F3F 7320           JNB    1F61 
152C:1F41 696E636F72     IMUL   BP,[BP+63],726F 
152C:1F46 7265           JB     1FAD 
152C:1F48 63             DB     63 
152C:1F49 7465           JZ     1FB0 
152C:1F4B 7321           JNB    1F6E 
152C:1F4D 54             PUSH   SP 
152C:1F4E 61             POPA    
152C:1F4F 696C6C6520     IMUL   BP,[SI+6C],2065 
152C:1F54 64             DB     64 
152C:1F55 65             DB     65 
152C:1F56 206C61         AND    [SI+61],CH 
152C:1F59 207374         AND    [BP+DI+74],DH 
152C:1F5C 7275           JB     1FD3 
152C:1F5E 63             DB     63 
152C:1F5F 7475           JZ     1FD6 
152C:1F61 7265           JB     1FC8 
152C:1F63 20696E         AND    [BX+DI+6E],CH 
152C:1F66 63             DB     63 
152C:1F67 6F             OUTSW   
152C:1F68 7272           JB     1FDC 
152C:1F6A 65             DB     65 
152C:1F6B 63             DB     63 
152C:1F6C 7465           JZ     1FD3 
152C:1F6E 205488         AND    [SI-78],DL 
152C:1F71 7465           JZ     1FD8 
152C:1F73 7320           JNB    1F95 
152C:1F75 64             DB     64 
152C:1F76 7520           JNZ    1F98 
152C:1F78 64             DB     64 
152C:1F79 6973717565     IMUL   SI,[BP+DI+71],6575 
152C:1F7E 206D61         AND    [DI+61],CH 
152C:1F81 6C             INSB    
152C:1F82 20706F         AND    [BX+SI+6F],DH 
152C:1F85 7369           JNB    1FF0 
152C:1F87 7469           JZ     1FF2 
152C:1F89 6F             OUTSW   
152C:1F8A 6E             OUTSB   
152C:1F8B 6E             OUTSB   
152C:1F8C 8265731A       AND    Byte Ptr [DI+73],1A 
152C:1F90 53             PUSH   BX 
152C:1F91 7570           JNZ    2003 
152C:1F93 706F           JO     2004 
152C:1F95 7274           JB     200B 
152C:1F97 206D61         AND    [DI+61],CH 
152C:1F9A 67             DB     67 
152C:1F9B 6E             OUTSB   
152C:1F9C 82746971       XOR    Byte Ptr [SI+69],71           ;'q' 
152C:1FA0 7565           JNZ    2007 
152C:1FA2 20696E         AND    [BX+DI+6E],CH 
152C:1FA5 63             DB     63 
152C:1FA6 6F             OUTSW   
152C:1FA7 6E             OUTSB   
152C:1FA8 6E             OUTSB   
152C:1FA9 7512           JNZ    1FBD 
152C:1FAB 53             PUSH   BX 
152C:1FAC 65             DB     65 
152C:1FAD 63             DB     63 
152C:1FAE 7465           JZ     2015 
152C:1FB0 7572           JNZ    2024 
152C:1FB2 206E6F         AND    [BP+6F],CH 
152C:1FB5 6E             OUTSB   
152C:1FB6 207472         AND    [SI+72],DH 
152C:1FB9 6F             OUTSW   
152C:1FBA 7576           JNZ    2032 
152C:1FBC 821A44         SBB    Byte Ptr [BP+SI],44           ;'D' 
152C:1FBF 82746563       XOR    Byte Ptr [SI+65],63           ;'c' 
152C:1FC3 7469           JZ     202E 
152C:1FC5 6F             OUTSW   
152C:1FC6 6E             OUTSB   
152C:1FC7 206465         AND    [SI+65],AH 
152C:1FCA 206669         AND    [BP+69],AH 
152C:1FCD 6E             OUTSB   
152C:1FCE 206465         AND    [SI+65],AH 
152C:1FD1 207061         AND    [BX+SI+61],DH 
152C:1FD4 7069           JO     203F 
152C:1FD6 65             DB     65 
152C:1FD7 7222           JB     1FFB 
152C:1FD9 45             INC    BP 
152C:1FDA 7272           JB     204E 
152C:1FDC 65             DB     65 
152C:1FDD 7572           JNZ    2051 
152C:1FDF 206427         AND    [SI+27],AH 
152C:1FE2 82637269       AND    Byte Ptr [BP+DI+72],69        ;'i' 
152C:1FE6 7475           JZ     205D 
152C:1FE8 7265           JB     204F 
152C:1FEA 207375         AND    [BP+DI+75],DH 
152C:1FED 7220           JB     200F 
152C:1FEF 7082           JO     1F73 
152C:1FF1 7269           JB     205C 
152C:1FF3 7068           JO     205D 
152C:1FF5 82726971       XOR    Byte Ptr [BP+SI+69],71        ;'q' 
152C:1FF9 7565           JNZ    2060 
152C:1FFB 224572         AND    AL,[DI+72] 
152C:1FFE 7265           JB     2065 
152C:2000 7572           JNZ    2074 
152C:2002 206465         AND    [SI+65],AH 
152C:2005 206C65         AND    [SI+65],CH 
152C:2008 63             DB     63 
152C:2009 7475           JZ     2080 
152C:200B 7265           JB     2072 
152C:200D 207375         AND    [BP+DI+75],DH 
152C:2010 7220           JB     2032 
152C:2012 7082           JO     1F96 
152C:2014 7269           JB     207F 
152C:2016 7068           JO     2080 
152C:2018 82726971       XOR    Byte Ptr [BP+SI+69],71        ;'q' 
152C:201C 7565           JNZ    2083 
152C:201E 17             POP    SS 
152C:201F 45             INC    BP 
152C:2020 7272           JB     2094 
152C:2022 65             DB     65 
152C:2023 7572           JNZ    2097 
152C:2025 206C69         AND    [SI+69],CH 
152C:2028 82652061       AND    Byte Ptr [DI+20],61           ;'a' 
152C:202C 7520           JNZ    204E 
152C:202E 6D             INSW    
152C:202F 61             POPA    
152C:2030 7482           JZ     1FB4 
152C:2032 7269           JB     209D 
152C:2034 65             DB     65 
152C:2035 6C             INSB    
152C:2036 0F45           CTS    45 
152C:2038 7272           JB     20AC 
152C:203A 65             DB     65 
152C:203B 7572           JNZ    20AF 
152C:203D 20696E         AND    [BX+DI+6E],CH 
152C:2040 63             DB     63 
152C:2041 6F             OUTSW   
152C:2042 6E             OUTSB   
152C:2043 6E             OUTSB   
152C:2044 7565           JNZ    20AB 
152C:2046 55             PUSH   BP 
152C:2047 89E5           MOV    BP,SP 
152C:2049 8B4606         MOV    AX,[BP+06] 
152C:204C 3D0200         CMP    AX,0002 
152C:204F 7516           JNZ    2067 
152C:2051 BFC100         MOV    DI,00C1 
152C:2054 0E             PUSH   CS 
152C:2055 57             PUSH   DI 
152C:2056 C47E08         LES    DI,[BP+08] 
152C:2059 06             PUSH   ES 
152C:205A 57             PUSH   DI 
152C:205B B8FF00         MOV    AX,00FF 
152C:205E 50             PUSH   AX 
152C:205F 9A36060B18     CALL   180B:0636 
152C:2064 E95803         JMP    23BF 
152C:2067 3D0300         CMP    AX,0003 
152C:206A 7516           JNZ    2082 
152C:206C BFD400         MOV    DI,00D4 
152C:206F 0E             PUSH   CS 
152C:2070 57             PUSH   DI 
152C:2071 C47E08         LES    DI,[BP+08] 
152C:2074 06             PUSH   ES 
152C:2075 57             PUSH   DI 
152C:2076 B8FF00         MOV    AX,00FF 
152C:2079 50             PUSH   AX 
152C:207A 9A36060B18     CALL   180B:0636 
152C:207F E93D03         JMP    23BF 
152C:2082 3D0400         CMP    AX,0004 
152C:2085 7516           JNZ    209D 
152C:2087 BFEF00         MOV    DI,00EF 
152C:208A 0E             PUSH   CS 
152C:208B 57             PUSH   DI 
152C:208C C47E08         LES    DI,[BP+08] 
152C:208F 06             PUSH   ES 
152C:2090 57             PUSH   DI 
152C:2091 B8FF00         MOV    AX,00FF 
152C:2094 50             PUSH   AX 
152C:2095 9A36060B18     CALL   180B:0636 
152C:209A E92203         JMP    23BF 
152C:209D 3D0500         CMP    AX,0005 
152C:20A0 7516           JNZ    20B8 
152C:20A2 BF0801         MOV    DI,0108 
152C:20A5 0E             PUSH   CS 
152C:20A6 57             PUSH   DI 
152C:20A7 C47E08         LES    DI,[BP+08] 
152C:20AA 06             PUSH   ES 
152C:20AB 57             PUSH   DI 
152C:20AC B8FF00         MOV    AX,00FF 
152C:20AF 50             PUSH   AX 
152C:20B0 9A36060B18     CALL   180B:0636 
152C:20B5 E90703         JMP    23BF 
152C:20B8 3D0600         CMP    AX,0006 
152C:20BB 7516           JNZ    20D3 
152C:20BD BF2201         MOV    DI,0122 
152C:20C0 0E             PUSH   CS 
152C:20C1 57             PUSH   DI 
152C:20C2 C47E08         LES    DI,[BP+08] 
152C:20C5 06             PUSH   ES 
152C:20C6 57             PUSH   DI 
152C:20C7 B8FF00         MOV    AX,00FF 
152C:20CA 50             PUSH   AX 
152C:20CB 9A36060B18     CALL   180B:0636 
152C:20D0 E9EC02         JMP    23BF 
152C:20D3 3D0800         CMP    AX,0008 
152C:20D6 7516           JNZ    20EE 
152C:20D8 BF4501         MOV    DI,0145 
152C:20DB 0E             PUSH   CS 
152C:20DC 57             PUSH   DI 
152C:20DD C47E08         LES    DI,[BP+08] 
152C:20E0 06             PUSH   ES 
152C:20E1 57             PUSH   DI 
152C:20E2 B8FF00         MOV    AX,00FF 
152C:20E5 50             PUSH   AX 
152C:20E6 9A36060B18     CALL   180B:0636 
152C:20EB E9D102         JMP    23BF 
152C:20EE 3D0A00         CMP    AX,000A 
152C:20F1 7516           JNZ    2109 
152C:20F3 BF5A01         MOV    DI,015A 
152C:20F6 0E             PUSH   CS 
152C:20F7 57             PUSH   DI 
152C:20F8 C47E08         LES    DI,[BP+08] 
152C:20FB 06             PUSH   ES 
152C:20FC 57             PUSH   DI 
152C:20FD B8FF00         MOV    AX,00FF 
152C:2100 50             PUSH   AX 
152C:2101 9A36060B18     CALL   180B:0636 
152C:2106 E9B602         JMP    23BF 
152C:2109 3D0B00         CMP    AX,000B 
152C:210C 7516           JNZ    2124 
152C:210E BF7101         MOV    DI,0171 
152C:2111 0E             PUSH   CS 
152C:2112 57             PUSH   DI 
152C:2113 C47E08         LES    DI,[BP+08] 
152C:2116 06             PUSH   ES 
152C:2117 57             PUSH   DI 
152C:2118 B8FF00         MOV    AX,00FF 
152C:211B 50             PUSH   AX 
152C:211C 9A36060B18     CALL   180B:0636 
152C:2121 E99B02         JMP    23BF 
152C:2124 3D0C00         CMP    AX,000C 
152C:2127 7516           JNZ    213F 
152C:2129 BF8101         MOV    DI,0181 
152C:212C 0E             PUSH   CS 
152C:212D 57             PUSH   DI 
152C:212E C47E08         LES    DI,[BP+08] 
152C:2131 06             PUSH   ES 
152C:2132 57             PUSH   DI 
152C:2133 B8FF00         MOV    AX,00FF 
152C:2136 50             PUSH   AX 
152C:2137 9A36060B18     CALL   180B:0636 
152C:213C E98002         JMP    23BF 
152C:213F 3D0F00         CMP    AX,000F 
152C:2142 7405           JZ     2149 
152C:2144 3D9700         CMP    AX,0097 
152C:2147 7516           JNZ    215F 
152C:2149 BF9701         MOV    DI,0197 
152C:214C 0E             PUSH   CS 
152C:214D 57             PUSH   DI 
152C:214E C47E08         LES    DI,[BP+08] 
152C:2151 06             PUSH   ES 
152C:2152 57             PUSH   DI 
152C:2153 B8FF00         MOV    AX,00FF 
152C:2156 50             PUSH   AX 
152C:2157 9A36060B18     CALL   180B:0636 
152C:215C E96002         JMP    23BF 
152C:215F 3D1000         CMP    AX,0010 
152C:2162 7516           JNZ    217A 
152C:2164 BFB301         MOV    DI,01B3 
152C:2167 0E             PUSH   CS 
152C:2168 57             PUSH   DI 
152C:2169 C47E08         LES    DI,[BP+08] 
152C:216C 06             PUSH   ES 
152C:216D 57             PUSH   DI 
152C:216E B8FF00         MOV    AX,00FF 
152C:2171 50             PUSH   AX 
152C:2172 9A36060B18     CALL   180B:0636 
152C:2177 E94502         JMP    23BF 
152C:217A 3D1100         CMP    AX,0011 
152C:217D 7516           JNZ    2195 
152C:217F BFDB01         MOV    DI,01DB 
152C:2182 0E             PUSH   CS 
152C:2183 57             PUSH   DI 
152C:2184 C47E08         LES    DI,[BP+08] 
152C:2187 06             PUSH   ES 
152C:2188 57             PUSH   DI 
152C:2189 B8FF00         MOV    AX,00FF 
152C:218C 50             PUSH   AX 
152C:218D 9A36060B18     CALL   180B:0636 
152C:2192 E92A02         JMP    23BF 
152C:2195 3D1200         CMP    AX,0012 
152C:2198 7516           JNZ    21B0 
152C:219A BFFF01         MOV    DI,01FF 
152C:219D 0E             PUSH   CS 
152C:219E 57             PUSH   DI 
152C:219F C47E08         LES    DI,[BP+08] 
152C:21A2 06             PUSH   ES 
152C:21A3 57             PUSH   DI 
152C:21A4 B8FF00         MOV    AX,00FF 
152C:21A7 50             PUSH   AX 
152C:21A8 9A36060B18     CALL   180B:0636 
152C:21AD E90F02         JMP    23BF 
152C:21B0 3D6400         CMP    AX,0064 
152C:21B3 7516           JNZ    21CB 
152C:21B5 BF0F02         MOV    DI,020F 
152C:21B8 0E             PUSH   CS 
152C:21B9 57             PUSH   DI 
152C:21BA C47E08         LES    DI,[BP+08] 
152C:21BD 06             PUSH   ES 
152C:21BE 57             PUSH   DI 
152C:21BF B8FF00         MOV    AX,00FF 
152C:21C2 50             PUSH   AX 
152C:21C3 9A36060B18     CALL   180B:0636 
152C:21C8 E9F401         JMP    23BF 
152C:21CB 3D6500         CMP    AX,0065 
152C:21CE 7516           JNZ    21E6 
152C:21D0 BF2102         MOV    DI,0221 
152C:21D3 0E             PUSH   CS 
152C:21D4 57             PUSH   DI 
152C:21D5 C47E08         LES    DI,[BP+08] 
152C:21D8 06             PUSH   ES 
152C:21D9 57             PUSH   DI 
152C:21DA B8FF00         MOV    AX,00FF 
152C:21DD 50             PUSH   AX 
152C:21DE 9A36060B18     CALL   180B:0636 
152C:21E3 E9D901         JMP    23BF 
152C:21E6 3D6600         CMP    AX,0066 
152C:21E9 7516           JNZ    2201 
152C:21EB BF3402         MOV    DI,0234 
152C:21EE 0E             PUSH   CS 
152C:21EF 57             PUSH   DI 
152C:21F0 C47E08         LES    DI,[BP+08] 
152C:21F3 06             PUSH   ES 
152C:21F4 57             PUSH   DI 
152C:21F5 B8FF00         MOV    AX,00FF 
152C:21F8 50             PUSH   AX 
152C:21F9 9A36060B18     CALL   180B:0636 
152C:21FE E9BE01         JMP    23BF 
-q
