
; *****************************************************************************
;
;                             L Z E X E
;
; *****************************************************************************


1149:0000  16 4C 5A 45 58 45 3A 20-45 72 72 65 75 72 20 46  .LZEXE: Erreur F
1149:0010  61 74 61 6C 65 3A 20 55-89 E5 B8 00 01 9A 44 02  atale: U.e8...D.

; -----------------------------------------------------------------------------
;
; -----------------------------------------------------------------------------

1149:0017 55           * PUSH   BP
1149:0018 89E5           MOV    BP,SP 
1149:001A B80001         MOV    AX,0100 
1149:001D 9A44022814     CALL   1428:0244   ; kontrola p©ete‡en¡ z sobn¡ku
1149:0022 81EC0001       SUB    SP,0100 
1149:0026 C47E04         LES    DI,[BP+04] 
1149:0029 06             PUSH   ES 
1149:002A 57             PUSH   DI 
1149:002B 8DBE00FF       LEA    DI,[BP+FF00] 
1149:002F 16             PUSH   SS 
1149:0030 57             PUSH   DI 
1149:0031 B8FF00         MOV    AX,00FF 
1149:0034 50             PUSH   AX 
1149:0035 9A36062814     CALL   1428:0636 
1149:003A BF36C6         MOV    DI,C636 
1149:003D 1E             PUSH   DS 
1149:003E 57             PUSH   DI 
1149:003F 9AA0122814     CALL   1428:12A0 
1149:0044 BF36C6         MOV    DI,C636 
1149:0047 1E             PUSH   DS 
1149:0048 57             PUSH   DI 
1149:0049 9AA0122814     CALL   1428:12A0 
1149:004E BF36C6         MOV    DI,C636 
1149:0051 1E             PUSH   DS 
1149:0052 57             PUSH   DI 
1149:0053 BF0000         MOV    DI,0000 
1149:0056 0E             PUSH   CS 
1149:0057 57             PUSH   DI 
1149:0058 31C0           XOR    AX,AX 
1149:005A 50             PUSH   AX 
1149:005B 9A68132814     CALL   1428:1368 
1149:0060 9AA0122814     CALL   1428:12A0 
1149:0065 BF36C6         MOV    DI,C636 
1149:0068 1E             PUSH   DS 
1149:0069 57             PUSH   DI 
1149:006A 8DBE00FF       LEA    DI,[BP+FF00] 
1149:006E 16             PUSH   SS 
1149:006F 57             PUSH   DI 
1149:0070 31C0           XOR    AX,AX 
1149:0072 50             PUSH   AX 
1149:0073 9A68132814     CALL   1428:1368 
1149:0078 9AA0122814     CALL   1428:12A0 
1149:007D BF36C6         MOV    DI,C636 
1149:0080 1E             PUSH   DS 
1149:0081 57             PUSH   DI 
1149:0082 9AA0122814     CALL   1428:12A0 
1149:0087 B8FF00         MOV    AX,00FF     ; n vratov˜ k¢d - chyba
1149:008A 9AD8002814     CALL   1428:00D8   ; konec programu

1149:008F 89EC           MOV    SP,BP
1149:0091 5D             POP    BP 
1149:0092 C20400         RET    0004

; -----------------------------------------------------------------------------
;
; -----------------------------------------------------------------------------

1149:0095 55           * PUSH   BP
1149:0096 89E5           MOV    BP,SP 
1149:0098 B80201         MOV    AX,0102 
1149:009B 9A44022814     CALL   1428:0244   ; kontrola p©ete‡en¡ z sobn¡ku
1149:00A0 81EC0201       SUB    SP,0102 
1149:00A4 9A07022814     CALL   1428:0207 
1149:00A9 8946FE         MOV    [BP-02],AX 
1149:00AC 837EFE00       CMP    Word Ptr [BP-02],+00 
1149:00B0 7411           JZ     00C3 
1149:00B2 8DBEFEFE       LEA    DI,[BP+FEFE] 
1149:00B6 16             PUSH   SS 
1149:00B7 57             PUSH   DI 
1149:00B8 FF76FE         PUSH   [BP-02] 
1149:00BB 9A16040C13     CALL   130C:0416 
1149:00C0 E854FF         CALL   0017 
1149:00C3 89EC           MOV    SP,BP 
1149:00C5 5D             POP    BP 
1149:00C6 C3             RET

; -----------------------------------------------------------------------------
;
; -----------------------------------------------------------------------------

1149:00C0  E8 54 FF 89 EC 5D C3 29-53 79 6E 74 61 78 65 3A  hT..l]C)Syntaxe:
1149:00D0  20 4C 5A 45 58 45 20 6E-6F 6D 66 69 63 68 69 65   LZEXE nomfichie
1149:00E0  72 5B 2E 45 58 45 5D 20-20 5B 63 68 65 6D 69 6E  r[.EXE]  [chemin
1149:00F0  5D 41 22 6E 6F 6D 66 69-63 68 69 65 72 22 20 65  ]A"nomfichier" e
1149:0100  73 74 20 6C 65 20 6E 6F-6D 20 64 75 20 66 69 63  st le nom du fic
1149:0110  68 69 65 72 20 45 58 45-20 71 75 65 20 76 6F 75  hier EXE que vou
1149:0120  73 20 76 6F 75 6C 65 7A-20 63 6F 6D 70 61 63 74  s voulez compact
1149:0130  65 72 2E 2E 4C 27 65 78-74 65 6E 73 69 6F 6E 20  er..L'extension
1149:0140  45 58 45 20 65 73 74 20-61 6A 6F 75 74 82 65 20  EXE est ajout.e
1149:0150  73 69 20 76 6F 75 73 20-6C 27 6F 6D 65 74 74 65  si vous l'omette
1149:0160  7A 2E 38 4C 65 20 66 69-63 68 69 65 72 20 63 6F  z.8Le fichier co
1149:0170  6D 70 61 63 74 82 20 65-73 74 20 63 72 82 82 20  mpact. est cr..
1149:0180  64 61 6E 73 20 6C 65 20-72 82 70 65 72 74 6F 69  dans le r.pertoi
1149:0190  72 65 20 63 6F 75 72 61-6E 74 2E 32 50 6F 75 72  re courant.2Pour
1149:01A0  20 70 6C 75 73 20 64 27-69 6E 66 6F 73 20 76 6F   plus d'infos vo
1149:01B0  69 72 20 6C 61 20 64 6F-63 75 6D 65 6E 74 61 74  ir la documentat
1149:01C0  69 6F 6E 3A 20 4C 5A 45-58 45 2E 44 4F 43 55 89  ion: LZEXE.DOCU.

; -----------------------------------------------------------------------------
;
; -----------------------------------------------------------------------------

1149:01CE 55           * PUSH   BP
1149:01CF 89E5           MOV    BP,SP
1149:01D1 31C0           XOR    AX,AX 
1149:01D3 9A44022814     CALL   1428:0244   ; kontrola p©ete‡en¡ z sobn¡ku
1149:01D8 BF36C6         MOV    DI,C636 
1149:01DB 1E             PUSH   DS 
1149:01DC 57             PUSH   DI 
1149:01DD BFC700         MOV    DI,00C7     ; text - n povˆda k syntaxi
1149:01E0 0E             PUSH   CS 
1149:01E1 57             PUSH   DI 
1149:01E2 31C0           XOR    AX,AX 
1149:01E4 50             PUSH   AX 
1149:01E5 9A68132814     CALL   1428:1368 
1149:01EA 9AA0122814     CALL   1428:12A0   ; zobrazen¡ textu
1149:01EF BF36C6         MOV    DI,C636 
1149:01F2 1E             PUSH   DS 
1149:01F3 57             PUSH   DI 
1149:01F4 BFF100         MOV    DI,00F1 
1149:01F7 0E             PUSH   CS 
1149:01F8 57             PUSH   DI 
1149:01F9 31C0           XOR    AX,AX 
1149:01FB 50             PUSH   AX 
1149:01FC 9A68132814     CALL   1428:1368 
1149:0201 9AA0122814     CALL   1428:12A0 
1149:0206 BF36C6         MOV    DI,C636 
1149:0209 1E             PUSH   DS 
1149:020A 57             PUSH   DI 
1149:020B BF3301         MOV    DI,0133 
1149:020E 0E             PUSH   CS 
1149:020F 57             PUSH   DI 
1149:0210 31C0           XOR    AX,AX 
1149:0212 50             PUSH   AX 
1149:0213 9A68132814     CALL   1428:1368 
1149:0218 9AA0122814     CALL   1428:12A0 
1149:021D BF36C6         MOV    DI,C636 
1149:0220 1E             PUSH   DS 
1149:0221 57             PUSH   DI 
1149:0222 BF6201         MOV    DI,0162 
1149:0225 0E             PUSH   CS 
1149:0226 57             PUSH   DI 
1149:0227 31C0           XOR    AX,AX 
1149:0229 50             PUSH   AX 
1149:022A 9A68132814     CALL   1428:1368 
1149:022F 9AA0122814     CALL   1428:12A0 
1149:0234 BF36C6         MOV    DI,C636 
1149:0237 1E             PUSH   DS 
1149:0238 57             PUSH   DI 
1149:0239 9AA0122814     CALL   1428:12A0 
1149:023E BF36C6         MOV    DI,C636 
1149:0241 1E             PUSH   DS 
1149:0242 57             PUSH   DI 
1149:0243 BF9B01         MOV    DI,019B 
1149:0246 0E             PUSH   CS 
1149:0247 57             PUSH   DI 
1149:0248 31C0           XOR    AX,AX 
1149:024A 50             PUSH   AX 
1149:024B 9A68132814     CALL   1428:1368 
1149:0250 9AA0122814     CALL   1428:12A0 
1149:0255 9AE402CA12     CALL   12CA:02E4 
1149:025A 31C0           XOR    AX,AX 
1149:025C 9AD8002814     CALL   1428:00D8 
1149:0261 89EC           MOV    SP,BP 
1149:0263 5D             POP    BP 
1149:0264 C3             RET

; -----------------------------------------------------------------------------
;
; -----------------------------------------------------------------------------

1149:0265 55             PUSH   BP 
1149:0266 89E5           MOV    BP,SP 
1149:0268 B80200         MOV    AX,0002 
1149:026B 9A44022814     CALL   1428:0244   ; kontrola p©ete‡en¡ z sobn¡ku
1149:0270 83EC02         SUB    SP,+02 
1149:0273 BF2A01         MOV    DI,012A 
1149:0276 1E             PUSH   DS 
1149:0277 57             PUSH   DI 
1149:0278 C43E9600       LES    DI,[0096] 
1149:027C 06             PUSH   ES 
1149:027D 57             PUSH   DI 
1149:027E FF7606         PUSH   [BP+06] 
1149:0281 31C0           XOR    AX,AX 
1149:0283 50             PUSH   AX 
1149:0284 50             PUSH   AX 
1149:0285 9A22162814     CALL   1428:1622 
1149:028A E808FE         CALL   0095 
1149:028D 8B4606         MOV    AX,[BP+06] 
1149:0290 31D2           XOR    DX,DX 
1149:0292 0106A200       ADD    [00A2],AX 
1149:0296 1116A400       ADC    [00A4],DX 
1149:029A 31C0           XOR    AX,AX 
1149:029C 8946FE         MOV    [BP-02],AX 
1149:029F 8B46FE         MOV    AX,[BP-02] 
1149:02A2 89EC           MOV    SP,BP 
1149:02A4 5D             POP    BP 
1149:02A5 CA0200         RETF   0002

; -----------------------------------------------------------------------------
;
; -----------------------------------------------------------------------------

1149:02A8 55             PUSH   BP 
1149:02A9 89E5           MOV    BP,SP 
1149:02AB B80400         MOV    AX,0004 
1149:02AE 9A44022814     CALL   1428:0244   ; kontrola p©ete‡en¡ z sobn¡ku
1149:02B3 83EC04         SUB    SP,+04 
1149:02B6 A1AA01         MOV    AX,[01AA] 
1149:02B9 31D2           XOR    DX,DX 
1149:02BB 3B169C00       CMP    DX,[009C] 
1149:02BF 7C08           JL     02C9 
1149:02C1 7F0E           JG     02D1 
1149:02C3 3B069A00       CMP    AX,[009A] 
1149:02C7 7308           JNB    02D1 
1149:02C9 A1AA01         MOV    AX,[01AA] 
1149:02CC 8946FC         MOV    [BP-04],AX 
1149:02CF EB06           JMP    02D7 
1149:02D1 A19A00         MOV    AX,[009A] 
1149:02D4 8946FC         MOV    [BP-04],AX 
1149:02D7 BFAA00         MOV    DI,00AA 
1149:02DA 1E             PUSH   DS 
1149:02DB 57             PUSH   DI 
1149:02DC C43E9200       LES    DI,[0092] 
1149:02E0 06             PUSH   ES 
1149:02E1 57             PUSH   DI 
1149:02E2 FF76FC         PUSH   [BP-04] 
1149:02E5 31C0           XOR    AX,AX 
1149:02E7 50             PUSH   AX 
1149:02E8 50             PUSH   AX 
1149:02E9 9A1B162814     CALL   1428:161B 
1149:02EE E8A4FD         CALL   0095 
1149:02F1 8B46FC         MOV    AX,[BP-04] 
1149:02F4 31D2           XOR    DX,DX 
1149:02F6 29069A00       SUB    [009A],AX 
1149:02FA 19169C00       SBB    [009C],DX 
1149:02FE 8B46FC         MOV    AX,[BP-04] 
1149:0301 8946FE         MOV    [BP-02],AX 
1149:0304 8B46FE         MOV    AX,[BP-02] 
1149:0307 89EC           MOV    SP,BP 
1149:0309 5D             POP    BP 
1149:030A CB             RETF

; -----------------------------------------------------------------------------
;
; -----------------------------------------------------------------------------

1149:030B 55           * PUSH   BP
1149:030C 89E5           MOV    BP,SP 
1149:030E B80C00         MOV    AX,000C 
1149:0311 9A44022814     CALL   1428:0244   ; kontrola p©ete‡en¡ z sobn¡ku
1149:0316 83EC0C         SUB    SP,+0C 
1149:0319 8B4606         MOV    AX,[BP+06] 
1149:031C 8946FE         MOV    [BP-02],AX 
1149:031F 8B4604         MOV    AX,[BP+04] 
1149:0322 8946FC         MOV    [BP-04],AX 
1149:0325 8B4606         MOV    AX,[BP+06] 
1149:0328 034604         ADD    AX,[BP+04] 
1149:032B 31D2           XOR    DX,DX 
1149:032D B90200         MOV    CX,0002 
1149:0330 F7F1           DIV    CX 
1149:0332 D1E0           SHL    AX,1 
1149:0334 D1E0           SHL    AX,1 
1149:0336 C43E8E00       LES    DI,[008E] 
1149:033A 03F8           ADD    DI,AX 
1149:033C 26C445FC       LES    AX,ES:[DI-04] 
1149:0340 8CC2           MOV    DX,ES 
1149:0342 8946F8         MOV    [BP-08],AX 
1149:0345 8956FA         MOV    [BP-06],DX 
1149:0348 8B46FE         MOV    AX,[BP-02] 
1149:034B D1E0           SHL    AX,1 
1149:034D D1E0           SHL    AX,1 
1149:034F C43E8E00       LES    DI,[008E] 
1149:0353 03F8           ADD    DI,AX 
1149:0355 26C445FC       LES    AX,ES:[DI-04] 
1149:0359 8CC2           MOV    DX,ES 
1149:035B 3B56FA         CMP    DX,[BP-06] 
1149:035E 7C07           JL     0367 
1149:0360 7F0A           JG     036C 
1149:0362 3B46F8         CMP    AX,[BP-08] 
1149:0365 7305           JNB    036C 
1149:0367 FF46FE         INC    Word Ptr [BP-02] 
1149:036A EBDC           JMP    0348 
1149:036C 8B46FC         MOV    AX,[BP-04] 
1149:036F D1E0           SHL    AX,1 
1149:0371 D1E0           SHL    AX,1 
1149:0373 C43E8E00       LES    DI,[008E] 
1149:0377 03F8           ADD    DI,AX 
1149:0379 26C445FC       LES    AX,ES:[DI-04] 
1149:037D 8CC2           MOV    DX,ES 
1149:037F 3B56FA         CMP    DX,[BP-06] 
1149:0382 7F07           JG     038B 
1149:0384 7C0A           JL     0390 
1149:0386 3B46F8         CMP    AX,[BP-08] 
1149:0389 7605           JBE    0390 
1149:038B FF4EFC         DEC    Word Ptr [BP-04] 
1149:038E EBDC           JMP    036C 
1149:0390 8B46FE         MOV    AX,[BP-02] 
1149:0393 3B46FC         CMP    AX,[BP-04] 
1149:0396 7761           JA     03F9 
1149:0398 8B46FE         MOV    AX,[BP-02] 
1149:039B D1E0           SHL    AX,1 
1149:039D D1E0           SHL    AX,1 
1149:039F C43E8E00       LES    DI,[008E] 
1149:03A3 03F8           ADD    DI,AX 
1149:03A5 26C445FC       LES    AX,ES:[DI-04] 
1149:03A9 8CC2           MOV    DX,ES 
1149:03AB 8946F4         MOV    [BP-0C],AX 
1149:03AE 8956F6         MOV    [BP-0A],DX 
1149:03B1 8B46FC         MOV    AX,[BP-04] 
1149:03B4 D1E0           SHL    AX,1 
1149:03B6 D1E0           SHL    AX,1 
1149:03B8 C43E8E00       LES    DI,[008E] 
1149:03BC 03F8           ADD    DI,AX 
1149:03BE 26C44DFC       LES    CX,ES:[DI-04] 
1149:03C2 8CC3           MOV    BX,ES 
1149:03C4 8B46FE         MOV    AX,[BP-02] 
1149:03C7 D1E0           SHL    AX,1 
1149:03C9 D1E0           SHL    AX,1 
1149:03CB C43E8E00       LES    DI,[008E] 
1149:03CF 03F8           ADD    DI,AX 
1149:03D1 26894DFC       MOV    ES:[DI-04],CX 
1149:03D5 26895DFE       MOV    ES:[DI-02],BX 
1149:03D9 C44EF4         LES    CX,[BP-0C] 
1149:03DC 8CC3           MOV    BX,ES 
1149:03DE 8B46FC         MOV    AX,[BP-04] 
1149:03E1 D1E0           SHL    AX,1 
1149:03E3 D1E0           SHL    AX,1 
1149:03E5 C43E8E00       LES    DI,[008E] 
1149:03E9 03F8           ADD    DI,AX 
1149:03EB 26894DFC       MOV    ES:[DI-04],CX 
1149:03EF 26895DFE       MOV    ES:[DI-02],BX 
1149:03F3 FF46FE         INC    Word Ptr [BP-02] 
1149:03F6 FF4EFC         DEC    Word Ptr [BP-04] 
1149:03F9 8B46FE         MOV    AX,[BP-02] 
1149:03FC 3B46FC         CMP    AX,[BP-04] 
1149:03FF 7703           JA     0404 
1149:0401 E944FF         JMP    0348 
1149:0404 8B4606         MOV    AX,[BP+06] 
1149:0407 3B46FC         CMP    AX,[BP-04] 
1149:040A 7309           JNB    0415 
1149:040C FF7606         PUSH   [BP+06] 
1149:040F FF76FC         PUSH   [BP-04] 
1149:0412 E8F6FE         CALL   030B 
1149:0415 8B46FE         MOV    AX,[BP-02] 
1149:0418 3B4604         CMP    AX,[BP+04] 
1149:041B 7309           JNB    0426 
1149:041D FF76FE         PUSH   [BP-02] 
1149:0420 FF7604         PUSH   [BP+04] 
1149:0423 E8E5FE         CALL   030B 
1149:0426 89EC           MOV    SP,BP 
1149:0428 5D             POP    BP 
1149:0429 C20400         RET    0004

; -----------------------------------------------------------------------------
;
; -----------------------------------------------------------------------------

1149:042C 55           * PUSH   BP
1149:042D 89E5           MOV    BP,SP 
1149:042F 31C0           XOR    AX,AX 
1149:0431 9A44022814     CALL   1428:0244   ; kontrola p©ete‡en¡ z sobn¡ku
1149:0436 B80100         MOV    AX,0001 
1149:0439 50             PUSH   AX 
1149:043A FF364200       PUSH   [0042] 
1149:043E E8CAFE         CALL   030B 
1149:0441 89EC           MOV    SP,BP 
1149:0443 5D             POP    BP 
1149:0444 C3             RET

; -----------------------------------------------------------------------------
;
; -----------------------------------------------------------------------------

1149:0440  FE 89 EC 5D C3 1D 56 6F-75 6C 65 7A 2D 76 6F 75  ~.l]C.Voulez-vou
1149:0450  73 20 61 72 72 88 74 65-72 20 3F 20 28 4F 2F 4E  s arr.ter ? (O/N
1149:0460  29 3A 20 55 89 E5 B8 02-00 9A 44 02 0B 18 83 EC  ): U.e8...D....l

; -----------------------------------------------------------------------------
;
; -----------------------------------------------------------------------------

1149:0463 55           * PUSH   BP
1149:0464 89E5           MOV    BP,SP
1149:0466 B80200         MOV    AX,0002
1149:0469 9A44022814     CALL   1428:0244   ; kontrola p©ete‡en¡ z sobn¡ku
1149:046E 83EC02         SUB    SP,+02 
1149:0471 BF36C6         MOV    DI,C636 
1149:0474 1E             PUSH   DS 
1149:0475 57             PUSH   DI 
1149:0476 BF4504         MOV    DI,0445 
1149:0479 0E             PUSH   CS 
1149:047A 57             PUSH   DI 
1149:047B 31C0           XOR    AX,AX 
1149:047D 50             PUSH   AX 
1149:047E 9A68132814     CALL   1428:1368 
1149:0483 9ABF122814     CALL   1428:12BF 
1149:0488 BF36C5         MOV    DI,C536 
1149:048B 1E             PUSH   DS 
1149:048C 57             PUSH   DI 
1149:048D 9AE5122814     CALL   1428:12E5 
1149:0492 8846FF         MOV    [BP-01],AL 
1149:0495 9A77122814     CALL   1428:1277 
1149:049A 8A46FF         MOV    AL,[BP-01] 
1149:049D 50             PUSH   AX 
1149:049E 9AA5172814     CALL   1428:17A5 
1149:04A3 8846FF         MOV    [BP-01],AL 
1149:04A6 807EFF4F       CMP    Byte Ptr [BP-01],4F           ;'O' 
1149:04AA 7406           JZ     04B2 
1149:04AC 807EFF4E       CMP    Byte Ptr [BP-01],4E           ;'N' 
1149:04B0 75BF           JNZ    0471 
1149:04B2 807EFF4F       CMP    Byte Ptr [BP-01],4F           ;'O' 
1149:04B6 7507           JNZ    04BF 
1149:04B8 31C0           XOR    AX,AX 
1149:04BA 9AD8002814     CALL   1428:00D8 
1149:04BF 89EC           MOV    SP,BP 
1149:04C1 5D             POP    BP 
1149:04C2 C3             RET

; -----------------------------------------------------------------------------
;
; -----------------------------------------------------------------------------

1149:04C0  EC 5D C3 0E 43 6F 6D 70-61 63 74 61 67 65 20 64  l]C.Compactage d
1149:04D0  65 20 14 4C 65 63 74 75-72 65 20 64 75 20 48 65  e .Lecture du He
1149:04E0  61 64 65 72 2E 2E 2E 0B-4C 65 20 66 69 63 68 69  ader....Le fichi
1149:04F0  65 72 20 1B 20 6E 27 65-73 74 20 70 61 73 20 75  er . n'est pas u
1149:0500  6E 20 66 69 63 68 69 65-72 20 2E 45 58 45 2E 02  n fichier .EXE..
1149:0510  0D 0A 2B 45 73 73 61 79-65 7A 20 64 65 20 6C 65  ..+Essayez de le
1149:0520  20 72 65 6E 64 72 65 20-45 58 45 20 61 76 65 63   rendre EXE avec
1149:0530  20 43 4F 4D 54 4F 45 58-45 2E 45 58 45 2E 04 30   COMTOEXE.EXE..0
1149:0540  2E 39 30 04 30 2E 39 31-02 3F 3F 28 20 61 20 64  .90.0.91.??( a d
1149:0550  82 6A 85 20 82 74 82 20-63 6F 6D 70 61 63 74 82  .j. .t. compact.
1149:0560  20 61 76 65 63 20 4C 5A-45 58 45 20 76 65 72 73   avec LZEXE vers
1149:0570  69 6F 6E 20 44 43 65 20-66 69 63 68 69 65 72 20  ion DCe fichier
1149:0580  73 65 6D 62 6C 65 20 61-76 6F 69 72 20 82 74 82  semble avoir .t.
1149:0590  20 64 82 6A 85 20 63 6F-6D 70 61 63 74 82 20 61   d.j. compact. a
1149:05A0  76 65 63 20 45 58 45 50-41 43 4B 20 28 63 29 20  vec EXEPACK (c)
1149:05B0  4D 69 63 72 6F 73 6F 66-74 47 4A 65 20 76 6F 75  MicrosoftGJe vou
1149:05C0  73 20 63 6F 6E 73 65 69-6C 6C 65 20 64 65 20 6C  s conseille de l
1149:05D0  65 20 64 82 63 6F 6D 70-61 63 74 65 72 20 70 72  e d.compacter pr
1149:05E0  82 61 6C 61 62 6C 65 6D-65 6E 74 20 61 76 65 63  .alablement avec
1149:05F0  20 55 50 41 43 4B 45 58-45 20 64 75 20 6D 88 6D   UPACKEXE du m.m
1149:0600  65 2D 61 75 74 65 75 72-3A 20 6C 65 73 20 67 61  e-auteur: les ga
1149:0610  69 6E 73 20 73 65 72 6F-6E 74 20 65 6E 63 6F 72  ins seront encor
1149:0620  65 20 70 6C 75 73 20 67-72 61 6E 64 73 20 21 38  e plus grands !8
1149:0630  4C 65 20 66 69 63 68 69-65 72 20 73 65 6D 62 6C  Le fichier sembl
1149:0640  65 20 63 6F 6E 74 65 6E-69 72 20 64 65 73 20 6F  e contenir des o
1149:0650  76 65 72 6C 61 79 73 20-28 76 6F 69 72 20 4C 5A  verlays (voir LZ
1149:0660  45 58 45 2E 44 4F 43 29-11 53 61 20 74 61 69 6C  EXE.DOC).Sa tail
1149:0670  6C 65 20 65 73 74 20 64-65 20 26 20 6F 63 74 65  le est de & octe
1149:0680  74 73 20 61 6C 6F 72 73-20 71 75 27 65 6C 6C 65  ts alors qu'elle
1149:0690  20 64 65 76 72 61 69 74-20 88 74 72 65 20 64 65   devrait .tre de
1149:06A0  20 08 20 6F 63 74 65 74-73 2E 45 43 65 6C 61 20   . octets.ECela
1149:06B0  70 65 75 74 20 70 6F 73-65 72 20 64 65 73 20 70  peut poser des p
1149:06C0  72 6F 62 6C 8A 6D 65 73-20 70 6F 75 72 20 6C 27  robl.mes pour l'
1149:06D0  65 78 82 63 75 74 69 6F-6E 20 64 75 20 70 72 6F  ex.cution du pro
1149:06E0  67 72 61 6D 6D 65 20 63-6F 6D 70 61 63 74 82 2C  gramme compact.,
1149:06F0  48 6D 61 69 73 20 73 69-20 6C 61 20 64 69 66 66  Hmais si la diff
1149:0700  82 72 65 6E 63 65 20 64-65 20 74 61 69 6C 6C 65  .rence de taille
1149:0710  20 65 73 74 20 66 61 69-62 6C 65 2C 20 61 6C 6F   est faible, alo
1149:0720  72 73 20 76 6F 75 73 20-70 6F 75 76 65 7A 20 65  rs vous pouvez e
1149:0730  73 73 61 79 65 72 20 64-65 0A 63 6F 6D 70 61 63  ssayer de.compac
1149:0740  74 65 72 2E 24 4C 65 63-74 75 72 65 20 64 65 20  ter.$Lecture de
1149:0750  6C 61 20 74 61 62 6C 65-20 64 65 20 72 65 6C 6F  la table de relo
1149:0760  63 61 74 69 6F 6E 2E 2E-2E 1A 54 72 6F 70 20 64  cation....Trop d
1149:0770  27 65 6E 74 72 82 65 73-20 72 65 6C 6F 67 65 61  'entr.es relogea
1149:0780  62 6C 65 73 14 50 61 73-20 61 73 73 65 7A 20 64  bles.Pas assez d
1149:0790  65 20 6D 82 6D 6F 69 72-65 2E 43 6F 6D 70 61 63  e m.moire.Compac
1149:07A0  74 61 67 65 20 64 75 20-63 6F 64 65 20 45 58 45  tage du code EXE
1149:07B0  20 28 87 61 20 70 65 75-74 20 88 74 72 65 20 6C   (.a peut .tre l
1149:07C0  6F 6E 67 21 29 2E 2E 2E-1B 45 63 72 69 74 75 72  ong!)....Ecritur
1149:07D0  65 20 64 75 20 64 82 63-6F 6D 70 61 63 74 65 75  e du d.compacteu
1149:07E0  72 2E 2E 2E 2F 45 63 72-69 74 75 72 65 20 64 65  r.../Ecriture de
1149:07F0  20 6C 61 20 74 61 62 6C-65 20 64 65 20 72 65 6C   la table de rel
1149:0800  6F 63 61 74 69 6F 6E 20-63 6F 6D 70 61 63 74 82  ocation compact.
1149:0810  65 2E 2E 2E 18 4D 69 73-65 20 85 20 6A 6F 75 72  e....Mise . jour
1149:0820  20 64 75 20 48 65 61 64-65 72 2E 2E 2E 12 43 6F   du Header....Co
1149:0830  6D 70 61 63 74 61 67 65-20 74 65 72 6D 69 6E 82  mpactage termin.

; -----------------------------------------------------------------------------
;
; -----------------------------------------------------------------------------

1149:0840 55           * PUSH   BP
1149:0841 89E5           MOV    BP,SP 
1149:0843 B82E01         MOV    AX,012E 
1149:0846 9A44022814     CALL   1428:0244   ; kontrola p©ete‡en¡ z sobn¡ku
1149:084B 81EC2E01       SUB    SP,012E 
1149:084F BF36C6         MOV    DI,C636 
1149:0852 1E             PUSH   DS 
1149:0853 57             PUSH   DI 
1149:0854 BFC304         MOV    DI,04C3 
1149:0857 0E             PUSH   CS 
1149:0858 57             PUSH   DI 
1149:0859 31C0           XOR    AX,AX 
1149:085B 50             PUSH   AX 
1149:085C 9A68132814     CALL   1428:1368 
1149:0861 BFAC01         MOV    DI,01AC 
1149:0864 1E             PUSH   DS 
1149:0865 57             PUSH   DI 
1149:0866 31C0           XOR    AX,AX 
1149:0868 50             PUSH   AX 
1149:0869 9A68132814     CALL   1428:1368 
1149:086E 9AA0122814     CALL   1428:12A0 
1149:0873 BFAA00         MOV    DI,00AA 
1149:0876 1E             PUSH   DS 
1149:0877 57             PUSH   DI 
1149:0878 BFAC01         MOV    DI,01AC 
1149:087B 1E             PUSH   DS 
1149:087C 57             PUSH   DI 
1149:087D 9A02152814     CALL   1428:1502 
1149:0882 BF2A01         MOV    DI,012A 
1149:0885 1E             PUSH   DS 
1149:0886 57             PUSH   DI 
1149:0887 BF4C02         MOV    DI,024C 
1149:088A 1E             PUSH   DS 
1149:088B 57             PUSH   DI 
1149:088C 9A02152814     CALL   1428:1502 
1149:0891 BFAA00         MOV    DI,00AA 
1149:0894 1E             PUSH   DS 
1149:0895 57             PUSH   DI 
1149:0896 B80100         MOV    AX,0001 
1149:0899 50             PUSH   AX 
1149:089A 9A30152814     CALL   1428:1530 
1149:089F E8F3F7         CALL   0095 
1149:08A2 BF36C6         MOV    DI,C636 
1149:08A5 1E             PUSH   DS 
1149:08A6 57             PUSH   DI 
1149:08A7 BFD204         MOV    DI,04D2 
1149:08AA 0E             PUSH   CS 
1149:08AB 57             PUSH   DI 
1149:08AC 31C0           XOR    AX,AX 
1149:08AE 50             PUSH   AX 
1149:08AF 9A68132814     CALL   1428:1368 
1149:08B4 9AA0122814     CALL   1428:12A0 
1149:08B9 BFAA00         MOV    DI,00AA 
1149:08BC 1E             PUSH   DS 
1149:08BD 57             PUSH   DI 
1149:08BE BF3C00         MOV    DI,003C 
1149:08C1 1E             PUSH   DS 
1149:08C2 57             PUSH   DI 
1149:08C3 B82000         MOV    AX,0020 
1149:08C6 50             PUSH   AX 
1149:08C7 31C0           XOR    AX,AX 
1149:08C9 50             PUSH   AX 
1149:08CA 50             PUSH   AX 
1149:08CB 9A1B162814     CALL   1428:161B 
1149:08D0 E8C2F7         CALL   0095 
1149:08D3 813E3C004D5A   CMP    Word Ptr [003C],5A4D 
1149:08D9 743B           JZ     0916 
1149:08DB 8DBED2FE       LEA    DI,[BP+FED2] 
1149:08DF 16             PUSH   SS 
1149:08E0 57             PUSH   DI 
1149:08E1 BFE704         MOV    DI,04E7 
1149:08E4 0E             PUSH   CS 
1149:08E5 57             PUSH   DI 
1149:08E6 9A1C062814     CALL   1428:061C 
1149:08EB BFAC01         MOV    DI,01AC 
1149:08EE 1E             PUSH   DS 
1149:08EF 57             PUSH   DI 
1149:08F0 9AA9062814     CALL   1428:06A9 
1149:08F5 BFF304         MOV    DI,04F3 
1149:08F8 0E             PUSH   CS 
1149:08F9 57             PUSH   DI 
1149:08FA 9AA9062814     CALL   1428:06A9 
1149:08FF BF0F05         MOV    DI,050F 
1149:0902 0E             PUSH   CS 
1149:0903 57             PUSH   DI 
1149:0904 9AA9062814     CALL   1428:06A9 
1149:0909 BF1205         MOV    DI,0512 
1149:090C 0E             PUSH   CS 
1149:090D 57             PUSH   DI 
1149:090E 9AA9062814     CALL   1428:06A9 
1149:0913 E801F7         CALL   0017 
1149:0916 833E54001C     CMP    Word Ptr [0054],+1C 
1149:091B 7403           JZ     0920 
1149:091D E98D00         JMP    09AD 
1149:0920 833E420000     CMP    Word Ptr [0042],+00 
1149:0925 7403           JZ     092A 
1149:0927 E98300         JMP    09AD 
1149:092A 813E58004C5A   CMP    Word Ptr [0058],5A4C 
1149:0930 757B           JNZ    09AD 
1149:0932 A15A00         MOV    AX,[005A] 
1149:0935 3D3039         CMP    AX,3930 
1149:0938 7515           JNZ    094F 
1149:093A BF3E05         MOV    DI,053E 
1149:093D 0E             PUSH   CS 
1149:093E 57             PUSH   DI 
1149:093F 8D7ED2         LEA    DI,[BP-2E] 
1149:0942 16             PUSH   SS 
1149:0943 57             PUSH   DI 
1149:0944 B80500         MOV    AX,0005 
1149:0947 50             PUSH   AX 
1149:0948 9A36062814     CALL   1428:0636 
1149:094D EB2D           JMP    097C 
1149:094F 3D3931         CMP    AX,3139 
1149:0952 7515           JNZ    0969 
1149:0954 BF4305         MOV    DI,0543 
1149:0957 0E             PUSH   CS 
1149:0958 57             PUSH   DI 
1149:0959 8D7ED2         LEA    DI,[BP-2E] 
1149:095C 16             PUSH   SS 
1149:095D 57             PUSH   DI 
1149:095E B80500         MOV    AX,0005 
1149:0961 50             PUSH   AX 
1149:0962 9A36062814     CALL   1428:0636 
1149:0967 EB13           JMP    097C 
1149:0969 BF4805         MOV    DI,0548 
1149:096C 0E             PUSH   CS 
1149:096D 57             PUSH   DI 
1149:096E 8D7ED2         LEA    DI,[BP-2E] 
1149:0971 16             PUSH   SS 
1149:0972 57             PUSH   DI 
1149:0973 B80500         MOV    AX,0005 
1149:0976 50             PUSH   AX 
1149:0977 9A36062814     CALL   1428:0636 
1149:097C 8DBED2FE       LEA    DI,[BP+FED2] 
1149:0980 16             PUSH   SS 
1149:0981 57             PUSH   DI 
1149:0982 BFE704         MOV    DI,04E7 
1149:0985 0E             PUSH   CS 
1149:0986 57             PUSH   DI 
1149:0987 9A1C062814     CALL   1428:061C 
1149:098C BFAC01         MOV    DI,01AC 
1149:098F 1E             PUSH   DS 
1149:0990 57             PUSH   DI 
1149:0991 9AA9062814     CALL   1428:06A9 
1149:0996 BF4B05         MOV    DI,054B 
1149:0999 0E             PUSH   CS 
1149:099A 57             PUSH   DI 
1149:099B 9AA9062814     CALL   1428:06A9 
1149:09A0 8D7ED2         LEA    DI,[BP-2E] 
1149:09A3 16             PUSH   SS 
1149:09A4 57             PUSH   DI 
1149:09A5 9AA9062814     CALL   1428:06A9 
1149:09AA E86AF6         CALL   0017 
1149:09AD 833E420000     CMP    Word Ptr [0042],+00 
1149:09B2 7403           JZ     09B7 
1149:09B4 E9C700         JMP    0A7E 
1149:09B7 813E4C008000   CMP    Word Ptr [004C],0080 
1149:09BD 7403           JZ     09C2 
1149:09BF E9BC00         JMP    0A7E 
1149:09C2 833E500020     CMP    Word Ptr [0050],+20 
1149:09C7 7203           JB     09CC 
1149:09C9 E9B200         JMP    0A7E 
1149:09CC A14400         MOV    AX,[0044] 
1149:09CF 31D2           XOR    DX,DX 
1149:09D1 B90400         MOV    CX,0004 
1149:09D4 31DB           XOR    BX,BX 
1149:09D6 9AF6022814     CALL   1428:02F6 
1149:09DB 52             PUSH   DX 
1149:09DC 50             PUSH   AX 
1149:09DD A15200         MOV    AX,[0052] 
1149:09E0 31D2           XOR    DX,DX 
1149:09E2 B90400         MOV    CX,0004 
1149:09E5 31DB           XOR    BX,BX 
1149:09E7 9AF6022814     CALL   1428:02F6 
1149:09EC 59             POP    CX 
1149:09ED 5B             POP    BX 
1149:09EE 03C1           ADD    AX,CX 
1149:09F0 13D3           ADC    DX,BX 
1149:09F2 8BC8           MOV    CX,AX 
1149:09F4 8BDA           MOV    BX,DX 
1149:09F6 A15000         MOV    AX,[0050] 
1149:09F9 31D2           XOR    DX,DX 
1149:09FB 03C1           ADD    AX,CX 
1149:09FD 13D3           ADC    DX,BX 
1149:09FF 8946E8         MOV    [BP-18],AX 
1149:0A02 8956EA         MOV    [BP-16],DX 
1149:0A05 BFAA00         MOV    DI,00AA 
1149:0A08 1E             PUSH   DS 
1149:0A09 57             PUSH   DI 
1149:0A0A FF76EA         PUSH   [BP-16] 
1149:0A0D FF76E8         PUSH   [BP-18] 
1149:0A10 9A83162814     CALL   1428:1683 
1149:0A15 BFAA00         MOV    DI,00AA 
1149:0A18 1E             PUSH   DS 
1149:0A19 57             PUSH   DI 
1149:0A1A 8D7EF4         LEA    DI,[BP-0C] 
1149:0A1D 16             PUSH   SS 
1149:0A1E 57             PUSH   DI 
1149:0A1F B80200         MOV    AX,0002 
1149:0A22 50             PUSH   AX 
1149:0A23 31C0           XOR    AX,AX 
1149:0A25 50             PUSH   AX 
1149:0A26 50             PUSH   AX 
1149:0A27 9A1B162814     CALL   1428:161B 
1149:0A2C E866F6         CALL   0095 
1149:0A2F 817EF48CC0     CMP    Word Ptr [BP-0C],C08C 
1149:0A34 7548           JNZ    0A7E 
1149:0A36 BF36C6         MOV    DI,C636 
1149:0A39 1E             PUSH   DS 
1149:0A3A 57             PUSH   DI 
1149:0A3B BF7405         MOV    DI,0574 
1149:0A3E 0E             PUSH   CS 
1149:0A3F 57             PUSH   DI 
1149:0A40 31C0           XOR    AX,AX 
1149:0A42 50             PUSH   AX 
1149:0A43 9A68132814     CALL   1428:1368 
1149:0A48 9AA0122814     CALL   1428:12A0 
1149:0A4D BF36C6         MOV    DI,C636 
1149:0A50 1E             PUSH   DS 
1149:0A51 57             PUSH   DI 
1149:0A52 BFB905         MOV    DI,05B9 
1149:0A55 0E             PUSH   CS 
1149:0A56 57             PUSH   DI 
1149:0A57 31C0           XOR    AX,AX 
1149:0A59 50             PUSH   AX 
1149:0A5A 9A68132814     CALL   1428:1368 
1149:0A5F 9AA0122814     CALL   1428:12A0 
1149:0A64 BF36C6         MOV    DI,C636 
1149:0A67 1E             PUSH   DS 
1149:0A68 57             PUSH   DI 
1149:0A69 BF0106         MOV    DI,0601 
1149:0A6C 0E             PUSH   CS 
1149:0A6D 57             PUSH   DI 
1149:0A6E 31C0           XOR    AX,AX 
1149:0A70 50             PUSH   AX 
1149:0A71 9A68132814     CALL   1428:1368 
1149:0A76 9AA0122814     CALL   1428:12A0 
1149:0A7B E8E5F9         CALL   0463 
1149:0A7E BFAA00         MOV    DI,00AA 
1149:0A81 1E             PUSH   DS 
1149:0A82 57             PUSH   DI 
1149:0A83 9ACA162814     CALL   1428:16CA 
1149:0A88 A3A600         MOV    [00A6],AX 
1149:0A8B 8916A800       MOV    [00A8],DX 
1149:0A8F A14000         MOV    AX,[0040] 
1149:0A92 48             DEC    AX 
1149:0A93 31D2           XOR    DX,DX 
1149:0A95 B90002         MOV    CX,0200 
1149:0A98 31DB           XOR    BX,BX 
1149:0A9A 9A61022814     CALL   1428:0261 
1149:0A9F A39A00         MOV    [009A],AX 
1149:0AA2 89169C00       MOV    [009C],DX 
1149:0AA6 833E3E0000     CMP    Word Ptr [003E],+00 
1149:0AAB 750D           JNZ    0ABA 
1149:0AAD 81069A000002   ADD    Word Ptr [009A],0200 
1149:0AB3 83169C0000     ADC    Word Ptr [009C],+00 
1149:0AB8 EB0D           JMP    0AC7 
1149:0ABA A13E00         MOV    AX,[003E] 
1149:0ABD 31D2           XOR    DX,DX 
1149:0ABF 01069A00       ADD    [009A],AX 
1149:0AC3 11169C00       ADC    [009C],DX 
1149:0AC7 C406A600       LES    AX,[00A6] 
1149:0ACB 8CC2           MOV    DX,ES 
1149:0ACD 3B169C00       CMP    DX,[009C] 
1149:0AD1 7509           JNZ    0ADC 
1149:0AD3 3B069A00       CMP    AX,[009A] 
1149:0AD7 7503           JNZ    0ADC 
1149:0AD9 E9BA00         JMP    0B96 
1149:0ADC BF36C6         MOV    DI,C636 
1149:0ADF 1E             PUSH   DS 
1149:0AE0 57             PUSH   DI 
1149:0AE1 9AA0122814     CALL   1428:12A0 
1149:0AE6 BF36C6         MOV    DI,C636 
1149:0AE9 1E             PUSH   DS 
1149:0AEA 57             PUSH   DI 
1149:0AEB BF2F06         MOV    DI,062F 
1149:0AEE 0E             PUSH   CS 
1149:0AEF 57             PUSH   DI 
1149:0AF0 31C0           XOR    AX,AX 
1149:0AF2 50             PUSH   AX 
1149:0AF3 9A68132814     CALL   1428:1368 
1149:0AF8 9AA0122814     CALL   1428:12A0 
1149:0AFD BF36C6         MOV    DI,C636 
1149:0B00 1E             PUSH   DS 
1149:0B01 57             PUSH   DI 
1149:0B02 BF6806         MOV    DI,0668 
1149:0B05 0E             PUSH   CS 
1149:0B06 57             PUSH   DI 
1149:0B07 31C0           XOR    AX,AX 
1149:0B09 50             PUSH   AX 
1149:0B0A 9A68132814     CALL   1428:1368 
1149:0B0F FF36A800       PUSH   [00A8] 
1149:0B13 FF36A600       PUSH   [00A6] 
1149:0B17 31C0           XOR    AX,AX 
1149:0B19 50             PUSH   AX 
1149:0B1A 9AFE132814     CALL   1428:13FE 
1149:0B1F BF7A06         MOV    DI,067A 
1149:0B22 0E             PUSH   CS 
1149:0B23 57             PUSH   DI 
1149:0B24 31C0           XOR    AX,AX 
1149:0B26 50             PUSH   AX 
1149:0B27 9A68132814     CALL   1428:1368 
1149:0B2C FF369C00       PUSH   [009C] 
1149:0B30 FF369A00       PUSH   [009A] 
1149:0B34 31C0           XOR    AX,AX 
1149:0B36 50             PUSH   AX 
1149:0B37 9AFE132814     CALL   1428:13FE 
1149:0B3C BFA106         MOV    DI,06A1 
1149:0B3F 0E             PUSH   CS 
1149:0B40 57             PUSH   DI 
1149:0B41 31C0           XOR    AX,AX 
1149:0B43 50             PUSH   AX 
1149:0B44 9A68132814     CALL   1428:1368 
1149:0B49 9AA0122814     CALL   1428:12A0 
1149:0B4E BF36C6         MOV    DI,C636 
1149:0B51 1E             PUSH   DS 
1149:0B52 57             PUSH   DI 
1149:0B53 BFAA06         MOV    DI,06AA 
1149:0B56 0E             PUSH   CS 
1149:0B57 57             PUSH   DI 
1149:0B58 31C0           XOR    AX,AX 
1149:0B5A 50             PUSH   AX 
1149:0B5B 9A68132814     CALL   1428:1368 
1149:0B60 9AA0122814     CALL   1428:12A0 
1149:0B65 BF36C6         MOV    DI,C636 
1149:0B68 1E             PUSH   DS 
1149:0B69 57             PUSH   DI 
1149:0B6A BFF006         MOV    DI,06F0 
1149:0B6D 0E             PUSH   CS 
1149:0B6E 57             PUSH   DI 
1149:0B6F 31C0           XOR    AX,AX 
1149:0B71 50             PUSH   AX 
1149:0B72 9A68132814     CALL   1428:1368 
1149:0B77 9AA0122814     CALL   1428:12A0 
1149:0B7C BF36C6         MOV    DI,C636 
1149:0B7F 1E             PUSH   DS 
1149:0B80 57             PUSH   DI 
1149:0B81 BF3907         MOV    DI,0739 
1149:0B84 0E             PUSH   CS 
1149:0B85 57             PUSH   DI 
1149:0B86 31C0           XOR    AX,AX 
1149:0B88 50             PUSH   AX 
1149:0B89 9A68132814     CALL   1428:1368 
1149:0B8E 9AA0122814     CALL   1428:12A0 
1149:0B93 E8CDF8         CALL   0463 
1149:0B96 BF36C6         MOV    DI,C636 
1149:0B99 1E             PUSH   DS 
1149:0B9A 57             PUSH   DI 
1149:0B9B BF4407         MOV    DI,0744 
1149:0B9E 0E             PUSH   CS 
1149:0B9F 57             PUSH   DI 
1149:0BA0 31C0           XOR    AX,AX 
1149:0BA2 50             PUSH   AX 
1149:0BA3 9A68132814     CALL   1428:1368 
1149:0BA8 9AA0122814     CALL   1428:12A0 
1149:0BAD 813E4200803E   CMP    Word Ptr [0042],3E80 
1149:0BB3 7608           JBE    0BBD 
1149:0BB5 BF6907         MOV    DI,0769 
1149:0BB8 0E             PUSH   CS 
1149:0BB9 57             PUSH   DI 
1149:0BBA E85AF4         CALL   0017 
1149:0BBD BF8E00         MOV    DI,008E 
1149:0BC0 1E             PUSH   DS 
1149:0BC1 57             PUSH   DI 
1149:0BC2 A14200         MOV    AX,[0042] 
1149:0BC5 B90200         MOV    CX,0002 
1149:0BC8 D3E0           SHL    AX,CL 
1149:0BCA 50             PUSH   AX 
1149:0BCB 9A11032814     CALL   1428:0311 
1149:0BD0 9AE1032814     CALL   1428:03E1 
1149:0BD5 A39E00         MOV    [009E],AX 
1149:0BD8 8916A000       MOV    [00A0],DX 
1149:0BDC 833EA00000     CMP    Word Ptr [00A0],+00 
1149:0BE1 7C0A           JL     0BED 
1149:0BE3 7F10           JG     0BF5 
1149:0BE5 813E9E000010   CMP    Word Ptr [009E],1000 
1149:0BEB 7308           JNB    0BF5 
1149:0BED BF8407         MOV    DI,0784 
1149:0BF0 0E             PUSH   CS 
1149:0BF1 57             PUSH   DI 
1149:0BF2 E822F4         CALL   0017 
1149:0BF5 833EA00001     CMP    Word Ptr [00A0],+01 
1149:0BFA 7F0A           JG     0C06 
1149:0BFC 7C14           JL     0C12 
1149:0BFE 813E9E0000F4   CMP    Word Ptr [009E],F400 
1149:0C04 760C           JBE    0C12 
1149:0C06 C7069E0000F4   MOV    Word Ptr [009E],F400 
1149:0C0C C706A0000100   MOV    Word Ptr [00A0],0001 
1149:0C12 C4069E00       LES    AX,[009E] 
1149:0C16 8CC2           MOV    DX,ES 
1149:0C18 B90200         MOV    CX,0002 
1149:0C1B 31DB           XOR    BX,BX 
1149:0C1D 9A7C022814     CALL   1428:027C 
1149:0C22 A3AA01         MOV    [01AA],AX 
1149:0C25 BF9200         MOV    DI,0092 
1149:0C28 1E             PUSH   DS 
1149:0C29 57             PUSH   DI 
1149:0C2A FF36AA01       PUSH   [01AA] 
1149:0C2E 9A11032814     CALL   1428:0311 
1149:0C33 BF9600         MOV    DI,0096 
1149:0C36 1E             PUSH   DS 
1149:0C37 57             PUSH   DI 
1149:0C38 FF36AA01       PUSH   [01AA] 
1149:0C3C 9A11032814     CALL   1428:0311 
1149:0C41 BFAA00         MOV    DI,00AA 
1149:0C44 1E             PUSH   DS 
1149:0C45 57             PUSH   DI 
1149:0C46 A15400         MOV    AX,[0054] 
1149:0C49 31D2           XOR    DX,DX 
1149:0C4B 52             PUSH   DX 
1149:0C4C 50             PUSH   AX 
1149:0C4D 9A83162814     CALL   1428:1683 
1149:0C52 A14200         MOV    AX,[0042] 
1149:0C55 8946D0         MOV    [BP-30],AX 
1149:0C58 B80100         MOV    AX,0001 
1149:0C5B 3B46D0         CMP    AX,[BP-30] 
1149:0C5E 7776           JA     0CD6 
1149:0C60 8946F6         MOV    [BP-0A],AX 
1149:0C63 EB03           JMP    0C68 
1149:0C65 FF46F6         INC    Word Ptr [BP-0A] 
1149:0C68 BFAA00         MOV    DI,00AA 
1149:0C6B 1E             PUSH   DS 
1149:0C6C 57             PUSH   DI 
1149:0C6D 8D7EF4         LEA    DI,[BP-0C] 
1149:0C70 16             PUSH   SS 
1149:0C71 57             PUSH   DI 
1149:0C72 B80200         MOV    AX,0002 
1149:0C75 50             PUSH   AX 
1149:0C76 31C0           XOR    AX,AX 
1149:0C78 50             PUSH   AX 
1149:0C79 50             PUSH   AX 
1149:0C7A 9A1B162814     CALL   1428:161B 
1149:0C7F BFAA00         MOV    DI,00AA 
1149:0C82 1E             PUSH   DS 
1149:0C83 57             PUSH   DI 
1149:0C84 8D7EF2         LEA    DI,[BP-0E] 
1149:0C87 16             PUSH   SS 
1149:0C88 57             PUSH   DI 
1149:0C89 B80200         MOV    AX,0002 
1149:0C8C 50             PUSH   AX 
1149:0C8D 31C0           XOR    AX,AX 
1149:0C8F 50             PUSH   AX 
1149:0C90 50             PUSH   AX 
1149:0C91 9A1B162814     CALL   1428:161B 
1149:0C96 E8FCF3         CALL   0095 
1149:0C99 8B46F2         MOV    AX,[BP-0E] 
1149:0C9C 31D2           XOR    DX,DX 
1149:0C9E B91000         MOV    CX,0010 
1149:0CA1 31DB           XOR    BX,BX 
1149:0CA3 9A61022814     CALL   1428:0261 
1149:0CA8 8BC8           MOV    CX,AX 
1149:0CAA 8BDA           MOV    BX,DX 
1149:0CAC 8B46F4         MOV    AX,[BP-0C] 
1149:0CAF 31D2           XOR    DX,DX 
1149:0CB1 03C1           ADD    AX,CX 
1149:0CB3 13D3           ADC    DX,BX 
1149:0CB5 8BC8           MOV    CX,AX 
1149:0CB7 8BDA           MOV    BX,DX 
1149:0CB9 8B46F6         MOV    AX,[BP-0A] 
1149:0CBC D1E0           SHL    AX,1 
1149:0CBE D1E0           SHL    AX,1 
1149:0CC0 C43E8E00       LES    DI,[008E] 
1149:0CC4 03F8           ADD    DI,AX 
1149:0CC6 26894DFC       MOV    ES:[DI-04],CX 
1149:0CCA 26895DFE       MOV    ES:[DI-02],BX 
1149:0CCE 8B46F6         MOV    AX,[BP-0A] 
1149:0CD1 3B46D0         CMP    AX,[BP-30] 
1149:0CD4 758F           JNZ    0C65 
1149:0CD6 BF36C6         MOV    DI,C636 
1149:0CD9 1E             PUSH   DS 
1149:0CDA 57             PUSH   DI 
1149:0CDB BF9907         MOV    DI,0799 
1149:0CDE 0E             PUSH   CS 
1149:0CDF 57             PUSH   DI 
1149:0CE0 31C0           XOR    AX,AX 
1149:0CE2 50             PUSH   AX 
1149:0CE3 9A68132814     CALL   1428:1368 
1149:0CE8 9AA0122814     CALL   1428:12A0 
1149:0CED BF2A01         MOV    DI,012A 
1149:0CF0 1E             PUSH   DS 
1149:0CF1 57             PUSH   DI 
1149:0CF2 B80100         MOV    AX,0001 
1149:0CF5 50             PUSH   AX 
1149:0CF6 9A39152814     CALL   1428:1539 
1149:0CFB BF2A01         MOV    DI,012A 
1149:0CFE 1E             PUSH   DS 
1149:0CFF 57             PUSH   DI 
1149:0D00 BF5C00         MOV    DI,005C 
1149:0D03 1E             PUSH   DS 
1149:0D04 57             PUSH   DI 
1149:0D05 B82000         MOV    AX,0020 
1149:0D08 50             PUSH   AX 
1149:0D09 31C0           XOR    AX,AX 
1149:0D0B 50             PUSH   AX 
1149:0D0C 50             PUSH   AX 
1149:0D0D 9A22162814     CALL   1428:1622 
1149:0D12 E880F3         CALL   0095 
1149:0D15 BFAA00         MOV    DI,00AA 
1149:0D18 1E             PUSH   DS 
1149:0D19 57             PUSH   DI 
1149:0D1A A14400         MOV    AX,[0044] 
1149:0D1D 31D2           XOR    DX,DX 
1149:0D1F B90400         MOV    CX,0004 
1149:0D22 31DB           XOR    BX,BX 
1149:0D24 9AF6022814     CALL   1428:02F6 
1149:0D29 52             PUSH   DX 
1149:0D2A 50             PUSH   AX 
1149:0D2B 9A83162814     CALL   1428:1683 
1149:0D30 A14400         MOV    AX,[0044] 
1149:0D33 31D2           XOR    DX,DX 
1149:0D35 B90400         MOV    CX,0004 
1149:0D38 31DB           XOR    BX,BX 
1149:0D3A 9AF6022814     CALL   1428:02F6 
1149:0D3F 29069A00       SUB    [009A],AX 
1149:0D43 19169C00       SBB    [009C],DX 
1149:0D47 C4069A00       LES    AX,[009A] 
1149:0D4B 8CC2           MOV    DX,ES 
1149:0D4D A3A600         MOV    [00A6],AX 
1149:0D50 8916A800       MOV    [00A8],DX 
1149:0D54 31C0           XOR    AX,AX 
1149:0D56 A3A200         MOV    [00A2],AX 
1149:0D59 A3A400         MOV    [00A4],AX 
1149:0D5C C43E9200       LES    DI,[0092] 
1149:0D60 06             PUSH   ES 
1149:0D61 57             PUSH   DI 
1149:0D62 FF36AA01       PUSH   [01AA] 
1149:0D66 B8A802         MOV    AX,02A8 
1149:0D69 BA4911         MOV    DX,1149 
1149:0D6C 52             PUSH   DX 
1149:0D6D 50             PUSH   AX 
1149:0D6E C43E9600       LES    DI,[0096] 
1149:0D72 06             PUSH   ES 
1149:0D73 57             PUSH   DI 
1149:0D74 FF36AA01       PUSH   [01AA] 
1149:0D78 B86502         MOV    AX,0265 
1149:0D7B BA4911         MOV    DX,1149 
1149:0D7E 52             PUSH   DX 
1149:0D7F 50             PUSH   AX 
1149:0D80 9A00008813     CALL   1388:0000 
1149:0D85 C406A600       LES    AX,[00A6] 
1149:0D89 8CC2           MOV    DX,ES 
1149:0D8B 050F00         ADD    AX,000F 
1149:0D8E 83D200         ADC    DX,+00 
1149:0D91 B91000         MOV    CX,0010 
1149:0D94 31DB           XOR    BX,BX 
1149:0D96 9A7C022814     CALL   1428:027C 
1149:0D9B 8946E0         MOV    [BP-20],AX 
1149:0D9E C406A200       LES    AX,[00A2] 
1149:0DA2 8CC2           MOV    DX,ES 
1149:0DA4 050F00         ADD    AX,000F 
1149:0DA7 83D200         ADC    DX,+00 
1149:0DAA B91000         MOV    CX,0010 
1149:0DAD 31DB           XOR    BX,BX 
1149:0DAF 9A7C022814     CALL   1428:027C 
1149:0DB4 8946E2         MOV    [BP-1E],AX 
1149:0DB7 A18203         MOV    AX,[0382] 
1149:0DBA 051000         ADD    AX,0010 
1149:0DBD 8946FE         MOV    [BP-02],AX 
1149:0DC0 C646DD00       MOV    Byte Ptr [BP-23],00 
1149:0DC4 BF2A01         MOV    DI,012A 
1149:0DC7 1E             PUSH   DS 
1149:0DC8 57             PUSH   DI 
1149:0DC9 9ACA162814     CALL   1428:16CA 
1149:0DCE B91000         MOV    CX,0010 
1149:0DD1 31DB           XOR    BX,BX 
1149:0DD3 9A7C022814     CALL   1428:027C 
1149:0DD8 89C8           MOV    AX,CX 
1149:0DDA 89DA           MOV    DX,BX 
1149:0DDC 09D0           OR     AX,DX 
1149:0DDE 741C           JZ     0DFC 
1149:0DE0 BF2A01         MOV    DI,012A 
1149:0DE3 1E             PUSH   DS 
1149:0DE4 57             PUSH   DI 
1149:0DE5 8D7EDD         LEA    DI,[BP-23] 
1149:0DE8 16             PUSH   SS 
1149:0DE9 57             PUSH   DI 
1149:0DEA B80100         MOV    AX,0001 
1149:0DED 50             PUSH   AX 
1149:0DEE 31C0           XOR    AX,AX 
1149:0DF0 50             PUSH   AX 
1149:0DF1 50             PUSH   AX 
1149:0DF2 9A22162814     CALL   1428:1622 
1149:0DF7 E89BF2         CALL   0095 
1149:0DFA EBC8           JMP    0DC4 
1149:0DFC BF36C6         MOV    DI,C636 
1149:0DFF 1E             PUSH   DS 
1149:0E00 57             PUSH   DI 
1149:0E01 BFC807         MOV    DI,07C8 
1149:0E04 0E             PUSH   CS 
1149:0E05 57             PUSH   DI 
1149:0E06 31C0           XOR    AX,AX 
1149:0E08 50             PUSH   AX 
1149:0E09 9A68132814     CALL   1428:1368 
1149:0E0E 9AA0122814     CALL   1428:12A0 
1149:0E13 BF2A01         MOV    DI,012A 
1149:0E16 1E             PUSH   DS 
1149:0E17 57             PUSH   DI 
1149:0E18 9AB3162814     CALL   1428:16B3 
1149:0E1D 8946E4         MOV    [BP-1C],AX 
1149:0E20 8956E6         MOV    [BP-1A],DX 
1149:0E23 BF2A01         MOV    DI,012A 
1149:0E26 1E             PUSH   DS 
1149:0E27 57             PUSH   DI 
1149:0E28 BF7C00         MOV    DI,007C 
1149:0E2B 1E             PUSH   DS 
1149:0E2C 57             PUSH   DI 
1149:0E2D B80E00         MOV    AX,000E 
1149:0E30 50             PUSH   AX 
1149:0E31 31C0           XOR    AX,AX 
1149:0E33 50             PUSH   AX 
1149:0E34 50             PUSH   AX 
1149:0E35 9A22162814     CALL   1428:1622 
1149:0E3A E858F2         CALL   0095 
1149:0E3D C746FC4A01     MOV    Word Ptr [BP-04],014A 
1149:0E42 B8C516         MOV    AX,16C5 
1149:0E45 BA4911         MOV    DX,1149 
1149:0E48 8946D8         MOV    [BP-28],AX 
1149:0E4B 8956DA         MOV    [BP-26],DX 
1149:0E4E BF2A01         MOV    DI,012A 
1149:0E51 1E             PUSH   DS 
1149:0E52 57             PUSH   DI 
1149:0E53 C47ED8         LES    DI,[BP-28] 
1149:0E56 06             PUSH   ES 
1149:0E57 57             PUSH   DI 
1149:0E58 FF76FC         PUSH   [BP-04] 
1149:0E5B 31C0           XOR    AX,AX 
1149:0E5D 50             PUSH   AX 
1149:0E5E 50             PUSH   AX 
1149:0E5F 9A22162814     CALL   1428:1622 
1149:0E64 E82EF2         CALL   0095 
1149:0E67 8346FC0E       ADD    Word Ptr [BP-04],+0E 
1149:0E6B BF36C6         MOV    DI,C636 
1149:0E6E 1E             PUSH   DS 
1149:0E6F 57             PUSH   DI 
1149:0E70 BFE407         MOV    DI,07E4 
1149:0E73 0E             PUSH   CS 
1149:0E74 57             PUSH   DI 
1149:0E75 31C0           XOR    AX,AX 
1149:0E77 50             PUSH   AX 
1149:0E78 9A68132814     CALL   1428:1368 
1149:0E7D 9AA0122814     CALL   1428:12A0 
1149:0E82 833E420001     CMP    Word Ptr [0042],+01 
1149:0E87 7603           JBE    0E8C 
1149:0E89 E8A0F5         CALL   042C 
1149:0E8C 31C0           XOR    AX,AX 
1149:0E8E 8946E8         MOV    [BP-18],AX 
1149:0E91 8946EA         MOV    [BP-16],AX 
1149:0E94 C746EE0100     MOV    Word Ptr [BP-12],0001 
1149:0E99 A14200         MOV    AX,[0042] 
1149:0E9C 8946D0         MOV    [BP-30],AX 
1149:0E9F B80100         MOV    AX,0001 
1149:0EA2 3B46D0         CMP    AX,[BP-30] 
1149:0EA5 7603           JBE    0EAA 
1149:0EA7 E94201         JMP    0FEC 
1149:0EAA 8946F6         MOV    [BP-0A],AX 
1149:0EAD EB03           JMP    0EB2 
1149:0EAF FF46F6         INC    Word Ptr [BP-0A] 
1149:0EB2 8B46F6         MOV    AX,[BP-0A] 
1149:0EB5 D1E0           SHL    AX,1 
1149:0EB7 D1E0           SHL    AX,1 
1149:0EB9 C43E8E00       LES    DI,[008E] 
1149:0EBD 03F8           ADD    DI,AX 
1149:0EBF 26C445FC       LES    AX,ES:[DI-04] 
1149:0EC3 8CC2           MOV    DX,ES 
1149:0EC5 2B46E8         SUB    AX,[BP-18] 
1149:0EC8 1B56EA         SBB    DX,[BP-16] 
1149:0ECB 83FA00         CMP    DX,+00 
1149:0ECE 7F07           JG     0ED7 
1149:0ED0 7C46           JL     0F18 
1149:0ED2 3DF0FF         CMP    AX,FFF0 
1149:0ED5 7641           JBE    0F18 
1149:0ED7 31C0           XOR    AX,AX 
1149:0ED9 8946F4         MOV    [BP-0C],AX 
1149:0EDC BF2A01         MOV    DI,012A 
1149:0EDF 1E             PUSH   DS 
1149:0EE0 57             PUSH   DI 
1149:0EE1 8D7EF4         LEA    DI,[BP-0C] 
1149:0EE4 16             PUSH   SS 
1149:0EE5 57             PUSH   DI 
1149:0EE6 B80100         MOV    AX,0001 
1149:0EE9 50             PUSH   AX 
1149:0EEA 31C0           XOR    AX,AX 
1149:0EEC 50             PUSH   AX 
1149:0EED 50             PUSH   AX 
1149:0EEE 9A22162814     CALL   1428:1622 
1149:0EF3 BF2A01         MOV    DI,012A 
1149:0EF6 1E             PUSH   DS 
1149:0EF7 57             PUSH   DI 
1149:0EF8 8D7EF4         LEA    DI,[BP-0C] 
1149:0EFB 16             PUSH   SS 
1149:0EFC 57             PUSH   DI 
1149:0EFD B80200         MOV    AX,0002 
1149:0F00 50             PUSH   AX 
1149:0F01 31C0           XOR    AX,AX 
1149:0F03 50             PUSH   AX 
1149:0F04 50             PUSH   AX 
1149:0F05 9A22162814     CALL   1428:1622 
1149:0F0A 8346FC03       ADD    Word Ptr [BP-04],+03 
1149:0F0E 8346E8F0       ADD    Word Ptr [BP-18],-10 
1149:0F12 8356EA00       ADC    Word Ptr [BP-16],+00 
1149:0F16 EB9A           JMP    0EB2 
1149:0F18 8B46F6         MOV    AX,[BP-0A] 
1149:0F1B D1E0           SHL    AX,1 
1149:0F1D D1E0           SHL    AX,1 
1149:0F1F C43E8E00       LES    DI,[008E] 
1149:0F23 03F8           ADD    DI,AX 
1149:0F25 26C445FC       LES    AX,ES:[DI-04] 
1149:0F29 8CC2           MOV    DX,ES 
1149:0F2B 2B46E8         SUB    AX,[BP-18] 
1149:0F2E 1B56EA         SBB    DX,[BP-16] 
1149:0F31 83FA00         CMP    DX,+00 
1149:0F34 7C07           JL     0F3D 
1149:0F36 7F3D           JG     0F75 
1149:0F38 3DFF00         CMP    AX,00FF 
1149:0F3B 7738           JA     0F75 
1149:0F3D 8B46F6         MOV    AX,[BP-0A] 
1149:0F40 D1E0           SHL    AX,1 
1149:0F42 D1E0           SHL    AX,1 
1149:0F44 C43E8E00       LES    DI,[008E] 
1149:0F48 03F8           ADD    DI,AX 
1149:0F4A 26C445FC       LES    AX,ES:[DI-04] 
1149:0F4E 8CC2           MOV    DX,ES 
1149:0F50 2B46E8         SUB    AX,[BP-18] 
1149:0F53 1B56EA         SBB    DX,[BP-16] 
1149:0F56 8946F4         MOV    [BP-0C],AX 
1149:0F59 BF2A01         MOV    DI,012A 
1149:0F5C 1E             PUSH   DS 
1149:0F5D 57             PUSH   DI 
1149:0F5E 8D7EF4         LEA    DI,[BP-0C] 
1149:0F61 16             PUSH   SS 
1149:0F62 57             PUSH   DI 
1149:0F63 B80100         MOV    AX,0001 
1149:0F66 50             PUSH   AX 
1149:0F67 31C0           XOR    AX,AX 
1149:0F69 50             PUSH   AX 
1149:0F6A 50             PUSH   AX 
1149:0F6B 9A22162814     CALL   1428:1622 
1149:0F70 FF46FC         INC    Word Ptr [BP-04] 
1149:0F73 EB53           JMP    0FC8 
1149:0F75 31C0           XOR    AX,AX 
1149:0F77 8946F4         MOV    [BP-0C],AX 
1149:0F7A BF2A01         MOV    DI,012A 
1149:0F7D 1E             PUSH   DS 
1149:0F7E 57             PUSH   DI 
1149:0F7F 8D7EF4         LEA    DI,[BP-0C] 
1149:0F82 16             PUSH   SS 
1149:0F83 57             PUSH   DI 
1149:0F84 B80100         MOV    AX,0001 
1149:0F87 50             PUSH   AX 
1149:0F88 31C0           XOR    AX,AX 
1149:0F8A 50             PUSH   AX 
1149:0F8B 50             PUSH   AX 
1149:0F8C 9A22162814     CALL   1428:1622 
1149:0F91 8B46F6         MOV    AX,[BP-0A] 
1149:0F94 D1E0           SHL    AX,1 
1149:0F96 D1E0           SHL    AX,1 
1149:0F98 C43E8E00       LES    DI,[008E] 
1149:0F9C 03F8           ADD    DI,AX 
1149:0F9E 26C445FC       LES    AX,ES:[DI-04] 
1149:0FA2 8CC2           MOV    DX,ES 
1149:0FA4 2B46E8         SUB    AX,[BP-18] 
1149:0FA7 1B56EA         SBB    DX,[BP-16] 
1149:0FAA 8946F4         MOV    [BP-0C],AX 
1149:0FAD BF2A01         MOV    DI,012A 
1149:0FB0 1E             PUSH   DS 
1149:0FB1 57             PUSH   DI 
1149:0FB2 8D7EF4         LEA    DI,[BP-0C] 
1149:0FB5 16             PUSH   SS 
1149:0FB6 57             PUSH   DI 
1149:0FB7 B80200         MOV    AX,0002 
1149:0FBA 50             PUSH   AX 
1149:0FBB 31C0           XOR    AX,AX 
1149:0FBD 50             PUSH   AX 
1149:0FBE 50             PUSH   AX 
1149:0FBF 9A22162814     CALL   1428:1622 
1149:0FC4 8346FC03       ADD    Word Ptr [BP-04],+03 
1149:0FC8 8B46F6         MOV    AX,[BP-0A] 
1149:0FCB D1E0           SHL    AX,1 
1149:0FCD D1E0           SHL    AX,1 
1149:0FCF C43E8E00       LES    DI,[008E] 
1149:0FD3 03F8           ADD    DI,AX 
1149:0FD5 26C445FC       LES    AX,ES:[DI-04] 
1149:0FD9 8CC2           MOV    DX,ES 
1149:0FDB 8946E8         MOV    [BP-18],AX 
1149:0FDE 8956EA         MOV    [BP-16],DX 
1149:0FE1 8B46F6         MOV    AX,[BP-0A] 
1149:0FE4 3B46D0         CMP    AX,[BP-30] 
1149:0FE7 7403           JZ     0FEC 
1149:0FE9 E9C3FE         JMP    0EAF 
1149:0FEC 31C0           XOR    AX,AX 
1149:0FEE 8946F4         MOV    [BP-0C],AX 
1149:0FF1 BF2A01         MOV    DI,012A 
1149:0FF4 1E             PUSH   DS 
1149:0FF5 57             PUSH   DI 
1149:0FF6 8D7EF4         LEA    DI,[BP-0C] 
1149:0FF9 16             PUSH   SS 
1149:0FFA 57             PUSH   DI 
1149:0FFB B80100         MOV    AX,0001 
1149:0FFE 50             PUSH   AX 
1149:0FFF 31C0           XOR    AX,AX 
1149:1001 50             PUSH   AX 
1149:1002 50             PUSH   AX 
1149:1003 9A22162814     CALL   1428:1622 
1149:1008 C746F40100     MOV    Word Ptr [BP-0C],0001 
1149:100D BF2A01         MOV    DI,012A 
1149:1010 1E             PUSH   DS 
1149:1011 57             PUSH   DI 
1149:1012 8D7EF4         LEA    DI,[BP-0C] 
1149:1015 16             PUSH   SS 
1149:1016 57             PUSH   DI 
1149:1017 B80200         MOV    AX,0002 
1149:101A 50             PUSH   AX 
1149:101B 31C0           XOR    AX,AX 
1149:101D 50             PUSH   AX 
1149:101E 50             PUSH   AX 
1149:101F 9A22162814     CALL   1428:1622 
1149:1024 8346FC03       ADD    Word Ptr [BP-04],+03 
1149:1028 8B46FC         MOV    AX,[BP-04] 
1149:102B 050F00         ADD    AX,000F 
1149:102E 31D2           XOR    DX,DX 
1149:1030 B91000         MOV    CX,0010 
1149:1033 F7F1           DIV    CX 
1149:1035 8946DE         MOV    [BP-22],AX 
1149:1038 E85AF0         CALL   0095 
1149:103B BF36C6         MOV    DI,C636 
1149:103E 1E             PUSH   DS 
1149:103F 57             PUSH   DI 
1149:1040 BF1408         MOV    DI,0814 
1149:1043 0E             PUSH   CS 
1149:1044 57             PUSH   DI 
1149:1045 31C0           XOR    AX,AX 
1149:1047 50             PUSH   AX 
1149:1048 9A68132814     CALL   1428:1368 
1149:104D 9AA0122814     CALL   1428:12A0 
1149:1052 BF2A01         MOV    DI,012A 
1149:1055 1E             PUSH   DS 
1149:1056 57             PUSH   DI 
1149:1057 31C0           XOR    AX,AX 
1149:1059 31D2           XOR    DX,DX 
1149:105B 52             PUSH   DX 
1149:105C 50             PUSH   AX 
1149:105D 9A83162814     CALL   1428:1683 
1149:1062 C7065C004D5A   MOV    Word Ptr [005C],5A4D 
1149:1068 BF2A01         MOV    DI,012A 
1149:106B 1E             PUSH   DS 
1149:106C 57             PUSH   DI 
1149:106D 9ACA162814     CALL   1428:16CA 
1149:1072 8946E8         MOV    [BP-18],AX 
1149:1075 8956EA         MOV    [BP-16],DX 
1149:1078 C446E8         LES    AX,[BP-18] 
1149:107B 8CC2           MOV    DX,ES 
1149:107D B90002         MOV    CX,0200 
1149:1080 31DB           XOR    BX,BX 
1149:1082 9A7C022814     CALL   1428:027C 
1149:1087 89C8           MOV    AX,CX 
1149:1089 89DA           MOV    DX,BX 
1149:108B A35E00         MOV    [005E],AX 
1149:108E C446E8         LES    AX,[BP-18] 
1149:1091 8CC2           MOV    DX,ES 
1149:1093 05FF01         ADD    AX,01FF 
1149:1096 83D200         ADC    DX,+00 
1149:1099 B90002         MOV    CX,0200 
1149:109C 31DB           XOR    BX,BX 
1149:109E 9A7C022814     CALL   1428:027C 
1149:10A3 A36000         MOV    [0060],AX 
1149:10A6 31C0           XOR    AX,AX 
1149:10A8 A36200         MOV    [0062],AX 
1149:10AB C70664000200   MOV    Word Ptr [0064],0002 
1149:10B1 8B46FE         MOV    AX,[BP-02] 
1149:10B4 0346DE         ADD    AX,[BP-22] 
1149:10B7 050900         ADD    AX,0009 
1149:10BA 8946EC         MOV    [BP-14],AX 
1149:10BD A14600         MOV    AX,[0046] 
1149:10C0 0346EC         ADD    AX,[BP-14] 
1149:10C3 A36600         MOV    [0066],AX 
1149:10C6 B8FFFF         MOV    AX,FFFF 
1149:10C9 2B46EC         SUB    AX,[BP-14] 
1149:10CC 3B064800       CMP    AX,[0048] 
1149:10D0 7308           JNB    10DA 
1149:10D2 C7066800FFFF   MOV    Word Ptr [0068],FFFF 
1149:10D8 EB09           JMP    10E3 
1149:10DA A14800         MOV    AX,[0048] 
1149:10DD 0346EC         ADD    AX,[BP-14] 
1149:10E0 A36800         MOV    [0068],AX 
1149:10E3 8B46E2         MOV    AX,[BP-1E] 
1149:10E6 0346FE         ADD    AX,[BP-02] 
1149:10E9 0346DE         ADD    AX,[BP-22] 
1149:10EC A36A00         MOV    [006A],AX 
1149:10EF C7066C008000   MOV    Word Ptr [006C],0080 
1149:10F5 31C0           XOR    AX,AX 
1149:10F7 A36E00         MOV    [006E],AX 
1149:10FA C70670000E00   MOV    Word Ptr [0070],000E 
1149:1100 8B46E2         MOV    AX,[BP-1E] 
1149:1103 A37200         MOV    [0072],AX 
1149:1106 C70674001C00   MOV    Word Ptr [0074],001C 
1149:110C 31C0           XOR    AX,AX 
1149:110E A37600         MOV    [0076],AX 
1149:1111 C70678004C5A   MOV    Word Ptr [0078],5A4C 
1149:1117 C7067A003931   MOV    Word Ptr [007A],3139 
1149:111D BF2A01         MOV    DI,012A 
1149:1120 1E             PUSH   DS 
1149:1121 57             PUSH   DI 
1149:1122 BF5C00         MOV    DI,005C 
1149:1125 1E             PUSH   DS 
1149:1126 57             PUSH   DI 
1149:1127 B82000         MOV    AX,0020 
1149:112A 50             PUSH   AX 
1149:112B 31C0           XOR    AX,AX 
1149:112D 50             PUSH   AX 
1149:112E 50             PUSH   AX 
1149:112F 9A22162814     CALL   1428:1622 
1149:1134 E85EEF         CALL   0095 
1149:1137 BF2A01         MOV    DI,012A 
1149:113A 1E             PUSH   DS 
1149:113B 57             PUSH   DI 
1149:113C FF76E6         PUSH   [BP-1A] 
1149:113F FF76E4         PUSH   [BP-1C] 
1149:1142 9A83162814     CALL   1428:1683 
1149:1147 A15000         MOV    AX,[0050] 
1149:114A A37C00         MOV    [007C],AX 
1149:114D A15200         MOV    AX,[0052] 
1149:1150 A37E00         MOV    [007E],AX 
1149:1153 A14C00         MOV    AX,[004C] 
1149:1156 A38000         MOV    [0080],AX 
1149:1159 A14A00         MOV    AX,[004A] 
1149:115C A38200         MOV    [0082],AX 
1149:115F 8B46E2         MOV    AX,[BP-1E] 
1149:1162 A38400         MOV    [0084],AX 
1149:1165 8B46FE         MOV    AX,[BP-02] 
1149:1168 A38600         MOV    [0086],AX 
1149:116B 8B46FC         MOV    AX,[BP-04] 
1149:116E A38800         MOV    [0088],AX 
1149:1171 BF2A01         MOV    DI,012A 
1149:1174 1E             PUSH   DS 
1149:1175 57             PUSH   DI 
1149:1176 BF7C00         MOV    DI,007C 
1149:1179 1E             PUSH   DS 
1149:117A 57             PUSH   DI 
1149:117B B80E00         MOV    AX,000E 
1149:117E 50             PUSH   AX 
1149:117F 31C0           XOR    AX,AX 
1149:1181 50             PUSH   AX 
1149:1182 50             PUSH   AX 
1149:1183 9A22162814     CALL   1428:1622 
1149:1188 E80AEF         CALL   0095 
1149:118B BFAA00         MOV    DI,00AA 
1149:118E 1E             PUSH   DS 
1149:118F 57             PUSH   DI 
1149:1190 9ACA162814     CALL   1428:16CA 
1149:1195 A3A600         MOV    [00A6],AX 
1149:1198 8916A800       MOV    [00A8],DX 
1149:119C BF2A01         MOV    DI,012A 
1149:119F 1E             PUSH   DS 
1149:11A0 57             PUSH   DI 
1149:11A1 9ACA162814     CALL   1428:16CA 
1149:11A6 A3A200         MOV    [00A2],AX 
1149:11A9 8916A400       MOV    [00A4],DX 
1149:11AD BF2A01         MOV    DI,012A 
1149:11B0 1E             PUSH   DS 
1149:11B1 57             PUSH   DI 
1149:11B2 9AB1152814     CALL   1428:15B1 
1149:11B7 BFAA00         MOV    DI,00AA 
1149:11BA 1E             PUSH   DS 
1149:11BB 57             PUSH   DI 
1149:11BC 9AB1152814     CALL   1428:15B1 
1149:11C1 E8D1EE         CALL   0095 
1149:11C4 BF36C6         MOV    DI,C636 
1149:11C7 1E             PUSH   DS 
1149:11C8 57             PUSH   DI 
1149:11C9 9AA0122814     CALL   1428:12A0 
1149:11CE BF36C6         MOV    DI,C636 
1149:11D1 1E             PUSH   DS 
1149:11D2 57             PUSH   DI 
1149:11D3 BF2D08         MOV    DI,082D 
1149:11D6 0E             PUSH   CS 
1149:11D7 57             PUSH   DI 
1149:11D8 31C0           XOR    AX,AX 
1149:11DA 50             PUSH   AX 
1149:11DB 9A68132814     CALL   1428:1368 
1149:11E0 9AA0122814     CALL   1428:12A0 
1149:11E5 89EC           MOV    SP,BP 
1149:11E7 5D             POP    BP 
1149:11E8 C3             RET

; -----------------------------------------------------------------------------
;
; -----------------------------------------------------------------------------

1149:11E0  9A A0 12 0B 18 89 EC 5D-C3 0B 50 61 73 73 61 67  . ....l]C.Passag
1149:11F0  65 20 64 65 20 03 20 85-20 07 20 6F 63 74 65 74  e de . . . octet
1149:1200  73 30 44 82 73 6F 6C 82-2C 20 6C 65 20 63 6F 6D  s0D.sol., le com
1149:1210  70 61 63 74 61 67 65 20-6E 27 61 20 70 61 73 20  pactage n'a pas
1149:1220  82 74 82 20 61 73 73 65-7A 20 65 66 66 69 63 61  .t. assez effica
1149:1230  63 65 14 4A 27 65 66 66-61 63 65 20 6C 65 20 66  ce.J'efface le f
1149:1240  69 63 68 69 65 72 20 06-47 61 69 6E 3A 20 0A 20  ichier .Gain: .
1149:1250  6F 63 74 65 74 73 20 20-28 02 25 29 0B 6A 65 20  octets  (.%).je
1149:1260  72 65 6E 6F 6D 6D 65 20-04 20 65 6E 20 03 65 74  renomme . en .et
1149:1270  20

; -----------------------------------------------------------------------------
;
; -----------------------------------------------------------------------------

1149:1271 55           * PUSH   BP
1149:1272 89E5           MOV    BP,SP 
1149:1274 B88200         MOV    AX,0082 
1149:1277 9A44022814     CALL   1428:0244   ; kontrola p©ete‡en¡ z sobn¡ku
1149:127C 81EC8200       SUB    SP,0082 
1149:1280 BF36C6         MOV    DI,C636 
1149:1283 1E             PUSH   DS 
1149:1284 57             PUSH   DI 
1149:1285 9AA0122814     CALL   1428:12A0 
1149:128A BF36C6         MOV    DI,C636 
1149:128D 1E             PUSH   DS 
1149:128E 57             PUSH   DI 
1149:128F BFE911         MOV    DI,11E9 
1149:1292 0E             PUSH   CS 
1149:1293 57             PUSH   DI 
1149:1294 31C0           XOR    AX,AX 
1149:1296 50             PUSH   AX 
1149:1297 9A68132814     CALL   1428:1368 
1149:129C FF36A800       PUSH   [00A8] 
1149:12A0 FF36A600       PUSH   [00A6] 
1149:12A4 31C0           XOR    AX,AX 
1149:12A6 50             PUSH   AX 
1149:12A7 9AFE132814     CALL   1428:13FE 
1149:12AC BFF511         MOV    DI,11F5 
1149:12AF 0E             PUSH   CS 
1149:12B0 57             PUSH   DI 
1149:12B1 31C0           XOR    AX,AX 
1149:12B3 50             PUSH   AX 
1149:12B4 9A68132814     CALL   1428:1368 
1149:12B9 FF36A400       PUSH   [00A4] 
1149:12BD FF36A200       PUSH   [00A2] 
1149:12C1 31C0           XOR    AX,AX 
1149:12C3 50             PUSH   AX 
1149:12C4 9AFE132814     CALL   1428:13FE 
1149:12C9 BFF911         MOV    DI,11F9 
1149:12CC 0E             PUSH   CS 
1149:12CD 57             PUSH   DI 
1149:12CE 31C0           XOR    AX,AX 
1149:12D0 50             PUSH   AX 
1149:12D1 9A68132814     CALL   1428:1368 
1149:12D6 9AA0122814     CALL   1428:12A0 
1149:12DB C406A200       LES    AX,[00A2] 
1149:12DF 8CC2           MOV    DX,ES 
1149:12E1 3B16A800       CMP    DX,[00A8] 
1149:12E5 7F08           JG     12EF 
1149:12E7 7C58           JL     1341 
1149:12E9 3B06A600       CMP    AX,[00A6] 
1149:12ED 7252           JB     1341 
1149:12EF BF36C6         MOV    DI,C636 
1149:12F2 1E             PUSH   DS 
1149:12F3 57             PUSH   DI 
1149:12F4 9AA0122814     CALL   1428:12A0 
1149:12F9 BF36C6         MOV    DI,C636 
1149:12FC 1E             PUSH   DS 
1149:12FD 57             PUSH   DI 
1149:12FE BF0112         MOV    DI,1201 
1149:1301 0E             PUSH   CS 
1149:1302 57             PUSH   DI 
1149:1303 31C0           XOR    AX,AX 
1149:1305 50             PUSH   AX 
1149:1306 9A68132814     CALL   1428:1368 
1149:130B 9AA0122814     CALL   1428:12A0 
1149:1310 BF36C6         MOV    DI,C636 
1149:1313 1E             PUSH   DS 
1149:1314 57             PUSH   DI 
1149:1315 BF3212         MOV    DI,1232 
1149:1318 0E             PUSH   CS 
1149:1319 57             PUSH   DI 
1149:131A 31C0           XOR    AX,AX 
1149:131C 50             PUSH   AX 
1149:131D 9A68132814     CALL   1428:1368 
1149:1322 BF4C02         MOV    DI,024C 
1149:1325 1E             PUSH   DS 
1149:1326 57             PUSH   DI 
1149:1327 31C0           XOR    AX,AX 
1149:1329 50             PUSH   AX 
1149:132A 9A68132814     CALL   1428:1368 
1149:132F 9AA0122814     CALL   1428:12A0 
1149:1334 BF2A01         MOV    DI,012A 
1149:1337 1E             PUSH   DS 
1149:1338 57             PUSH   DI 
1149:1339 9A3F172814     CALL   1428:173F 
1149:133E E97601         JMP    14B7 
1149:1341 BF36C6         MOV    DI,C636 
1149:1344 1E             PUSH   DS 
1149:1345 57             PUSH   DI 
1149:1346 BF4712         MOV    DI,1247 
1149:1349 0E             PUSH   CS 
1149:134A 57             PUSH   DI 
1149:134B 31C0           XOR    AX,AX 
1149:134D 50             PUSH   AX 
1149:134E 9A68132814     CALL   1428:1368 
1149:1353 C406A600       LES    AX,[00A6] 
1149:1357 8CC2           MOV    DX,ES 
1149:1359 2B06A200       SUB    AX,[00A2] 
1149:135D 1B16A400       SBB    DX,[00A4] 
1149:1361 52             PUSH   DX 
1149:1362 50             PUSH   AX 
1149:1363 31C0           XOR    AX,AX 
1149:1365 50             PUSH   AX 
1149:1366 9AFE132814     CALL   1428:13FE 
1149:136B BF4E12         MOV    DI,124E 
1149:136E 0E             PUSH   CS 
1149:136F 57             PUSH   DI 
1149:1370 31C0           XOR    AX,AX 
1149:1372 50             PUSH   AX 
1149:1373 9A68132814     CALL   1428:1368 
1149:1378 C406A600       LES    AX,[00A6] 
1149:137C 8CC2           MOV    DX,ES 
1149:137E 9AFC0A2814     CALL   1428:0AFC 
1149:1383 52             PUSH   DX 
1149:1384 53             PUSH   BX 
1149:1385 50             PUSH   AX 
1149:1386 C406A200       LES    AX,[00A2] 
1149:138A 8CC2           MOV    DX,ES 
1149:138C 9AFC0A2814     CALL   1428:0AFC 
1149:1391 59             POP    CX 
1149:1392 5E             POP    SI 
1149:1393 5F             POP    DI 
1149:1394 9AEE0A2814     CALL   1428:0AEE 
1149:1399 52             PUSH   DX 
1149:139A 53             PUSH   BX 
1149:139B 50             PUSH   AX 
1149:139C B88100         MOV    AX,0081 
1149:139F 31DB           XOR    BX,BX 
1149:13A1 31D2           XOR    DX,DX 
1149:13A3 59             POP    CX 
1149:13A4 5E             POP    SI 
1149:13A5 5F             POP    DI 
1149:13A6 9ADC0A2814     CALL   1428:0ADC 
1149:13AB B98700         MOV    CX,0087 
1149:13AE 31F6           XOR    SI,SI 
1149:13B0 BF0048         MOV    DI,4800 
1149:13B3 9AE80A2814     CALL   1428:0AE8 
1149:13B8 52             PUSH   DX 
1149:13B9 53             PUSH   BX 
1149:13BA 50             PUSH   AX 
1149:13BB 31C0           XOR    AX,AX 
1149:13BD 50             PUSH   AX 
1149:13BE B80200         MOV    AX,0002 
1149:13C1 50             PUSH   AX 
1149:13C2 9AA1142814     CALL   1428:14A1 
1149:13C7 BF5912         MOV    DI,1259 
1149:13CA 0E             PUSH   CS 
1149:13CB 57             PUSH   DI 
1149:13CC 31C0           XOR    AX,AX 
1149:13CE 50             PUSH   AX 
1149:13CF 9A68132814     CALL   1428:1368 
1149:13D4 9AA0122814     CALL   1428:12A0 
1149:13D9 BF36C6         MOV    DI,C636 
1149:13DC 1E             PUSH   DS 
1149:13DD 57             PUSH   DI 
1149:13DE 9AA0122814     CALL   1428:12A0 
1149:13E3 BF36C6         MOV    DI,C636 
1149:13E6 1E             PUSH   DS 
1149:13E7 57             PUSH   DI 
1149:13E8 BF5C12         MOV    DI,125C 
1149:13EB 0E             PUSH   CS 
1149:13EC 57             PUSH   DI 
1149:13ED 31C0           XOR    AX,AX 
1149:13EF 50             PUSH   AX 
1149:13F0 9A68132814     CALL   1428:1368 
1149:13F5 BFAC01         MOV    DI,01AC 
1149:13F8 1E             PUSH   DS 
1149:13F9 57             PUSH   DI 
1149:13FA 31C0           XOR    AX,AX 
1149:13FC 50             PUSH   AX 
1149:13FD 9A68132814     CALL   1428:1368 
1149:1402 BF6812         MOV    DI,1268 
1149:1405 0E             PUSH   CS 
1149:1406 57             PUSH   DI 
1149:1407 31C0           XOR    AX,AX 
1149:1409 50             PUSH   AX 
1149:140A 9A68132814     CALL   1428:1368 
1149:140F BF9C02         MOV    DI,029C 
1149:1412 1E             PUSH   DS 
1149:1413 57             PUSH   DI 
1149:1414 31C0           XOR    AX,AX 
1149:1416 50             PUSH   AX 
1149:1417 9A68132814     CALL   1428:1368 
1149:141C 9AA0122814     CALL   1428:12A0 
1149:1421 8D7E80         LEA    DI,[BP-80] 
1149:1424 16             PUSH   SS 
1149:1425 57             PUSH   DI 
1149:1426 BF9C02         MOV    DI,029C 
1149:1429 1E             PUSH   DS 
1149:142A 57             PUSH   DI 
1149:142B 9A02152814     CALL   1428:1502 
1149:1430 8D7E80         LEA    DI,[BP-80] 
1149:1433 16             PUSH   SS 
1149:1434 57             PUSH   DI 
1149:1435 8DBE7EFF       LEA    DI,[BP+FF7E] 
1149:1439 16             PUSH   SS 
1149:143A 57             PUSH   DI 
1149:143B 9A00002314     CALL   1423:0000 
1149:1440 833E34C500     CMP    Word Ptr [C534],+00 
1149:1445 750A           JNZ    1451 
1149:1447 8D7E80         LEA    DI,[BP-80] 
1149:144A 16             PUSH   SS 
1149:144B 57             PUSH   DI 
1149:144C 9A3F172814     CALL   1428:173F 
1149:1451 BFAA00         MOV    DI,00AA 
1149:1454 1E             PUSH   DS 
1149:1455 57             PUSH   DI 
1149:1456 BF9C02         MOV    DI,029C 
1149:1459 1E             PUSH   DS 
1149:145A 57             PUSH   DI 
1149:145B 9A56172814     CALL   1428:1756 
1149:1460 BF36C6         MOV    DI,C636 
1149:1463 1E             PUSH   DS 
1149:1464 57             PUSH   DI 
1149:1465 BF6D12         MOV    DI,126D 
1149:1468 0E             PUSH   CS 
1149:1469 57             PUSH   DI 
1149:146A 31C0           XOR    AX,AX 
1149:146C 50             PUSH   AX 
1149:146D 9A68132814     CALL   1428:1368 
1149:1472 BF4C02         MOV    DI,024C 
1149:1475 1E             PUSH   DS 
1149:1476 57             PUSH   DI 
1149:1477 31C0           XOR    AX,AX 
1149:1479 50             PUSH   AX 
1149:147A 9A68132814     CALL   1428:1368 
1149:147F BF6812         MOV    DI,1268 
1149:1482 0E             PUSH   CS 
1149:1483 57             PUSH   DI 
1149:1484 31C0           XOR    AX,AX 
1149:1486 50             PUSH   AX 
1149:1487 9A68132814     CALL   1428:1368 
1149:148C BFFC01         MOV    DI,01FC 
1149:148F 1E             PUSH   DS 
1149:1490 57             PUSH   DI 
1149:1491 31C0           XOR    AX,AX 
1149:1493 50             PUSH   AX 
1149:1494 9A68132814     CALL   1428:1368 
1149:1499 9AA0122814     CALL   1428:12A0 
1149:149E BF2A01         MOV    DI,012A 
1149:14A1 1E             PUSH   DS 
1149:14A2 57             PUSH   DI 
1149:14A3 BFFC01         MOV    DI,01FC 
1149:14A6 1E             PUSH   DS 
1149:14A7 57             PUSH   DI 
1149:14A8 9A56172814     CALL   1428:1756 
1149:14AD BF36C6         MOV    DI,C636 
1149:14B0 1E             PUSH   DS 
1149:14B1 57             PUSH   DI 
1149:14B2 9AA0122814     CALL   1428:12A0 
1149:14B7 89EC           MOV    SP,BP 
1149:14B9 5D             POP    BP 
1149:14BA C3             RET

; -----------------------------------------------------------------------------
;
; -----------------------------------------------------------------------------

1149:14B0  1E 57 9A A0 12 0B 18 89-EC 5D C3 01 2E 04 2E 45  .W. ....l]C....E
1149:14C0  58 45 03 4F 4C 44 09 4C-5A 45 58 45 2E 54 4D 50  XE.OLD.LZEXE.TMP

; -----------------------------------------------------------------------------
;
; -----------------------------------------------------------------------------

1149:14D0 55           * PUSH   BP
1149:14D1 89E5           MOV    BP,SP 
1149:14D3 B80201         MOV    AX,0102 
1149:14D6 9A44022814     CALL   1428:0244   ; kontrola p©ete‡en¡ z sobn¡ku
1149:14DB 81EC0201       SUB    SP,0102 
1149:14DF 8DBEFEFE       LEA    DI,[BP+FEFE] 
1149:14E3 16             PUSH   SS 
1149:14E4 57             PUSH   DI 
1149:14E5 9A44000C13     CALL   130C:0044 
1149:14EA BFAC01         MOV    DI,01AC 
1149:14ED 1E             PUSH   DS 
1149:14EE 57             PUSH   DI 
1149:14EF B84F00         MOV    AX,004F 
1149:14F2 50             PUSH   AX 
1149:14F3 9A36062814     CALL   1428:0636 
1149:14F8 803EAC0100     CMP    Byte Ptr [01AC],00 
1149:14FD 7503           JNZ    1502 
1149:14FF E8CCEC         CALL   01CE 
1149:1502 BFBB14         MOV    DI,14BB 
1149:1505 0E             PUSH   CS 
1149:1506 57             PUSH   DI 
1149:1507 BFAC01         MOV    DI,01AC 
1149:150A 1E             PUSH   DS 
1149:150B 57             PUSH   DI 
1149:150C 9AD5062814     CALL   1428:06D5 
1149:1511 09C0           OR     AX,AX 
1149:1513 7528           JNZ    153D 
1149:1515 8DBEFEFE       LEA    DI,[BP+FEFE] 
1149:1519 16             PUSH   SS 
1149:151A 57             PUSH   DI 
1149:151B BFAC01         MOV    DI,01AC 
1149:151E 1E             PUSH   DS 
1149:151F 57             PUSH   DI 
1149:1520 9A1C062814     CALL   1428:061C 
1149:1525 BFBD14         MOV    DI,14BD 
1149:1528 0E             PUSH   CS 
1149:1529 57             PUSH   DI 
1149:152A 9AA9062814     CALL   1428:06A9 
1149:152F BFAC01         MOV    DI,01AC 
1149:1532 1E             PUSH   DS 
1149:1533 57             PUSH   DI 
1149:1534 B84F00         MOV    AX,004F 
1149:1537 50             PUSH   AX 
1149:1538 9A36062814     CALL   1428:0636 
1149:153D BFAC01         MOV    DI,01AC 
1149:1540 1E             PUSH   DS 
1149:1541 57             PUSH   DI 
1149:1542 BF9C02         MOV    DI,029C 
1149:1545 1E             PUSH   DS 
1149:1546 57             PUSH   DI 
1149:1547 B84F00         MOV    AX,004F 
1149:154A 50             PUSH   AX 
1149:154B 9A36062814     CALL   1428:0636 
1149:1550 A09C02         MOV    AL,[029C] 
1149:1553 30E4           XOR    AH,AH 
1149:1555 8BF8           MOV    DI,AX 
1149:1557 80BD9C022E     CMP    Byte Ptr [DI+029C],2E         ;'.' 
1149:155C 7406           JZ     1564 
1149:155E FE0E9C02       DEC    Byte Ptr [029C] 
1149:1562 EBEC           JMP    1550 
1149:1564 8DBEFEFE       LEA    DI,[BP+FEFE] 
1149:1568 16             PUSH   SS 
1149:1569 57             PUSH   DI 
1149:156A BF9C02         MOV    DI,029C 
1149:156D 1E             PUSH   DS 
1149:156E 57             PUSH   DI 
1149:156F 9A1C062814     CALL   1428:061C 
1149:1574 BFC214         MOV    DI,14C2 
1149:1577 0E             PUSH   CS 
1149:1578 57             PUSH   DI 
1149:1579 9AA9062814     CALL   1428:06A9 
1149:157E BF9C02         MOV    DI,029C 
1149:1581 1E             PUSH   DS 
1149:1582 57             PUSH   DI 
1149:1583 B84F00         MOV    AX,004F 
1149:1586 50             PUSH   AX 
1149:1587 9A36062814     CALL   1428:0636 
1149:158C BFC614         MOV    DI,14C6 
1149:158F 0E             PUSH   CS 
1149:1590 57             PUSH   DI 
1149:1591 BF4C02         MOV    DI,024C 
1149:1594 1E             PUSH   DS 
1149:1595 57             PUSH   DI 
1149:1596 B84F00         MOV    AX,004F 
1149:1599 50             PUSH   AX 
1149:159A 9A36062814     CALL   1428:0636 
1149:159F C606FC0100     MOV    Byte Ptr [01FC],00 
1149:15A4 A0AC01         MOV    AL,[01AC] 
1149:15A7 8846FF         MOV    [BP-01],AL 
1149:15AA 8A46FF         MOV    AL,[BP-01] 
1149:15AD 30E4           XOR    AH,AH 
1149:15AF 8BF8           MOV    DI,AX 
1149:15B1 80BDAC015C     CMP    Byte Ptr [DI+01AC],5C         ;'\' 
1149:15B6 7448           JZ     1600 
1149:15B8 8A46FF         MOV    AL,[BP-01] 
1149:15BB 30E4           XOR    AH,AH 
1149:15BD 8BF8           MOV    DI,AX 
1149:15BF 80BDAC013A     CMP    Byte Ptr [DI+01AC],3A         ;':' 
1149:15C4 743A           JZ     1600 
1149:15C6 807EFF00       CMP    Byte Ptr [BP-01],00 
1149:15CA 7634           JBE    1600 
1149:15CC 8DBEFEFE       LEA    DI,[BP+FEFE] 
1149:15D0 16             PUSH   SS 
1149:15D1 57             PUSH   DI 
1149:15D2 8A46FF         MOV    AL,[BP-01] 
1149:15D5 30E4           XOR    AH,AH 
1149:15D7 8BF8           MOV    DI,AX 
1149:15D9 8A85AC01       MOV    AL,[DI+01AC] 
1149:15DD 50             PUSH   AX 
1149:15DE 9A37072814     CALL   1428:0737 
1149:15E3 BFFC01         MOV    DI,01FC 
1149:15E6 1E             PUSH   DS 
1149:15E7 57             PUSH   DI 
1149:15E8 9AA9062814     CALL   1428:06A9 
1149:15ED BFFC01         MOV    DI,01FC 
1149:15F0 1E             PUSH   DS 
1149:15F1 57             PUSH   DI 
1149:15F2 B84F00         MOV    AX,004F 
1149:15F5 50             PUSH   AX 
1149:15F6 9A36062814     CALL   1428:0636 
1149:15FB FE4EFF         DEC    Byte Ptr [BP-01] 
1149:15FE EBAA           JMP    15AA 
1149:1600 89EC           MOV    SP,BP 
1149:1602 5D             POP    BP 
1149:1603 C3             RET


114E:1604              32 4C 5A 45-58 45 2E 45 58 45 20 20      2LZEXE.EXE
114E:1610  56 65 72 73 69 6F 6E 20-30 2E 39 31 20 20 20 28  Version 0.91   (
114E:1620  63 29 20 31 39 38 39 20-46 61 62 72 69 63 65 20  c) 1989 Fabrice 
114E:1630  42 45 4C 4C 41 52 44 30-43 6F 6D 70 61 63 74 65  BELLARD0Compacte
114E:1640  75 72 20 85 20 68 61 75-74 65 73 20 70 65 72 66  ur . hautes perf
114E:1650  6F 72 6D 61 6E 63 65 73-20 64 65 20 66 69 63 68  ormances de fich
114E:1660  69 65 72 73 20 45 58 45-9A 00 00 2D 14 9A 00 00  iers EXE...-....

; *****************************************************************************
;
;                            start programu
;
; *****************************************************************************

1149:1668 9A00002814     CALL   1428:0000
1149:166D 9A0000C113     CALL   13C1:0000 
1149:1672 9A95070C13     CALL   130C:0795 
1149:1677 55             PUSH   BP 
1149:1678 89E5           MOV    BP,SP 
1149:167A BF36C6         MOV    DI,C636 
1149:167D 1E             PUSH   DS 
1149:167E 57             PUSH   DI 
1149:167F BF0416         MOV    DI,1604 
1149:1682 0E             PUSH   CS 
1149:1683 57             PUSH   DI 
1149:1684 31C0           XOR    AX,AX 
1149:1686 50             PUSH   AX 
1149:1687 9A68132814     CALL   1428:1368 
1149:168C 9AA0122814     CALL   1428:12A0 
1149:1691 BF36C6         MOV    DI,C636 
1149:1694 1E             PUSH   DS 
1149:1695 57             PUSH   DI 
1149:1696 BF3716         MOV    DI,1637 
1149:1699 0E             PUSH   CS 
1149:169A 57             PUSH   DI 
1149:169B 31C0           XOR    AX,AX 
1149:169D 50             PUSH   AX 
1149:169E 9A68132814     CALL   1428:1368 
1149:16A3 9AA0122814     CALL   1428:12A0 
1149:16A8 BF36C6         MOV    DI,C636 
1149:16AB 1E             PUSH   DS 
1149:16AC 57             PUSH   DI 
1149:16AD 9AA0122814     CALL   1428:12A0 
1149:16B2 E81BFE         CALL   14D0 
1149:16B5 E888F1         CALL   0840 
1149:16B8 E8B6FB         CALL   1271 
1149:16BB 89EC           MOV    SP,BP 
1149:16BD 5D             POP    BP 
1149:16BE 31C0           XOR    AX,AX 
1149:16C0 9AD8002814     CALL   1428:00D8 


; *****************************************************************************
;
;                    Program pro dekompresi
;
; *****************************************************************************

; -----------------------------------------------------------------------------
;        p©esun dekod‚ru za nov˜ konec programu
; -----------------------------------------------------------------------------

1149:16C5 06             PUSH   ES          ; £schova segmentu PSP
1149:16C6 0E             PUSH   CS          
1149:16C7 1F             POP    DS          ; DS <- CS
1149:16C8 8B0E0C00       MOV    CX,[000C]   ; 290h konec programu pro dek¢dov n¡
1149:16CC 8BF1           MOV    SI,CX       ; konec programu
1149:16CE 4E             DEC    SI          ; posledn¡ bajt programu
1149:16CF 89F7           MOV    DI,SI       ; posledn¡ bajt programu
1149:16D1 8CDB           MOV    BX,DS       ; BX <- CS
1149:16D3 031E0A00       ADD    BX,[000A]   ; nov  adresa dekod‚ru
1149:16D7 8EC3           MOV    ES,BX       ; c¡lov˜ segment
1149:16D9 FD             STD                ; smˆr dol–
1149:16DA F3             REPZ               
1149:16DB A4             MOVSB              ; p©esun dekod‚ru nahoru
1149:16DC 53             PUSH   BX          ; c¡lov˜ segment
1149:16DD B82B00         MOV    AX,002B     ; offset adresy pokra‡ov n¡
1149:16E0 50             PUSH   AX          ; offset adresy pokra‡ov n¡
1149:16E1 CB             RETF               ; skok do kopie dekod‚ru

; -----------------------------------------------------------------------------
;        p©esun zkomprimovan‚ho programu nahoru ke sv‚mu nov‚mu konci
; -----------------------------------------------------------------------------

1149:16E2 2E8B2E0800     MOV    BP,CS:[0008]
1149:16E7 8CDA           MOV    DX,DS       ; DX <- DS (p–vodn¡ segment CS 141f)

1149:16E9 89E8           MOV    AX,BP       ; d‚lka zkomprimovan‚ho programu
1149:16EB 3D0010         CMP    AX,1000     ; program vˆt¨¡ ne‘ 64 KB ?
1149:16EE 7603           JBE    16F3        ; nen¡ vˆt¨¡ ne‘ 64 KB
1149:16F0 B80010         MOV    AX,1000     ; omezen¡ na 64 KB

1149:16F3 29C5           SUB    BP,AX       ; sn¡‘en¡ celkov‚ velikosti
1149:16F5 29C2           SUB    DX,AX       ; sn¡‘en¡ zdrojov‚ adresy
1149:16F7 29C3           SUB    BX,AX       ; sn¡‘en¡ c¡lov‚ adresy
1149:16F9 8EDA           MOV    DS,DX       ; zdrojov  adresa
1149:16FB 8EC3           MOV    ES,BX       ; c¡lov  adresa
1149:16FD B103           MOV    CL,03       ; po‡et rotac¡ pro p©evod na slova
1149:16FF D3E0           SHL    AX,CL       ; p©evod na slova
1149:1701 89C1           MOV    CX,AX       ; d‚lka ve slovech
1149:1703 D1E0           SHL    AX,1        ; d‚lka v bajtech
1149:1705 48             DEC    AX          ; posledn¡ bajt
1149:1706 48             DEC    AX          ; posledn¡ slovo
1149:1707 8BF0           MOV    SI,AX       ; konec zdrojov‚ adresy
1149:1709 8BF8           MOV    DI,AX       ; konec c¡lov‚ adresy
1149:170B F3             REPZ               
1149:170C A5             MOVSW              ; p©esun ‡ sti programu nahoru
1149:170D 09ED           OR     BP,BP       ; je konec programu ?
1149:170F 75D8           JNZ    16E9        ; nen¡ konec - p©esun dal¨¡ ‡ sti

; -----------------------------------------------------------------------------
;        dekomprese programu
; -----------------------------------------------------------------------------

; Struktura:
;  -  zkomprimovan  data jsou prokl d na p©¡znakov˜mi slovy - pokud se nast© d 
;     v¨ech 16 bit– p©¡znakov‚ho slova, slovo se ulo‘¡ do dat a st© d  se dal¨¡
;     slovo. Prvn¡m slovem dat je p©¡znakov‚ slovo.
;                                          ÚÄÄÄÂÄÄÄ¿
;                                          ³ 0   1 ³
;                                          ÀÄÂÄÁÄÂÄÙ
;                             ÚÄÄÄÄÄÄÄÄÄÄÄÄÄÄÙ   ÀÄÄÄÄÄÄÄÄÄÄÄÄÄÄÄÄÄÄÄ¿
;                         ÚÄÄÄÅÄÄÄ¿                              (1 Bajt)
;                         ³ 0   1 ³                        ÚÄÄÄÄÄÄÄÄÄÁÄÄÄÄÄÄÄÄÄ¿
;                         ÀÄÂÄÁÄÂÄÙ                        ³ 1 bajt se p©enese ³
;               ÚÄÄÄÄÄÄÄÄÄÄÄÙ   ÀÄÄÄÄÄÄÄÄÄÄÄÄÄÄÄÄÄÄÄÄÄÄ¿   ³     beze zmˆny    ³
;           ÚÄÄÄÅÄÄÄ¿                                  ³   ÀÄÄÄÄÄÄÄÄÄÄÄÄÄÄÄÄÄÄÄÙ
;           ³ x   x ³                                  ³
;           ÀÄÄÄÅÄÄÄÙ                                  ³
;           (1 Bajt)                        ÚÄÄÄÄÄÄ(2 Bajty)ÄÄÄÄÄÄÄÄ¿
; ÚÄÄÄÄÄÄÄÄÄÄÄÄÄÁÄÄÄÄÄÄÄÄÄÄÄÄÄÄÄ¿           ³          ÚÄÄÄÄÄÄÄÄÄÄÄÄÁÄÄÄÄÄÄÄÄÄÄ¿
; ³      opakov n¡ ©etˆzce      ³    bity 8 a‘ 10 = 0  ³  opakov n¡ ©etˆzce    ³
; ÃÄÄÄÄÄÄÄÄÄÄÄÄÄÄÄÄÄÄÄÄÄÄÄÄÄÄÄÄÄ´           ³          ÃÄÄÄÄÄÄÄÄÄÄÄÄÄÄÄÄÄÄÄÄÄÄÄ´
; ³   2 bity p©¡znak– ud vaj¡   ³           ³          ³ bity 0 - 7 a 11 - 15  ³
; ³ d‚lku ©etˆzce 2 a‘ 5 bajt–, ³           ³          ³ ud vaj¡ offset ©etˆzce³
; ³ 1 bajt z dat ud v  offset   ³           ³          ³  od ukl dac¡ adresy   ³
; ³    od ukl dac¡ adresy       ³           ³          ³-8192(=0) a‘ -1(=1fff),³
; ³  -256 (=0) a‘ -1 (=0ffh)    ³           ³          ³ bity 8 a‘ 10 ud vaj¡  ³
; ÀÄÄÄÄÄÄÄÄÄÄÄÄÄÄÄÄÄÄÄÄÄÄÄÄÄÄÄÄÄÙ           ³          ³  d‚lku 3 (=1) a‘ 9 B  ³
;                                           ³          ÀÄÄÄÄÄÄÄÄÄÄÄÄÄÄÄÄÄÄÄÄÄÄÄÙ
;             ÚÄÄÄÄÄÄÄÄÄÄÄÄÄÄÄÄÄÄÄÄÄÄÄÄÄÄ(1 Bajt)ÄÄÄÄÄÄÄÄÄÄÄÄÄÄÄÄÄÄ¿
;         bajt = 0                          ³          ÚÄÄÄÄÄÄÄÄÄÄÄÁÄÄÄÄÄÄÄÄÄÄÄ¿
;             ³                   ÚÄÄÄÄÄÄÄÄÄÙ          ³  opakov n¡ ©etˆzce    ³
;             ³              bajt = 1                  ÃÄÄÄÄÄÄÄÄÄÄÄÄÄÄÄÄÄÄÄÄÄÄÄ´
;             ³        ÚÄÄÄÄÄÄÄÄÄÄÁÄÄÄÄÄÄÄÄÄÄÄÄÄÄ¿     ³ bity 0 - 7 a 11 - 15  ³
;             ³        ³   normalizace zdrojov‚  ³     ³  p©ede¨l‚ho datov‚ho  ³
;             ³        ³  a c¡lov‚ adresy        ³     ³  slova ud vaj¡ offset ³
;             ³        ³  dekomprese dat         ³     ³  ©etˆzce od ukl dac¡  ³
;             ³        ³ - c¡lov  se normalizuje ³     ³ adresy -8192 (=0) a‘  ³
;             ³        ³  na offset minim lnˆ    ³     ³ -1 (=1fffh), dal¨¡    ³
;             ³        ³   2000h (rezerva pro    ³     ³datov˜ bajt ud v  d‚lku³
;             ³        ³      buffer 8 KB)       ³     ³ 3 (=2) a‘ 256 (=0ffh) ³
;             ³        ÀÄÄÄÄÄÄÄÄÄÄÄÄÄÄÄÄÄÄÄÄÄÄÄÄÄÙ     ÀÄÄÄÄÄÄÄÄÄÄÄÄÄÄÄÄÄÄÄÄÄÄÄÙ
;       konec dekomprese

1149:1711 FC             CLD                ; smˆr nahoru
1149:1712 8EC2           MOV    ES,DX       ; segment za‡ tku k ulo‘en¡ programu
1149:1714 8EDB           MOV    DS,BX       ; segment za‡ tku star‚ho programu
1149:1716 31F6           XOR    SI,SI       ; za‡ tek adresy star‚ho programu
1149:1718 31FF           XOR    DI,DI       ; za‡ tek k ulo‘en¡ programu
1149:171A BA1000         MOV    DX,0010     ; ‡¡ta‡ k ‡¡t n¡ bit– p©¡znak–
1149:171D AD             LODSW              ; na‡ten¡ prvn¡ho slova p©¡znak–
1149:171E 89C5           MOV    BP,AX       ; slovo p©¡znak–

; ------- p©¡pad p©enesen¡ bajtu beze zmˆny (stav 1, 8b dat)

1149:1720 D1ED           SHR    BP,1        ; rotace p©¡znaku
1149:1722 4A             DEC    DX          ; sn¡‘en¡ ‡¡ta‡e bit– p©¡znak–
1149:1723 7505           JNZ    172A        ; nejsou je¨tˆ v¨echny bity p©¡znak–
1149:1725 AD             LODSW              ; na‡ten¡ dal¨¡ho slova p©¡znak–
1149:1726 89C5           MOV    BP,AX       ; slovo p©¡znak–
1149:1728 B210           MOV    DL,10       ; nov˜ ‡¡ta‡ bit– p©¡znak–
1149:172A 7303           JNB    172F        ; nen¡ jednoduch˜ p©enos bajtu
1149:172C A4             MOVSB              ; p©enos jednoho bajtu dat
1149:172D EBF1           JMP    1720        ; dal¨¡ bajt programu

; ------- rozli¨en¡ typu opakov n¡ ©etˆzce

1149:172F 31C9           XOR    CX,CX       ; CX <- 0
1149:1731 D1ED           SHR    BP,1        ; rotace dal¨¡ho p©¡znaku
1149:1733 4A             DEC    DX          ; sn¡‘en¡ ‡¡ta‡e bit– p©¡znak–
1149:1734 7505           JNZ    173B        ; nejsou je¨tˆ v¨echny bity
1149:1736 AD             LODSW              ; dal¨¡ slovo p©¡znak–
1149:1737 89C5           MOV    BP,AX       ; dal¨¡ slovo p©¡znak–
1149:1739 B210           MOV    DL,10       ; nov˜ ‡¡ta‡ p©¡znak–
1149:173B 7222           JB     175F        ; je opakov n¡ ©etˆzce

; ------- p©¡pad opakov n¡ ©etˆzce 2 a‘ 5 bajt– (stav 00 + 2b d‚lka, 8b offset)

1149:173D D1ED           SHR    BP,1        ; rotace dal¨¡ho bitu p©¡znaku
1149:173F 4A             DEC    DX          ; sn¡‘en¡ ‡¡ta‡e bit– p©¡znak–
1149:1740 7505           JNZ    1747        ; nejsou je¨tˆ v¨echny bity
1149:1742 AD             LODSW              ; dal¨¡ slovo p©¡znak–
1149:1743 89C5           MOV    BP,AX       ; dal¨¡ slovo p©¡znak–
1149:1745 B210           MOV    DL,10       ; nov˜ ‡¡ta‡ bit– p©¡znak–
1149:1747 D1D1           RCL    CX,1        ; CX <- CY p©enos bitu p©¡znaku
1149:1749 D1ED           SHR    BP,1        ; rotace dal¨¡ho bitu p©¡znaku
1149:174B 4A             DEC    DX          ; sn¡‘en¡ ‡¡ta‡e bit– p©¡znak–
1149:174C 7505           JNZ    1753        ; nejsou je¨tˆ v¨echny bity
1149:174E AD             LODSW              ; dal¨¡ slovo p©¡znak–
1149:174F 89C5           MOV    BP,AX       ; dal¨¡ slovo p©¡znak–
1149:1751 B210           MOV    DL,10       ; nov˜ ‡¡ta‡ bit– p©¡znak–
1149:1753 D1D1           RCL    CX,1        ; CX <- CY p©enos dal¨¡ho bitu
1149:1755 41             INC    CX          
1149:1756 41             INC    CX          ; po‡et bajt– = 2 a‘ 5 bajt–
1149:1757 AC             LODSB              ; offset ©etˆzce k opakov n¡
1149:1758 B7FF           MOV    BH,FF       ; vy¨¨¡ bajt offsetu 0FFh
1149:175A 8AD8           MOV    BL,AL       ; ni‘¨¡ bajt offsetu -256 a‘ -1
1149:175C E91300         JMP    1772        ; opakov n¡ ©etˆzce

; ------- p©¡pad opakov n¡ ©etˆzce 3 a‘ 9 bajt– (stav 01, 3b d‚lka + 13b offset)

1149:175F AD             LODSW              ; offset a d‚lka opakovan‚ho ©etˆzce
1149:1760 8BD8           MOV    BX,AX       ; offset a d‚lka opakovan‚ho ©etˆzce
1149:1762 B103           MOV    CL,03       ; po‡et rotac¡ pro p©evod
1149:1764 D2EF           SHR    BH,CL       ; adresa je v bitech 11 a‘ 15
1149:1766 80CFE0         OR     BH,E0       ; buffer je posunut o 8 KB dol–
1149:1769 80E407         AND    AH,07       ; po‡et bajt– ©etˆzce - 2
1149:176C 740C           JZ     177A        ; d‚lka ©etˆzce bude v dal¨¡m bajtu
1149:176E 88E1           MOV    CL,AH       ; po‡et bajt– ©etˆzce - 2
1149:1770 41             INC    CX          
1149:1771 41             INC    CX          ; po‡et bajt– + 2 (= 3 a‘ 9)
1149:1772 268A01         MOV    AL,ES:[BX+DI] ; odkazovan˜ bajt
1149:1775 AA             STOSB              ; ulo‘en¡ nov‚ho bajtu
1149:1776 E2FA           LOOP   1772        ; p©esun dal¨¡ho bajtu
1149:1778 EBA6           JMP    1720        ; dal¨¡ data

; ------- opakov n¡ ©etˆzce 3 a‘ 256 bajt– (stav 01, 3b=0 + 8b d‚lka + 13b off.)

1149:177A AC             LODSB              ; na‡ten¡ identifika‡n¡ho bajtu
1149:177B 08C0           OR     AL,AL       ; je konec dat ?
1149:177D 7434           JZ     17B3        ; je konec dat - start programu
1149:177F 3C01           CMP    AL,01       ; je normalizace adres ukazatel– ?
1149:1781 7405           JZ     1788        ; je normalizace adres ukazatel–
1149:1783 88C1           MOV    CL,AL       ; d‚lka ©etˆzce - 1
1149:1785 41             INC    CX          ; d‚lka ©etˆzce k p©esunu 3 a‘ 256
1149:1786 EBEA           JMP    1772        ; p©esun ji‘ existuj¡c¡ho ©etˆzce

; ------- normalizace c¡lov‚ adresy (ponech  se rezerva 8 KB)

1149:1788 89FB           MOV    BX,DI       ; offset c¡lov‚ adresy
1149:178A 83E70F         AND    DI,+0F      ; offset v odstavci
1149:178D 81C70020       ADD    DI,2000     ; rezerva bufferu 8 KB
1149:1791 B104           MOV    CL,04       ; po‡et rotac¡ pro p©evod na segment
1149:1793 D3EB           SHR    BX,CL       ; p©evod offsetu na segment
1149:1795 8CC0           MOV    AX,ES       ; c¡lov˜ segment
1149:1797 01D8           ADD    AX,BX       ; posun c¡lov‚ho segmentu
1149:1799 2D0002         SUB    AX,0200     ; ode‡ten¡ rezervy 8 KB
1149:179C 8EC0           MOV    ES,AX       ; segment c¡lov‚ adresy

; ------- normalizace zdrojov‚ adresy

1149:179E 89F3           MOV    BX,SI       ; offset zdrojov‚ adresy
1149:17A0 83E60F         AND    SI,+0F      ; offset v odstavci
1149:17A3 D3EB           SHR    BX,CL       ; p©evod offsetu na segment
1149:17A5 8CD8           MOV    AX,DS       ; segment zdrojov‚ adresy
1149:17A7 01D8           ADD    AX,BX       ; p©i‡ten¡ p©enosu z offsetu
1149:17A9 8ED8           MOV    DS,AX       ; nov  zdrojov  adresa
1149:17AB E972FF         JMP    1720        ; dal¨¡ data

; -----------------------------------------------------------------------------

                         '*FAB*'

; -----------------------------------------------------------------------------
;        relokace programu podle reloka‡n¡ tabulky
; -----------------------------------------------------------------------------

; Struktura reloka‡n¡ tabulky:
;                              ÚÄÄÄÄÄÄÄÄ¿
;             ÚÄÄÄÄÄÄÄÄÄÄÄÄÄÄÄÄ´ 1 bajt ÃÄÄÄÄÄÄÄÄÄÄÄÄÄÄÄÄÄÄÄÄ¿
;             ³                ÀÄÄÄÄÄÄÄÄÙ                    ³
;         bajt = 0                                   bajt = 1 a‘ 0ffh
;             ³                                              ³
;        ÚÄÄÄÄÁÄÄÄÄ¿                              ÚÄÄÄÄÄÄÄÄÄÄÁÄÄÄÄÄÄÄÄÄÄÄÄÄÄ¿
;        ³ 1 slovo ³                              ³ bajt se p©i‡te k adrese ÃÄÄ¿
;        ÀÄÄÄÄÂÄÄÄÄÙ                              ÀÄÄÄÄÄÄÄÄÄÄÄÄÄÄÄÄÄÄÄÄÄÄÄÄÄÙ  ³
;             ÃÄÄÄÄÄÄÄÄÄÄÄÄÄÄÄÄÄÄÄÄÂÄÄÄÄÄÄÄÄÄÄÄÄÄÄÄÄÄÄÄÄÄÄÄÄÄ¿                 ³
;         slovo = 1          slovo = 0             slovo = 2 a‘ 0ffffh         ³
;             ³           ÚÄÄÄÄÄÄÄÄÁÄÄÄÄÄÄÄ¿      ÚÄÄÄÄÄÄÄÄÄÄÁÄÄÄÄÄÄÄÄÄÄÄÄÄÄÄ¿ ³
;             ³           ³ posun segmentu ³      ³ slovo se p©i‡te k adrese ³ ³
;             ³           ³ adresy o 0fffh ³      ÀÄÄÄÄÄÄÄÄÄÄÂÄÄÄÄÄÄÄÄÄÄÄÄÄÄÄÙ ³
;             ³           ÀÄÄÄÄÄÄÄÄÄÄÄÄÄÄÄÄÙ                 ³                 ³
;             ³                                     ÚÄÄÄÄÄÄÄÄÁÄÄÄÄÄÄÄÄ¿        ³
;             ³                                     ³ R E L O K A C E ³<ÄÄÄÄÄÄÄÙ
;             ³                                     ÀÄÄÄÄÄÄÄÄÄÄÄÄÄÄÄÄÄÙ
;  konec relokace programu


1149:     0E           * PUSH   CS
1149:     1F             POP    DS          ; DS <- CS
1149:     BE5801         MOV    SI,0158     ; reloka‡n¡ tabulka programu
1149:     5B             POP    BX          ; n vrat uschovan‚ho segmentu PSP
1149:     83C310         ADD    BX,+10      ; segment za‡ tku programu
1149:     89DA           MOV    DX,BX       ; DX <- segment za‡ tku programu
1149:     31FF           XOR    DI,DI       ; DI <- offset za‡ tku programu

1149:     AC           * LODSB              ; na‡ten¡ bajtu offsetu adresy
1149:     08C0           OR     AL,AL       ; bude zmˆna adresy slovem ?

1149:17C3 7416           JZ     17DB        ; zmˆna adresy slovem

1149:17C5 B400           MOV    AH,00       ; bude zv˜¨en¡ adresy o max. 255
1149:17C7 01C7           ADD    DI,AX       ; zv˜¨en¡ offsetu programu
1149:17C9 8BC7           MOV    AX,DI       ; offset adresy
1149:17CB 83E70F         AND    DI,+0F      ; zbytek v paragrafu
1149:17CE B104           MOV    CL,04       ; po‡et rotac¡ pro p©evod na segment
1149:17D0 D3E8           SHR    AX,CL       ; p©evod adresy na segment
1149:17D2 01C2           ADD    DX,AX       ; nov  adresa segmentu
1149:17D4 8EC2           MOV    ES,DX       ; segment dal¨¡ polo‘ky
1149:17D6 26011D         ADD    ES:[DI],BX  ; relokace adresy v programu
1149:17D9 EBE5           JMP    17C0        ; relokace dal¨¡ polo‘ky


1149:17DB AD             LODSW              ; na‡ten¡ slova offsetu adresy
1149:17DC 09C0           OR     AX,AX       ; bude zmˆna segmentu ?
1149:17DE 7508           JNZ    17E8        ; nen¡ zmˆna segmentu
1149:17E0 81C2FF0F       ADD    DX,0FFF     ; zmˆna segmentu o 64 KB
1149:17E4 8EC2           MOV    ES,DX       ; nov˜ segment adresy
1149:17E6 EBD8           JMP    17C0        ; na‡ten¡ dal¨¡ adresy

1149:17E8 3D0100         CMP    AX,0001     ; je konec tabulky ?
1149:17EB 75DA           JNZ    17C7        ; nen¡ konec tabulky - relokace

; -----------------------------------------------------------------------------
;        inicializace registr– na p–vodn¡ stav pro program
; -----------------------------------------------------------------------------

1149:17ED 8BC3           MOV    AX,BX       ; adresa PSP
1149:17EF 8B3E0400       MOV    DI,[0004]   ; p–vodn¡ registr SP programu
1149:17F3 8B360600       MOV    SI,[0006]   ; p–vodn¡ registr SS programu
1149:17F7 01C6           ADD    SI,AX       ; relokace registru SS programu
1149:17F9 01060200       ADD    [0002],AX   ; relokace registru CS programu
1149:17FD 2D1000         SUB    AX,0010     ; n vrat adresy PSP
1149:1800 8ED8           MOV    DS,AX       ; DS <- adresa PSP
1149:1802 8EC0           MOV    ES,AX       ; ES <- adresa PSP
1149:1804 31DB           XOR    BX,BX       ; BX <- 0
1149:1806 FA             CLI                ; z kaz p©eru¨en¡
1149:1807 8ED6           MOV    SS,SI       ; SS <- p–vodn¡ registr SS programu
1149:1809 8BE7           MOV    SP,DI       ; SP <- p–vodn¡ registr SP programu
1149:180B FB             STI                ; povolen¡ p©eru¨en¡
1149:180C 2EFF2F         JMP    FAR CS:[BX] ; skok na p–vodn¡ adresu CS:IP


1149:1800  8E D8 8E C0 31 DB FA 8E-D6 8B E7 FB 2E FF 2F 00  .X.@1[z.V.g{../.
1149:1810  49 C9 CD CD CD CD CD CD-CD CD CD CD CD CD CD CD  IIMMMMMMMMMMMMMM
1149:1820  CD CD CD CD CD CD CD CD-CD CD CD CD CD CD CD CD  MMMMMMMMMMMMMMMM
1149:1830  CD CD CD CD CD CD CD CD-CD CD CD CD CD CD CD CD  MMMMMMMMMMMMMMMM
1149:1840  CD CD CD CD CD CD CD CD-CD CD CD CD CD CD CD CD  MMMMMMMMMMMMMMMM
1149:1850  CD CD CD CD CD CD CD CD-CD BB 49 BA 20 43 65 20  MMMMMMMMM;I: Ce
1149:1860  70 72 6F 67 72 61 6D 6D-65 20 61 20 82 74 82 20  programme a .t.
1149:1870  63 6F 6E 87 75 20 65 74-20 72 82 61 6C 69 73 82  con.u et r.alis.
1149:1880  20 70 61 72 20 46 61 62-72 69 63 65 20 42 45 4C   par Fabrice BEL
1149:1890  4C 41 52 44 20 71 75 69-20 61 20 64 82 63 69 64  LARD qui a d.cid
1149:18A0  82 20 20 BA 49 BA 20 67-82 6E 82 72 65 75 73 65  .  :I: g.n.reuse
1149:18B0  6D 65 6E 74 20 64 65 20-6C 65 20 6D 65 74 74 72  ment de le mettr
1149:18C0  65 20 65 6E 20 46 52 45-45 57 41 52 45 2E 20 20  e en FREEWARE.
1149:18D0  20 20 20 20 20 20 20 20-20 20 20 20 20 20 20 20
1149:18E0  20 20 20 20 20 20 20 20-20 20 20 20 20 BA 49 BA               :I:
1149:18F0  20 53 69 20 76 6F 75 73-20 61 76 65 7A 20 64 65   Si vous avez de
1149:1900  73 20 70 72 6F 62 6C 8A-6D 65 73 20 6F 75 20 64  s probl.mes ou d
1149:1910  65 73 20 73 75 67 67 65-73 74 69 6F 6E 73 20 70  es suggestions p
1149:1920  6F 75 72 20 63 65 20 70-72 6F 67 72 61 6D 6D 65  our ce programme
1149:1930  2C 20 20 20 20 20 20 BA-49 BA 20 76 6F 75 73 20  ,      :I: vous
1149:1940  70 6F 75 76 65 7A 20 82-63 72 69 72 65 20 85 3A  pouvez .crire .:
1149:1950  20 20 20 20 20 20 20 46-61 62 72 69 63 65 20 42         Fabrice B
1149:1960  45 4C 4C 41 52 44 20 20-20 20 20 20 20 20 20 20  ELLARD
1149:1970  20 20 20 20 20 20 20 20-20 20 20 20 20 20 20 20
1149:1980  20 BA 49 BA 20 20 20 20-20 20 20 20 20 20 20 20   :I:
1149:1990  20 20 20 20 20 20 20 20-20 20 20 20 20 20 34 35                45
1149:19A0  31 20 63 68 65 6D 69 6E-20 64 75 20 6D 61 73 20  1 chemin du mas
1149:19B0  64 65 20 6D 61 74 6F 75-72 20 20 20 20 20 20 20  de matour
1149:19C0  20 20 20 20 20 20 20 20-20 20 20 BA 49 BA 20 20             :I:
1149:19D0  20 20 20 20 20 20 20 20-20 20 20 20 20 20 20 20
1149:19E0  20 20 20 20 20 20 20 20-20 20 20 20 33 34 37 39              3479
1149:19F0  30 20 47 52 41 42 45 4C-53 20 20 20 28 46 52 41  0 GRABELS   (FRA
1149:1A00  4E 43 45 29 20 20 20 20-20 20 20 20 20 20 20 20  NCE)
1149:1A10  20 20 20 20 20 BA 49 BA-20 20 20 20 20 20 20 20       :I:
1149:1A20  20 20 20 20 20 20 20 20-20 20 20 20 20 20 20 20
1149:1A30  20 20 20 20 20 20 20 20-20 20 20 20 20 20 20 20
1149:1A40  20 20 20 20 20 20 20 20-20 20 20 20 20 20 20 20
1149:1A50  20 20 20 20 20 20 20 20-20 20 20 20 20 20 20 BA                 :
1149:1A60  49 BA 20 6F 75 20 65 6E-76 6F 79 65 72 20 75 6E  I: ou envoyer un
1149:1A70  20 6D 65 73 73 61 67 65-20 65 6E 20 42 41 4C 20   message en BAL
1149:1A80  73 75 72 20 52 54 45 4C-20 6F 75 20 51 42 53 53  sur RTEL ou QBSS
1149:1A90  20 61 75 20 70 73 65 75-64 6F 3A 20 46 41 42 20   au pseudo: FAB
1149:1AA0  20 20 20 20 20 20 20 20-20 BA 49 C8 CD CD CD CD           :IHMMMM
1149:1AB0  CD CD CD CD CD CD CD CD-CD CD CD CD CD CD CD CD  MMMMMMMMMMMMMMMM
1149:1AC0  CD CD CD CD CD CD CD CD-CD CD CD CD CD CD CD CD  MMMMMMMMMMMMMMMM
1149:1AD0  CD CD CD CD CD CD CD CD-CD CD CD CD CD CD CD CD  MMMMMMMMMMMMMMMM
1149:1AE0  CD CD CD CD CD CD CD CD-CD CD CD CD CD CD CD CD  MMMMMMMMMMMMMMMM
1149:1AF0  CD CD CD BC 55 89 E5 BF-36 C6 1E 57 9A A0 12 0B  MMM<U.e?6F.W. ..


1149:1AF4 55             PUSH   BP
1149:1AF5 89E5           MOV    BP,SP
1149:1AF7 BF36C6         MOV    DI,C636
1149:1AFA 1E             PUSH   DS
1149:1AFB 57             PUSH   DI
1149:1AFC 9AA0120B18     CALL   1428:12A0
1149:1B01 9A0E020B18     CALL   1428:020E
1149:1B06 BF36C6         MOV    DI,C636
1149:1B09 1E             PUSH   DS
1149:1B0A 57             PUSH   DI
1149:1B0B BF0000         MOV    DI,0000
1149:1B0E 0E             PUSH   CS
1149:1B0F 57             PUSH   DI
1149:1B10 31C0           XOR    AX,AX
1149:1B12 50             PUSH   AX
1149:1B13 9A68130B18     CALL   1428:1368
1149:1B18 9AA0120B18     CALL   1428:12A0
1149:1B1D 9A0E020B18     CALL   1428:020E
1149:1B22 BF36C6         MOV    DI,C636
1149:1B25 1E             PUSH   DS
1149:1B26 57             PUSH   DI
1149:1B27 BF4A00         MOV    DI,004A
1149:1B2A 0E             PUSH   CS
1149:1B2B 57             PUSH   DI
1149:1B2C 31C0           XOR    AX,AX
1149:1B2E 50             PUSH   AX
1149:1B2F 9A68130B18     CALL   1428:1368
1149:1B34 9AA0120B18     CALL   1428:12A0
1149:1B39 9A0E020B18     CALL   1428:020E
1149:1B3E BF36C6         MOV    DI,C636
1149:1B41 1E             PUSH   DS
1149:1B42 57             PUSH   DI
1149:1B43 BF9400         MOV    DI,0094
1149:1B46 0E             PUSH   CS
1149:1B47 57             PUSH   DI
1149:1B48 31C0           XOR    AX,AX
1149:1B4A 50             PUSH   AX
1149:1B4B 9A68130B18     CALL   1428:1368
1149:1B50 9AA0120B18     CALL   1428:12A0
1149:1B55 9A0E020B18     CALL   1428:020E
1149:1B5A BF36C6         MOV    DI,C636
1149:1B5D 1E             PUSH   DS
1149:1B5E 57             PUSH   DI
1149:1B5F BFDE00         MOV    DI,00DE
1149:1B62 0E             PUSH   CS
1149:1B63 57             PUSH   DI
1149:1B64 31C0           XOR    AX,AX
1149:1B66 50             PUSH   AX
1149:1B67 9A68130B18     CALL   1428:1368
1149:1B6C 9AA0120B18     CALL   1428:12A0
1149:1B71 9A0E020B18     CALL   1428:020E
1149:1B76 BF36C6         MOV    DI,C636
1149:1B79 1E             PUSH   DS
1149:1B7A 57             PUSH   DI
1149:1B7B BF2801         MOV    DI,0128
1149:1B7E 0E             PUSH   CS
1149:1B7F 57             PUSH   DI
1149:1B80 31C0           XOR    AX,AX
1149:1B82 50             PUSH   AX
1149:1B83 9A68130B18     CALL   1428:1368
1149:1B88 9AA0120B18     CALL   1428:12A0
1149:1B8D 9A0E020B18     CALL   1428:020E
1149:1B92 BF36C6         MOV    DI,C636
1149:1B95 1E             PUSH   DS
1149:1B96 57             PUSH   DI
1149:1B97 BF7201         MOV    DI,0172
1149:1B9A 0E             PUSH   CS
1149:1B9B 57             PUSH   DI
1149:1B9C 31C0           XOR    AX,AX
1149:1B9E 50             PUSH   AX
1149:1B9F 9A68130B18     CALL   1428:1368
1149:1BA4 9AA0120B18     CALL   1428:12A0
1149:1BA9 9A0E020B18     CALL   1428:020E
1149:1BAE BF36C6         MOV    DI,C636
1149:1BB1 1E             PUSH   DS
1149:1BB2 57             PUSH   DI
1149:1BB3 BFBC01         MOV    DI,01BC
1149:1BB6 0E             PUSH   CS
1149:1BB7 57             PUSH   DI
1149:1BB8 31C0           XOR    AX,AX
1149:1BBA 50             PUSH   AX
1149:1BBB 9A68130B18     CALL   1428:1368
1149:1BC0 9AA0120B18     CALL   1428:12A0
1149:1BC5 9A0E020B18     CALL   1428:020E
1149:1BCA BF36C6         MOV    DI,C636
1149:1BCD 1E             PUSH   DS
1149:1BCE 57             PUSH   DI
1149:1BCF BF0602         MOV    DI,0206
1149:1BD2 0E             PUSH   CS
1149:1BD3 57             PUSH   DI
1149:1BD4 31C0           XOR    AX,AX
1149:1BD6 50             PUSH   AX
1149:1BD7 9A68130B18     CALL   1428:1368
1149:1BDC 9AA0120B18     CALL   1428:12A0
1149:1BE1 9A0E020B18     CALL   1428:020E
1149:1BE6 BF36C6         MOV    DI,C636
1149:1BE9 1E             PUSH   DS
1149:1BEA 57             PUSH   DI
1149:1BEB BF5002         MOV    DI,0250
1149:1BEE 0E             PUSH   CS
1149:1BEF 57             PUSH   DI
1149:1BF0 31C0           XOR    AX,AX
1149:1BF2 50             PUSH   AX
1149:1BF3 9A68130B18     CALL   1428:1368
1149:1BF8 9AA0120B18     CALL   1428:12A0
1149:1BFD 9A0E020B18     CALL   1428:020E
1149:1C02 BF36C6         MOV    DI,C636
1149:1C05 1E             PUSH   DS
1149:1C06 57             PUSH   DI
1149:1C07 BF9A02         MOV    DI,029A
1149:1C0A 0E             PUSH   CS
1149:1C0B 57             PUSH   DI
1149:1C0C 31C0           XOR    AX,AX
1149:1C0E 50             PUSH   AX
1149:1C0F 9A68130B18     CALL   1428:1368
1149:1C14 9AA0120B18     CALL   1428:12A0
1149:1C19 9A0E020B18     CALL   1428:020E
1149:1C1E 89EC           MOV    SP,BP
1149:1C20 5D             POP    BP
1149:1C21 CB             RETF
