

; -----------------------------------------------------------------------------
;        Start a inicializace programu
; -----------------------------------------------------------------------------

1428:0000 BA8719       * MOV    DX,1987
1428:0003 8EDA           MOV    DS,DX
1428:0005 8C063000       MOV    [0030],ES
1428:0009 33ED           XOR    BP,BP
1428:000B 8BC4           MOV    AX,SP
1428:000D 051300         ADD    AX,0013
1428:0010 B104           MOV    CL,04
1428:0012 D3E8           SHR    AX,CL
1428:0014 8CD2           MOV    DX,SS
1428:0016 03C2           ADD    AX,DX
1428:0018 A30800         MOV    [0008],AX
1428:001B A30A00         MOV    [000A],AX
1428:001E 03060200       ADD    AX,[0002]
1428:0022 A30C00         MOV    [000C],AX
1428:0025 A31600         MOV    [0016],AX
1428:0028 A31A00         MOV    [001A],AX
1428:002B 26A10200       MOV    AX,ES:[0002]
1428:002F 2D0010         SUB    AX,1000
1428:0032 A31E00         MOV    [001E],AX
1428:0035 BF36C7         MOV    DI,C736
1428:0038 BEDD01         MOV    SI,01DD
1428:003B B91200         MOV    CX,0012
1428:003E 90             NOP
1428:003F FC             CLD
1428:0040 2EAC           LODSB  CS:
1428:0042 B435           MOV    AH,35                         ;'5'
1428:0044 CD21           INT    21
1428:0046 891D           MOV    [DI],BX
1428:0048 8C4502         MOV    [DI+02],ES
1428:004B 83C704         ADD    DI,+04
1428:004E E2F0           LOOP   0040
1428:0050 1E             PUSH   DS
1428:0051 0E             PUSH   CS
1428:0052 1F             POP    DS
1428:0053 BACE00         MOV    DX,00CE
1428:0056 B80025         MOV    AX,2500
1428:0059 CD21           INT    21
1428:005B BAD500         MOV    DX,00D5
1428:005E B82325         MOV    AX,2523
1428:0061 CD21           INT    21
1428:0063 BA9D00         MOV    DX,009D
1428:0066 B82425         MOV    AX,2524
1428:0069 CD21           INT    21
1428:006B BAC600         MOV    DX,00C6
1428:006E B83F25         MOV    AX,253F
1428:0071 CD21           INT    21
1428:0073 1F             POP    DS
1428:0074 B836C5         MOV    AX,C536
1428:0077 1E             PUSH   DS
1428:0078 50             PUSH   AX
1428:0079 1E             PUSH   DS
1428:007A 50             PUSH   AX
1428:007B B80602         MOV    AX,0206
1428:007E 0E             PUSH   CS
1428:007F 50             PUSH   AX
1428:0080 0E             PUSH   CS
1428:0081 E8D00E         CALL   0F54
1428:0084 0E             PUSH   CS
1428:0085 E83C0F         CALL   0FC4
1428:0088 B836C6         MOV    AX,C636
1428:008B 1E             PUSH   DS
1428:008C 50             PUSH   AX
1428:008D 1E             PUSH   DS
1428:008E 50             PUSH   AX
1428:008F B80602         MOV    AX,0206
1428:0092 0E             PUSH   CS
1428:0093 50             PUSH   AX
1428:0094 0E             PUSH   CS
1428:0095 E8BC0E         CALL   0F54
1428:0098 0E             PUSH   CS
1428:0099 E82D0F         CALL   0FC9
1428:009C CB             RETF


1428:009D FB             STI
1428:009E 83C406         ADD    SP,+06
1428:00A1 58             POP    AX
1428:00A2 83E71F         AND    DI,+1F
1428:00A5 81C79600       ADD    DI,0096
1428:00A9 80FC39         CMP    AH,39                         ;'9'
1428:00AC 7303           JNB    00B1
1428:00AE BFFFFF         MOV    DI,FFFF
1428:00B1 57             PUSH   DI
1428:00B2 B454           MOV    AH,54                         ;'T'
1428:00B4 CD21           INT    21
1428:00B6 8BEC           MOV    BP,SP
1428:00B8 804E1601       OR     Byte Ptr [BP+16],01
1428:00BC 58             POP    AX
1428:00BD 5B             POP    BX
1428:00BE 59             POP    CX
1428:00BF 5A             POP    DX
1428:00C0 5E             POP    SI
1428:00C1 5F             POP    DI
1428:00C2 5D             POP    BP
1428:00C3 1F             POP    DS
1428:00C4 07             POP    ES
1428:00C5 CF             IRET


1428:00C6 B8D000         MOV    AX,00D0
1428:00C9 83C406         ADD    SP,+06
1428:00CC EB03           JMP    00D1
1428:00CE B8C800         MOV    AX,00C8
1428:00D1 59             POP    CX
1428:00D2 5B             POP    BX
1428:00D3 EB07           JMP    00DC

; -----------------------------------------------------------------------------
;        Ukon‡en¡ programu
; -----------------------------------------------------------------------------

1428:00D5 B8FF00         MOV    AX,00FF
1428:00D8 33C9         * XOR    CX,CX
1428:00DA 33DB           XOR    BX,BX
1428:00DC BA8719         MOV    DX,1987
1428:00DF 8EDA           MOV    DS,DX
1428:00E1 FB             STI
1428:00E2 A32A00         MOV    [002A],AX
1428:00E5 8BC1           MOV    AX,CX
1428:00E7 0BC3           OR     AX,BX
1428:00E9 741F           JZ     010A
1428:00EB A10E00         MOV    AX,[000E]
1428:00EE 0BC0           OR     AX,AX
1428:00F0 7411           JZ     0103
1428:00F2 8EC0           MOV    ES,AX
1428:00F4 263B1E1000     CMP    BX,ES:[0010]
1428:00F9 7406           JZ     0101
1428:00FB 26A11400       MOV    AX,ES:[0014]
1428:00FF EBED           JMP    00EE
1428:0101 8CC3           MOV    BX,ES
1428:0103 2B1E3000       SUB    BX,[0030]
1428:0107 83EB10         SUB    BX,+10
1428:010A 890E2C00       MOV    [002C],CX
1428:010E 891E2E00       MOV    [002E],BX
1428:0112 C41E2600       LES    BX,[0026]
1428:0116 8CC0           MOV    AX,ES
1428:0118 0BC3           OR     AX,BX
1428:011A 7413           JZ     012F
1428:011C 33C0           XOR    AX,AX
1428:011E A32600         MOV    [0026],AX
1428:0121 A32800         MOV    [0028],AX
1428:0124 A33400         MOV    [0034],AX   ; chybov˜ k¢d
1428:0127 B81201         MOV    AX,0112
1428:012A 0E             PUSH   CS
1428:012B 50             PUSH   AX
1428:012C 06             PUSH   ES
1428:012D 53             PUSH   BX
1428:012E CB             RETF


1428:012F B836C5         MOV    AX,C536
1428:0132 1E             PUSH   DS
1428:0133 50             PUSH   AX
1428:0134 0E             PUSH   CS
1428:0135 E8E50E         CALL   101D
1428:0138 B836C6         MOV    AX,C636
1428:013B 1E             PUSH   DS
1428:013C 50             PUSH   AX
1428:013D 0E             PUSH   CS
1428:013E E8DC0E         CALL   101D
1428:0141 BF36C7         MOV    DI,C736
1428:0144 BEDD01         MOV    SI,01DD
1428:0147 B91200         MOV    CX,0012
1428:014A 90             NOP
1428:014B FC             CLD
1428:014C 2EAC           LODSB  CS:
1428:014E B425           MOV    AH,25                         ;'%'
1428:0150 1E             PUSH   DS
1428:0151 C515           LDS    DX,[DI]
1428:0153 CD21           INT    21
1428:0155 1F             POP    DS
1428:0156 83C704         ADD    DI,+04
1428:0159 E2F1           LOOP   014C
1428:015B A12C00         MOV    AX,[002C]
1428:015E 0B062E00       OR     AX,[002E]
1428:0162 7429           JZ     018D
1428:0164 BBEF01         MOV    BX,01EF
1428:0167 E82A00         CALL   0194
1428:016A A12A00         MOV    AX,[002A]
1428:016D E83200         CALL   01A2
1428:0170 BBFE01         MOV    BX,01FE
1428:0173 E81E00         CALL   0194
1428:0176 A12E00         MOV    AX,[002E]
1428:0179 E84000         CALL   01BC
1428:017C B03A           MOV    AL,3A                         ;':'
1428:017E E85500         CALL   01D6
1428:0181 A12C00         MOV    AX,[002C]
1428:0184 E83500         CALL   01BC
1428:0187 BB0302         MOV    BX,0203
1428:018A E80700         CALL   0194
1428:018D A12A00         MOV    AX,[002A]
1428:0190 B44C           MOV    AH,4C                         ;'L'
1428:0192 CD21           INT    21
1428:0194 2E8A07         MOV    AL,CS:[BX]
1428:0197 0AC0           OR     AL,AL
1428:0199 7406           JZ     01A1
1428:019B E83800         CALL   01D6
1428:019E 43             INC    BX
1428:019F EBF3           JMP    0194
1428:01A1 C3             RET


1428:01A2 B164           MOV    CL,64                         ;'d'
1428:01A4 E80700         CALL   01AE
1428:01A7 B10A           MOV    CL,0A
1428:01A9 E80200         CALL   01AE
1428:01AC EB04           JMP    01B2
1428:01AE 32E4           XOR    AH,AH
1428:01B0 F6F1           DIV    CL
1428:01B2 0430           ADD    AL,30                         ;'0'
1428:01B4 50             PUSH   AX
1428:01B5 E81E00         CALL   01D6
1428:01B8 58             POP    AX
1428:01B9 8AC4           MOV    AL,AH
1428:01BB C3             RET


1428:01BC 50             PUSH   AX
1428:01BD 8AC4           MOV    AL,AH
1428:01BF E80100         CALL   01C3
1428:01C2 58             POP    AX
1428:01C3 50             PUSH   AX
1428:01C4 B104           MOV    CL,04
1428:01C6 D2E8           SHR    AL,CL
1428:01C8 E80300         CALL   01CE
1428:01CB 58             POP    AX
1428:01CC 240F           AND    AL,0F
1428:01CE 0430           ADD    AL,30                         ;'0'
1428:01D0 3C3A           CMP    AL,3A                         ;':'
1428:01D2 7202           JB     01D6
1428:01D4 0407           ADD    AL,07
1428:01D6 8AD0           MOV    DL,AL
1428:01D8 B406           MOV    AH,06
1428:01DA CD21           INT    21
1428:01DC C3             RET


1428:01DD 0002           ADD    [BP+SI],AL
1428:01DF 1B23           SBB    SP,[BP+DI]
1428:01E1 2434           AND    AL,34                         ;'4'
1428:01E3 353637         XOR    AX,3736
1428:01E6 3839           CMP    [BX+DI],BH
1428:01E8 3A3B           CMP    BH,[BP+DI]
1428:01EA 3C3D           CMP    AL,3D                         ;'='
1428:01EC 3E3F           AAS    DS:
1428:01EE 7552           JNZ    0242
1428:01F0 756E           JNZ    0260
1428:01F2 7469           JZ     025D
1428:01F4 6D             INSW
1428:01F5 65             DB     65
1428:01F6 206572         AND    [DI+72],AH
1428:01F9 726F           JB     026A
1428:01FB 7220           JB     021D
1428:01FD 0020           ADD    [BX+SI],AH
1428:01FF 61             POPA
1428:0200 7420           JZ     0222
1428:0202 002E0D0A       ADD    [0A0D],CH

; -----------------------------------------------------------------------------
;
; -----------------------------------------------------------------------------

1428:0207 33C0         * XOR    AX,AX
1428:0209 87063400       XCHG   AX,[0034]   ; chybov˜ k¢d
1428:020D CB             RETF


1428:020E 833E340000     CMP    Word Ptr [0034],+00 ; chybov˜ k¢d
1428:0213 7501           JNZ    0216
1428:0215 CB             RETF


1428:0216 A13400         MOV    AX,[0034]   ; chybov˜ k¢d
1428:0219 E9B5FE         JMP    00D1


1428:021C 8BF4           MOV    SI,SP
1428:021E 368E4402       MOV    ES,SS:[SI+02]
1428:0222 263B5502       CMP    DX,ES:[DI+02]
1428:0226 7F07           JG     022F
1428:0228 7C14           JL     023E
1428:022A 263B05         CMP    AX,ES:[DI]
1428:022D 720F           JB     023E
1428:022F 263B5506       CMP    DX,ES:[DI+06]
1428:0233 7C08           JL     023D
1428:0235 7F07           JG     023E
1428:0237 263B4504       CMP    AX,ES:[DI+04]
1428:023B 7701           JA     023E
1428:023D CB             RETF


1428:023E B8C900         MOV    AX,00C9
1428:0241 E98DFE         JMP    00D1

; -----------------------------------------------------------------------------
;        kontrola p©ete‡en¡ z sobn¡ku
; -----------------------------------------------------------------------------

1428:0244 8BF4         * MOV    SI,SP
1428:0246 2BF0           SUB    SI,AX
1428:0248 720D           JB     0257
1428:024A 81EE0002       SUB    SI,0200
1428:024E 7207           JB     0257
1428:0250 3B363200       CMP    SI,[0032]
1428:0254 7201           JB     0257
1428:0256 CB             RETF


1428:0257 B8CA00         MOV    AX,00CA
1428:025A E974FE         JMP    00D1
1428:025D 8BC8           MOV    CX,AX
1428:025F 8BDA           MOV    BX,DX

; -----------------------------------------------------------------------------
;
; -----------------------------------------------------------------------------

1428:0261 8BF0         * MOV    SI,AX
1428:0263 8BFA           MOV    DI,DX
1428:0265 F7E1           MUL    CX
1428:0267 50             PUSH   AX
1428:0268 52             PUSH   DX
1428:0269 8BC6           MOV    AX,SI
1428:026B F7E3           MUL    BX
1428:026D 8BD8           MOV    BX,AX
1428:026F 8BC7           MOV    AX,DI
1428:0271 F7E1           MUL    CX
1428:0273 8BC8           MOV    CX,AX
1428:0275 5A             POP    DX
1428:0276 58             POP    AX
1428:0277 03D3           ADD    DX,BX
1428:0279 03D1           ADD    DX,CX
1428:027B CB             RETF

; -----------------------------------------------------------------------------
;
; -----------------------------------------------------------------------------

1428:027C 55           * PUSH   BP
1428:027D 8BE9           MOV    BP,CX
1428:027F 0BEB           OR     BP,BX
1428:0281 7460           JZ     02E3
1428:0283 0BDB           OR     BX,BX
1428:0285 9C             PUSHF
1428:0286 790A           JNS    0292
1428:0288 F7D1           NOT    CX
1428:028A F7D3           NOT    BX
1428:028C 83C101         ADD    CX,+01
1428:028F 83D300         ADC    BX,+00
1428:0292 0BD2           OR     DX,DX
1428:0294 9C             PUSHF
1428:0295 790A           JNS    02A1
1428:0297 F7D0           NOT    AX
1428:0299 F7D2           NOT    DX
1428:029B 050100         ADD    AX,0001
1428:029E 83D200         ADC    DX,+00
1428:02A1 8BF1           MOV    SI,CX
1428:02A3 8BFB           MOV    DI,BX
1428:02A5 33C9           XOR    CX,CX
1428:02A7 33DB           XOR    BX,BX
1428:02A9 BD2100         MOV    BP,0021
1428:02AC D1D1           RCL    CX,1
1428:02AE D1D3           RCL    BX,1
1428:02B0 2BCE           SUB    CX,SI
1428:02B2 1BDF           SBB    BX,DI
1428:02B4 7304           JNB    02BA
1428:02B6 03CE           ADD    CX,SI
1428:02B8 13DF           ADC    BX,DI
1428:02BA F5             CMC
1428:02BB D1D0           RCL    AX,1
1428:02BD D1D2           RCL    DX,1
1428:02BF 4D             DEC    BP
1428:02C0 75EA           JNZ    02AC
1428:02C2 9D             POPF
1428:02C3 790F           JNS    02D4
1428:02C5 F7D1           NOT    CX
1428:02C7 F7D3           NOT    BX
1428:02C9 83C101         ADD    CX,+01
1428:02CC 83D300         ADC    BX,+00
1428:02CF 9D             POPF
1428:02D0 7905           JNS    02D7
1428:02D2 EB0D           JMP    02E1
1428:02D4 9D             POPF
1428:02D5 790A           JNS    02E1
1428:02D7 F7D0           NOT    AX
1428:02D9 F7D2           NOT    DX
1428:02DB 050100         ADD    AX,0001
1428:02DE 83D200         ADC    DX,+00
1428:02E1 5D             POP    BP
1428:02E2 CB             RETF


1428:02E3 5D             POP    BP
1428:02E4 B8C800         MOV    AX,00C8
1428:02E7 E9E7FD         JMP    00D1
1428:02EA 83E11F         AND    CX,+1F
1428:02ED 7406           JZ     02F5
1428:02EF D1EA           SHR    DX,1
1428:02F1 D1D8           RCR    AX,1
1428:02F3 E2FA           LOOP   02EF
1428:02F5 CB             RETF

; -----------------------------------------------------------------------------
;
; -----------------------------------------------------------------------------

1428:02F6 83E11F       * AND    CX,+1F
1428:02F9 7406           JZ     0301
1428:02FB D1E0           SHL    AX,1
1428:02FD D1D2           RCL    DX,1
1428:02FF E2FA           LOOP   02FB
1428:0301 CB             RETF


1428:0302 0BD2           OR     DX,DX
1428:0304 7D0A           JGE    0310
1428:0306 F7D0           NOT    AX
1428:0308 F7D2           NOT    DX
1428:030A 050100         ADD    AX,0001
1428:030D 83D200         ADC    DX,+00
1428:0310 CB             RETF

; -----------------------------------------------------------------------------
;
; -----------------------------------------------------------------------------

1428:0311 55           * PUSH   BP
1428:0312 8BEC           MOV    BP,SP
1428:0314 8B4606         MOV    AX,[BP+06]
1428:0317 E81401         CALL   042E
1428:031A 731B           JNB    0337
1428:031C A12200         MOV    AX,[0022]
1428:031F 0B062400       OR     AX,[0024]
1428:0323 7420           JZ     0345
1428:0325 FF7606         PUSH   [BP+06]
1428:0328 FF1E2200       CALL   FAR [0022]
1428:032C 0BC0           OR     AX,AX
1428:032E 7415           JZ     0345
1428:0330 48             DEC    AX
1428:0331 75E1           JNZ    0314
1428:0333 33C9           XOR    CX,CX
1428:0335 33DB           XOR    BX,BX
1428:0337 C47E08         LES    DI,[BP+08]
1428:033A 26890D         MOV    ES:[DI],CX
1428:033D 26895D02       MOV    ES:[DI+02],BX
1428:0341 5D             POP    BP
1428:0342 CA0600         RETF   0006


1428:0345 5D             POP    BP
1428:0346 B8CB00         MOV    AX,00CB
1428:0349 E985FD         JMP    00D1
1428:034C 55             PUSH   BP
1428:034D 8BEC           MOV    BP,SP
1428:034F 8B4606         MOV    AX,[BP+06]
1428:0352 C47E08         LES    DI,[BP+08]
1428:0355 268B0D         MOV    CX,ES:[DI]
1428:0358 268B5D02       MOV    BX,ES:[DI+02]
1428:035C E86B01         CALL   04CA
1428:035F 7204           JB     0365
1428:0361 5D             POP    BP
1428:0362 CA0600         RETF   0006


1428:0365 5D             POP    BP
1428:0366 B8CC00         MOV    AX,00CC
1428:0369 E965FD         JMP    00D1
1428:036C 8BDC           MOV    BX,SP
1428:036E 36C47F04       LES    DI,SS:[BX+04]
1428:0372 A11800         MOV    AX,[0018]
1428:0375 268905         MOV    ES:[DI],AX
1428:0378 A11A00         MOV    AX,[001A]
1428:037B 26894502       MOV    ES:[DI+02],AX
1428:037F CA0400         RETF   0004


1428:0382 8BDC           MOV    BX,SP
1428:0384 36C47F04       LES    DI,SS:[BX+04]
1428:0388 268B05         MOV    AX,ES:[DI]
1428:038B A31800         MOV    [0018],AX
1428:038E 268B4502       MOV    AX,ES:[DI+02]
1428:0392 A31A00         MOV    [001A],AX
1428:0395 33C0           XOR    AX,AX
1428:0397 A31C00         MOV    [001C],AX
1428:039A CA0400         RETF   0004


1428:039D E81602         CALL   05B6
1428:03A0 8BC6           MOV    AX,SI
1428:03A2 8BD7           MOV    DX,DI
1428:03A4 C43E1C00       LES    DI,[001C]
1428:03A8 2B161A00       SUB    DX,[001A]
1428:03AC 2B061800       SUB    AX,[0018]
1428:03B0 7327           JNB    03D9
1428:03B2 051000         ADD    AX,0010
1428:03B5 4A             DEC    DX
1428:03B6 EB21           JMP    03D9
1428:03B8 26035506       ADD    DX,ES:[DI+06]
1428:03BC 262B5502       SUB    DX,ES:[DI+02]
1428:03C0 26034504       ADD    AX,ES:[DI+04]
1428:03C4 3D1000         CMP    AX,0010
1428:03C7 7204           JB     03CD
1428:03C9 2D1000         SUB    AX,0010
1428:03CC 42             INC    DX
1428:03CD 262B05         SUB    AX,ES:[DI]
1428:03D0 7304           JNB    03D6
1428:03D2 051000         ADD    AX,0010
1428:03D5 4A             DEC    DX
1428:03D6 83C708         ADD    DI,+08
1428:03D9 0BFF           OR     DI,DI
1428:03DB 75DB           JNZ    03B8
1428:03DD E82D02         CALL   060D
1428:03E0 CB             RETF

; -----------------------------------------------------------------------------
;
; -----------------------------------------------------------------------------

1428:03E1 E8D201       * CALL   05B6
1428:03E4 8BC6           MOV    AX,SI
1428:03E6 8BD7           MOV    DX,DI
1428:03E8 C43E1C00       LES    DI,[001C]
1428:03EC 2B161A00       SUB    DX,[001A]
1428:03F0 2B061800       SUB    AX,[0018]
1428:03F4 7330           JNB    0426
1428:03F6 051000         ADD    AX,0010
1428:03F9 4A             DEC    DX
1428:03FA EB2A           JMP    0426
1428:03FC 268B5D06       MOV    BX,ES:[DI+06]
1428:0400 262B5D02       SUB    BX,ES:[DI+02]
1428:0404 3BDA           CMP    BX,DX
1428:0406 721B           JB     0423
1428:0408 268B4D04       MOV    CX,ES:[DI+04]
1428:040C 262B0D         SUB    CX,ES:[DI]
1428:040F 7304           JNB    0415
1428:0411 83C110         ADD    CX,+10
1428:0414 4B             DEC    BX
1428:0415 3BDA           CMP    BX,DX
1428:0417 7706           JA     041F
1428:0419 7208           JB     0423
1428:041B 3BC8           CMP    CX,AX
1428:041D 7204           JB     0423
1428:041F 8BC1           MOV    AX,CX
1428:0421 8BD3           MOV    DX,BX
1428:0423 83C708         ADD    DI,+08
1428:0426 0BFF           OR     DI,DI
1428:0428 75D2           JNZ    03FC
1428:042A E8E001         CALL   060D
1428:042D CB             RETF


1428:042E E8CE01         CALL   05FF
1428:0431 C43E1C00       LES    DI,[001C]
1428:0435 EB0F           JMP    0446
1428:0437 268B5D06       MOV    BX,ES:[DI+06]
1428:043B 262B5D02       SUB    BX,ES:[DI+02]
1428:043F 3BDA           CMP    BX,DX
1428:0441 7344           JNB    0487
1428:0443 83C708         ADD    DI,+08
1428:0446 0BFF           OR     DI,DI
1428:0448 75ED           JNZ    0437
1428:044A E86901         CALL   05B6
1428:044D 8BCE           MOV    CX,SI
1428:044F 8BDF           MOV    BX,DI
1428:0451 2B1E1A00       SUB    BX,[001A]
1428:0455 2B0E1800       SUB    CX,[0018]
1428:0459 7304           JNB    045F
1428:045B 83C110         ADD    CX,+10
1428:045E 4B             DEC    BX
1428:045F 3BDA           CMP    BX,DX
1428:0461 7706           JA     0469
1428:0463 7221           JB     0486
1428:0465 3BC8           CMP    CX,AX
1428:0467 721D           JB     0486
1428:0469 8B0E1800       MOV    CX,[0018]
1428:046D 8B1E1A00       MOV    BX,[001A]
1428:0471 03D3           ADD    DX,BX
1428:0473 03C1           ADD    AX,CX
1428:0475 3D1000         CMP    AX,0010
1428:0478 7204           JB     047E
1428:047A 2D1000         SUB    AX,0010
1428:047D 42             INC    DX
1428:047E A31800         MOV    [0018],AX
1428:0481 89161A00       MOV    [001A],DX
1428:0485 F8             CLC
1428:0486 C3             RET


1428:0487 268B4D04       MOV    CX,ES:[DI+04]
1428:048B 262B0D         SUB    CX,ES:[DI]
1428:048E 7304           JNB    0494
1428:0490 83C110         ADD    CX,+10
1428:0493 4B             DEC    BX
1428:0494 3BDA           CMP    BX,DX
1428:0496 7706           JA     049E
1428:0498 72A9           JB     0443
1428:049A 3BC8           CMP    CX,AX
1428:049C 72A5           JB     0443
1428:049E 268B0D         MOV    CX,ES:[DI]
1428:04A1 268B5D02       MOV    BX,ES:[DI+02]
1428:04A5 03D3           ADD    DX,BX
1428:04A7 03C1           ADD    AX,CX
1428:04A9 3D1000         CMP    AX,0010
1428:04AC 7204           JB     04B2
1428:04AE 2D1000         SUB    AX,0010
1428:04B1 42             INC    DX
1428:04B2 268905         MOV    ES:[DI],AX
1428:04B5 26895502       MOV    ES:[DI+02],DX
1428:04B9 263B5506       CMP    DX,ES:[DI+06]
1428:04BD 7509           JNZ    04C8
1428:04BF 263B4504       CMP    AX,ES:[DI+04]
1428:04C3 7503           JNZ    04C8
1428:04C5 E8D900         CALL   05A1
1428:04C8 F8             CLC
1428:04C9 C3             RET


1428:04CA 0BC0           OR     AX,AX
1428:04CC 7433           JZ     0501
1428:04CE E82E01         CALL   05FF
1428:04D1 03D3           ADD    DX,BX
1428:04D3 03C1           ADD    AX,CX
1428:04D5 3D1000         CMP    AX,0010
1428:04D8 7204           JB     04DE
1428:04DA 2D1000         SUB    AX,0010
1428:04DD 42             INC    DX
1428:04DE 3B1E1600       CMP    BX,[0016]
1428:04E2 721C           JB     0500
1428:04E4 7706           JA     04EC
1428:04E6 3B0E1400       CMP    CX,[0014]
1428:04EA 7214           JB     0500
1428:04EC 3B161A00       CMP    DX,[001A]
1428:04F0 770E           JA     0500
1428:04F2 7206           JB     04FA
1428:04F4 3B061800       CMP    AX,[0018]
1428:04F8 7706           JA     0500
1428:04FA C43E1C00       LES    DI,[001C]
1428:04FE EB4F           JMP    054F
1428:0500 F9             STC
1428:0501 C3             RET


1428:0502 263B5D02       CMP    BX,ES:[DI+02]
1428:0506 721E           JB     0526
1428:0508 7705           JA     050F
1428:050A 263B0D         CMP    CX,ES:[DI]
1428:050D 7217           JB     0526
1428:050F 263B5D06       CMP    BX,ES:[DI+06]
1428:0513 7737           JA     054C
1428:0515 7206           JB     051D
1428:0517 263B4D04       CMP    CX,ES:[DI+04]
1428:051B 772F           JA     054C
1428:051D 268B0D         MOV    CX,ES:[DI]
1428:0520 268B5D02       MOV    BX,ES:[DI+02]
1428:0524 EB0D           JMP    0533
1428:0526 263B5502       CMP    DX,ES:[DI+02]
1428:052A 7220           JB     054C
1428:052C 7705           JA     0533
1428:052E 263B05         CMP    AX,ES:[DI]
1428:0531 7219           JB     054C
1428:0533 263B5506       CMP    DX,ES:[DI+06]
1428:0537 7710           JA     0549
1428:0539 7206           JB     0541
1428:053B 263B4504       CMP    AX,ES:[DI+04]
1428:053F 7708           JA     0549
1428:0541 268B4504       MOV    AX,ES:[DI+04]
1428:0545 268B5506       MOV    DX,ES:[DI+06]
1428:0549 E85500         CALL   05A1
1428:054C 83C708         ADD    DI,+08
1428:054F 0BFF           OR     DI,DI
1428:0551 75AF           JNZ    0502
1428:0553 3B161A00       CMP    DX,[001A]
1428:0557 750F           JNZ    0568
1428:0559 3B061800       CMP    AX,[0018]
1428:055D 7509           JNZ    0568
1428:055F 890E1800       MOV    [0018],CX
1428:0563 891E1A00       MOV    [001A],BX
1428:0567 C3             RET


1428:0568 E81200         CALL   057D
1428:056B 720F           JB     057C
1428:056D 26890D         MOV    ES:[DI],CX
1428:0570 26895D02       MOV    ES:[DI+02],BX
1428:0574 26894504       MOV    ES:[DI+04],AX
1428:0578 26895506       MOV    ES:[DI+06],DX
1428:057C C3             RET


1428:057D 8B3E1C00       MOV    DI,[001C]
1428:0581 83EF08         SUB    DI,+08
1428:0584 7419           JZ     059F
1428:0586 8BF7           MOV    SI,DI
1428:0588 D1EE           SHR    SI,1
1428:058A D1EE           SHR    SI,1
1428:058C D1EE           SHR    SI,1
1428:058E D1EE           SHR    SI,1
1428:0590 03361E00       ADD    SI,[001E]
1428:0594 3B361A00       CMP    SI,[001A]
1428:0598 7605           JBE    059F
1428:059A 893E1C00       MOV    [001C],DI
1428:059E C3             RET


1428:059F F9             STC
1428:05A0 C3             RET


1428:05A1 8B361C00       MOV    SI,[001C]
1428:05A5 FC             CLD
1428:05A6 26A5           MOVSW  ES:
1428:05A8 26A5           MOVSW  ES:
1428:05AA 26A5           MOVSW  ES:
1428:05AC 26A5           MOVSW  ES:
1428:05AE 83EF08         SUB    DI,+08
1428:05B1 89361C00       MOV    [001C],SI
1428:05B5 C3             RET


1428:05B6 8B3E1C00       MOV    DI,[001C]
1428:05BA 0BFF           OR     DI,DI
1428:05BC 7511           JNZ    05CF
1428:05BE 2B3E2000       SUB    DI,[0020]
1428:05C2 7513           JNZ    05D7
1428:05C4 33F6           XOR    SI,SI
1428:05C6 8B3E1E00       MOV    DI,[001E]
1428:05CA 81C70010       ADD    DI,1000
1428:05CE C3             RET


1428:05CF 2B3E2000       SUB    DI,[0020]
1428:05D3 7302           JNB    05D7
1428:05D5 33FF           XOR    DI,DI
1428:05D7 8BF7           MOV    SI,DI
1428:05D9 83E60F         AND    SI,+0F
1428:05DC D1EF           SHR    DI,1
1428:05DE D1EF           SHR    DI,1
1428:05E0 D1EF           SHR    DI,1
1428:05E2 D1EF           SHR    DI,1
1428:05E4 033E1E00       ADD    DI,[001E]
1428:05E8 3B3E1A00       CMP    DI,[001A]
1428:05EC 7710           JA     05FE
1428:05EE 7206           JB     05F6
1428:05F0 3B361800       CMP    SI,[0018]
1428:05F4 7308           JNB    05FE
1428:05F6 8B361800       MOV    SI,[0018]
1428:05FA 8B3E1A00       MOV    DI,[001A]
1428:05FE C3             RET


1428:05FF 8BD0           MOV    DX,AX
1428:0601 250F00         AND    AX,000F
1428:0604 D1EA           SHR    DX,1
1428:0606 D1EA           SHR    DX,1
1428:0608 D1EA           SHR    DX,1
1428:060A D1EA           SHR    DX,1
1428:060C C3             RET


1428:060D B104           MOV    CL,04
1428:060F D3C2           ROL    DX,CL
1428:0611 8BCA           MOV    CX,DX
1428:0613 83E1F0         AND    CX,-10
1428:0616 83E20F         AND    DX,+0F
1428:0619 0BC1           OR     AX,CX
1428:061B C3             RET

; -----------------------------------------------------------------------------
;
; -----------------------------------------------------------------------------

1428:061C FC           * CLD
1428:061D 8BDC           MOV    BX,SP
1428:061F 8CDA           MOV    DX,DS
1428:0621 36C47F08       LES    DI,SS:[BX+08]
1428:0625 36C57704       LDS    SI,SS:[BX+04]
1428:0629 AC             LODSB
1428:062A AA             STOSB
1428:062B 8AC8           MOV    CL,AL
1428:062D 32ED           XOR    CH,CH
1428:062F F3             REPZ
1428:0630 A4             MOVSB
1428:0631 8EDA           MOV    DS,DX
1428:0633 CA0400         RETF   0004

; -----------------------------------------------------------------------------
;
; -----------------------------------------------------------------------------

1428:0636 FC           * CLD
1428:0637 8BDC           MOV    BX,SP
1428:0639 8CDA           MOV    DX,DS
1428:063B 36C5770A       LDS    SI,SS:[BX+0A]
1428:063F 36C47F06       LES    DI,SS:[BX+06]
1428:0643 368B4F04       MOV    CX,SS:[BX+04]
1428:0647 AC             LODSB
1428:0648 3AC1           CMP    AL,CL
1428:064A 7602           JBE    064E
1428:064C 8AC1           MOV    AL,CL
1428:064E AA             STOSB
1428:064F 8AC8           MOV    CL,AL
1428:0651 32ED           XOR    CH,CH
1428:0653 F3             REPZ
1428:0654 A4             MOVSB
1428:0655 8EDA           MOV    DS,DX
1428:0657 CA0A00         RETF   000A


1428:065A 8BDC           MOV    BX,SP
1428:065C 36C47F04       LES    DI,SS:[BX+04]
1428:0660 268A05         MOV    AL,ES:[DI]
1428:0663 32E4           XOR    AH,AH
1428:0665 CA0400         RETF   0004


1428:0668 FC             CLD
1428:0669 8BDC           MOV    BX,SP
1428:066B 8CDA           MOV    DX,DS
1428:066D 36C47F0C       LES    DI,SS:[BX+0C]
1428:0671 36C57708       LDS    SI,SS:[BX+08]
1428:0675 8A04           MOV    AL,[SI]
1428:0677 32E4           XOR    AH,AH
1428:0679 368B4F06       MOV    CX,SS:[BX+06]
1428:067D 0BC9           OR     CX,CX
1428:067F 7F03           JG     0684
1428:0681 B90100         MOV    CX,0001
1428:0684 03F1           ADD    SI,CX
1428:0686 2BC1           SUB    AX,CX
1428:0688 7213           JB     069D
1428:068A 40             INC    AX
1428:068B 368B4F04       MOV    CX,SS:[BX+04]
1428:068F 0BC9           OR     CX,CX
1428:0691 7D02           JGE    0695
1428:0693 33C9           XOR    CX,CX
1428:0695 3BC1           CMP    AX,CX
1428:0697 7606           JBE    069F
1428:0699 8BC1           MOV    AX,CX
1428:069B EB02           JMP    069F
1428:069D 33C0           XOR    AX,AX
1428:069F AA             STOSB
1428:06A0 8BC8           MOV    CX,AX
1428:06A2 F3             REPZ
1428:06A3 A4             MOVSB
1428:06A4 8EDA           MOV    DS,DX
1428:06A6 CA0800         RETF   0008

; -----------------------------------------------------------------------------
;
; -----------------------------------------------------------------------------

1428:06A9 FC           * CLD
1428:06AA 8BDC           MOV    BX,SP
1428:06AC 8CDA           MOV    DX,DS
1428:06AE 36C47F08       LES    DI,SS:[BX+08]
1428:06B2 36C57704       LDS    SI,SS:[BX+04]
1428:06B6 268A0D         MOV    CL,ES:[DI]
1428:06B9 32ED           XOR    CH,CH
1428:06BB AC             LODSB
1428:06BC 260005         ADD    ES:[DI],AL
1428:06BF 7308           JNB    06C9
1428:06C1 26C605FF       MOV    Byte Ptr ES:[DI],FF
1428:06C5 8AC1           MOV    AL,CL
1428:06C7 F6D0           NOT    AL
1428:06C9 03F9           ADD    DI,CX
1428:06CB 47             INC    DI
1428:06CC 8AC8           MOV    CL,AL
1428:06CE F3             REPZ
1428:06CF A4             MOVSB
1428:06D0 8EDA           MOV    DS,DX
1428:06D2 CA0400         RETF   0004

; -----------------------------------------------------------------------------
;
; -----------------------------------------------------------------------------

1428:06D5 FC           * CLD
1428:06D6 8BDC           MOV    BX,SP
1428:06D8 1E             PUSH   DS
1428:06D9 36C57708       LDS    SI,SS:[BX+08]
1428:06DD 36C47F04       LES    DI,SS:[BX+04]
1428:06E1 8A0C           MOV    CL,[SI]
1428:06E3 32ED           XOR    CH,CH
1428:06E5 268A15         MOV    DL,ES:[DI]
1428:06E8 32F6           XOR    DH,DH
1428:06EA 2BD1           SUB    DX,CX
1428:06EC 7218           JB     0706
1428:06EE B80100         MOV    AX,0001
1428:06F1 0BC9           OR     CX,CX
1428:06F3 7413           JZ     0708
1428:06F5 42             INC    DX
1428:06F6 46             INC    SI
1428:06F7 47             INC    DI
1428:06F8 51             PUSH   CX
1428:06F9 56             PUSH   SI
1428:06FA 57             PUSH   DI
1428:06FB F3             REPZ
1428:06FC A6             CMPSB
1428:06FD 5F             POP    DI
1428:06FE 5E             POP    SI
1428:06FF 59             POP    CX
1428:0700 7406           JZ     0708
1428:0702 40             INC    AX
1428:0703 4A             DEC    DX
1428:0704 75F1           JNZ    06F7
1428:0706 33C0           XOR    AX,AX
1428:0708 1F             POP    DS
1428:0709 CA0800         RETF   0008


1428:070C FC             CLD
1428:070D 8BDC           MOV    BX,SP
1428:070F 8CDA           MOV    DX,DS
1428:0711 36C57708       LDS    SI,SS:[BX+08]
1428:0715 36C47F04       LES    DI,SS:[BX+04]
1428:0719 AC             LODSB
1428:071A 268A25         MOV    AH,ES:[DI]
1428:071D 47             INC    DI
1428:071E 8AC8           MOV    CL,AL
1428:0720 3ACC           CMP    CL,AH
1428:0722 7602           JBE    0726
1428:0724 8ACC           MOV    CL,AH
1428:0726 0AC9           OR     CL,CL
1428:0728 7406           JZ     0730
1428:072A 32ED           XOR    CH,CH
1428:072C F3             REPZ
1428:072D A6             CMPSB
1428:072E 7502           JNZ    0732
1428:0730 3AC4           CMP    AL,AH
1428:0732 8EDA           MOV    DS,DX
1428:0734 CA0800         RETF   0008

; -----------------------------------------------------------------------------
;
; -----------------------------------------------------------------------------

1428:0737 FC           * CLD
1428:0738 8BDC           MOV    BX,SP
1428:073A 36C47F06       LES    DI,SS:[BX+06]
1428:073E B001           MOV    AL,01
1428:0740 AA             STOSB
1428:0741 368A4704       MOV    AL,SS:[BX+04]
1428:0745 AA             STOSB
1428:0746 CA0200         RETF   0002


1428:0749 FC             CLD
1428:074A 8BDC           MOV    BX,SP
1428:074C 8CDA           MOV    DX,DS
1428:074E 36C47F0A       LES    DI,SS:[BX+0A]
1428:0752 36C57706       LDS    SI,SS:[BX+06]
1428:0756 368B4704       MOV    AX,SS:[BX+04]
1428:075A AA             STOSB
1428:075B 8BC8           MOV    CX,AX
1428:075D F3             REPZ
1428:075E A4             MOVSB
1428:075F 8EDA           MOV    DS,DX
1428:0761 CA0600         RETF   0006


1428:0764 55             PUSH   BP
1428:0765 8BEC           MOV    BP,SP
1428:0767 81EC0002       SUB    SP,0200
1428:076B 8DBE00FF       LEA    DI,[BP+FF00]
1428:076F 16             PUSH   SS
1428:0770 57             PUSH   DI
1428:0771 C47E0A         LES    DI,[BP+0A]
1428:0774 06             PUSH   ES
1428:0775 57             PUSH   DI
1428:0776 B80100         MOV    AX,0001
1428:0779 50             PUSH   AX
1428:077A 8B4606         MOV    AX,[BP+06]
1428:077D 48             DEC    AX
1428:077E 50             PUSH   AX
1428:077F 0E             PUSH   CS
1428:0780 E8E5FE         CALL   0668
1428:0783 C47E0E         LES    DI,[BP+0E]
1428:0786 06             PUSH   ES
1428:0787 57             PUSH   DI
1428:0788 0E             PUSH   CS
1428:0789 E81DFF         CALL   06A9
1428:078C 8DBE00FE       LEA    DI,[BP+FE00]
1428:0790 16             PUSH   SS
1428:0791 57             PUSH   DI
1428:0792 C47E0A         LES    DI,[BP+0A]
1428:0795 06             PUSH   ES
1428:0796 57             PUSH   DI
1428:0797 FF7606         PUSH   [BP+06]
1428:079A B8FF00         MOV    AX,00FF
1428:079D 50             PUSH   AX
1428:079E 0E             PUSH   CS
1428:079F E8C6FE         CALL   0668
1428:07A2 0E             PUSH   CS
1428:07A3 E803FF         CALL   06A9
1428:07A6 C47E0A         LES    DI,[BP+0A]
1428:07A9 06             PUSH   ES
1428:07AA 57             PUSH   DI
1428:07AB FF7608         PUSH   [BP+08]
1428:07AE 0E             PUSH   CS
1428:07AF E884FE         CALL   0636
1428:07B2 8BE5           MOV    SP,BP
1428:07B4 5D             POP    BP
1428:07B5 CA0C00         RETF   000C


1428:07B8 55             PUSH   BP
1428:07B9 8BEC           MOV    BP,SP
1428:07BB 81EC0002       SUB    SP,0200
1428:07BF 837E0600       CMP    Word Ptr [BP+06],+00
1428:07C3 7E43           JLE    0808
1428:07C5 8DBE00FF       LEA    DI,[BP+FF00]
1428:07C9 16             PUSH   SS
1428:07CA 57             PUSH   DI
1428:07CB C47E0A         LES    DI,[BP+0A]
1428:07CE 06             PUSH   ES
1428:07CF 57             PUSH   DI
1428:07D0 B80100         MOV    AX,0001
1428:07D3 50             PUSH   AX
1428:07D4 8B4608         MOV    AX,[BP+08]
1428:07D7 48             DEC    AX
1428:07D8 50             PUSH   AX
1428:07D9 0E             PUSH   CS
1428:07DA E88BFE         CALL   0668
1428:07DD 8DBE00FE       LEA    DI,[BP+FE00]
1428:07E1 16             PUSH   SS
1428:07E2 57             PUSH   DI
1428:07E3 C47E0A         LES    DI,[BP+0A]
1428:07E6 06             PUSH   ES
1428:07E7 57             PUSH   DI
1428:07E8 8B4608         MOV    AX,[BP+08]
1428:07EB 034606         ADD    AX,[BP+06]
1428:07EE 50             PUSH   AX
1428:07EF B8FF00         MOV    AX,00FF
1428:07F2 50             PUSH   AX
1428:07F3 0E             PUSH   CS
1428:07F4 E871FE         CALL   0668
1428:07F7 0E             PUSH   CS
1428:07F8 E8AEFE         CALL   06A9
1428:07FB C47E0A         LES    DI,[BP+0A]
1428:07FE 06             PUSH   ES
1428:07FF 57             PUSH   DI
1428:0800 B8FF00         MOV    AX,00FF
1428:0803 50             PUSH   AX
1428:0804 0E             PUSH   CS
1428:0805 E82EFE         CALL   0636
1428:0808 8BE5           MOV    SP,BP
1428:080A 5D             POP    BP
1428:080B CA0800         RETF   0008


1428:080E 81F70080       XOR    DI,8000
1428:0812 0AC9           OR     CL,CL
1428:0814 740A           JZ     0820
1428:0816 0AC0           OR     AL,AL
1428:0818 7507           JNZ    0821
1428:081A 8BC1           MOV    AX,CX
1428:081C 8BDE           MOV    BX,SI
1428:081E 8BD7           MOV    DX,DI
1428:0820 C3             RET


1428:0821 3AC1           CMP    AL,CL
1428:0823 7605           JBE    082A
1428:0825 91             XCHG   AX,CX
1428:0826 87DE           XCHG   BX,SI
1428:0828 87D7           XCHG   DX,DI
1428:082A 2AC1           SUB    AL,CL
1428:082C F6D8           NEG    AL
1428:082E 3C28           CMP    AL,28                         ;'('
1428:0830 73E8           JNB    081A
1428:0832 86C1           XCHG   AL,CL
1428:0834 55             PUSH   BP
1428:0835 8BEF           MOV    BP,DI
1428:0837 33EA           XOR    BP,DX
1428:0839 9C             PUSHF
1428:083A 8BEF           MOV    BP,DI
1428:083C 80CE80         OR     DH,80
1428:083F 81CF0080       OR     DI,8000
1428:0843 80F910         CMP    CL,10
1428:0846 720B           JB     0853
1428:0848 8AE7           MOV    AH,BH
1428:084A 8BDA           MOV    BX,DX
1428:084C 33D2           XOR    DX,DX
1428:084E 80E910         SUB    CL,10
1428:0851 EBF0           JMP    0843
1428:0853 80F908         CMP    CL,08
1428:0856 720D           JB     0865
1428:0858 8AE3           MOV    AH,BL
1428:085A 8ADF           MOV    BL,BH
1428:085C 8AFA           MOV    BH,DL
1428:085E 8AD6           MOV    DL,DH
1428:0860 32F6           XOR    DH,DH
1428:0862 80E908         SUB    CL,08
1428:0865 0AC9           OR     CL,CL
1428:0867 740A           JZ     0873
1428:0869 D1EA           SHR    DX,1
1428:086B D1DB           RCR    BX,1
1428:086D D0DC           RCR    AH,1
1428:086F FEC9           DEC    CL
1428:0871 75F6           JNZ    0869
1428:0873 9D             POPF
1428:0874 7815           JS     088B
1428:0876 02E5           ADD    AH,CH
1428:0878 13DE           ADC    BX,SI
1428:087A 13D7           ADC    DX,DI
1428:087C 735F           JNB    08DD
1428:087E D1DA           RCR    DX,1
1428:0880 D1DB           RCR    BX,1
1428:0882 D0DC           RCR    AH,1
1428:0884 FEC0           INC    AL
1428:0886 7555           JNZ    08DD
1428:0888 F9             STC
1428:0889 5D             POP    BP
1428:088A C3             RET


1428:088B 86E5           XCHG   AH,CH
1428:088D 87DE           XCHG   BX,SI
1428:088F 87D7           XCHG   DX,DI
1428:0891 2AE5           SUB    AH,CH
1428:0893 1BDE           SBB    BX,SI
1428:0895 1BD7           SBB    DX,DI
1428:0897 7313           JNB    08AC
1428:0899 81F50080       XOR    BP,8000
1428:089D F6D4           NOT    AH
1428:089F F7D3           NOT    BX
1428:08A1 F7D2           NOT    DX
1428:08A3 80C401         ADD    AH,01
1428:08A6 83D300         ADC    BX,+00
1428:08A9 83D200         ADC    DX,+00
1428:08AC B105           MOV    CL,05
1428:08AE 0AF6           OR     DH,DH
1428:08B0 7514           JNZ    08C6
1428:08B2 8AF2           MOV    DH,DL
1428:08B4 8AD7           MOV    DL,BH
1428:08B6 8AFB           MOV    BH,BL
1428:08B8 8ADC           MOV    BL,AH
1428:08BA 32E4           XOR    AH,AH
1428:08BC 2C08           SUB    AL,08
1428:08BE 7615           JBE    08D5
1428:08C0 FEC9           DEC    CL
1428:08C2 75EA           JNZ    08AE
1428:08C4 EB0F           JMP    08D5
1428:08C6 F6C680         TEST   DH,80
1428:08C9 7512           JNZ    08DD
1428:08CB D0E4           SHL    AH,1
1428:08CD D1D3           RCL    BX,1
1428:08CF D1D2           RCL    DX,1
1428:08D1 FEC8           DEC    AL
1428:08D3 75F1           JNZ    08C6
1428:08D5 33C0           XOR    AX,AX
1428:08D7 33DB           XOR    BX,BX
1428:08D9 33D2           XOR    DX,DX
1428:08DB 5D             POP    BP
1428:08DC C3             RET


1428:08DD 80E67F         AND    DH,7F
1428:08E0 81E50080       AND    BP,8000
1428:08E4 33D5           XOR    DX,BP
1428:08E6 5D             POP    BP
1428:08E7 C3             RET


1428:08E8 0AC9           OR     CL,CL
1428:08EA 7472           JZ     095E
1428:08EC 0AC0           OR     AL,AL
1428:08EE 7474           JZ     0964
1428:08F0 02C1           ADD    AL,CL
1428:08F2 E8F900         CALL   09EE
1428:08F5 766D           JBE    0964
1428:08F7 55             PUSH   BP
1428:08F8 50             PUSH   AX
1428:08F9 57             PUSH   DI
1428:08FA 56             PUSH   SI
1428:08FB 51             PUSH   CX
1428:08FC 8BEC           MOV    BP,SP
1428:08FE 8AEC           MOV    CH,AH
1428:0900 8BF3           MOV    SI,BX
1428:0902 8BFA           MOV    DI,DX
1428:0904 32E4           XOR    AH,AH
1428:0906 33DB           XOR    BX,BX
1428:0908 33D2           XOR    DX,DX
1428:090A 83ED05         SUB    BP,+05
1428:090D 8A4606         MOV    AL,[BP+06]
1428:0910 0AC0           OR     AL,AL
1428:0912 750C           JNZ    0920
1428:0914 8AE3           MOV    AH,BL
1428:0916 8ADF           MOV    BL,BH
1428:0918 8AFA           MOV    BH,DL
1428:091A 8AD6           MOV    DL,DH
1428:091C 32F6           XOR    DH,DH
1428:091E EB18           JMP    0938
1428:0920 B108           MOV    CL,08
1428:0922 D0D8           RCR    AL,1
1428:0924 7306           JNB    092C
1428:0926 02E5           ADD    AH,CH
1428:0928 13DE           ADC    BX,SI
1428:092A 13D7           ADC    DX,DI
1428:092C D1DA           RCR    DX,1
1428:092E D1DB           RCR    BX,1
1428:0930 D0DC           RCR    AH,1
1428:0932 FEC9           DEC    CL
1428:0934 75EC           JNZ    0922
1428:0936 D0D1           RCL    CL,1
1428:0938 45             INC    BP
1428:0939 3BEC           CMP    BP,SP
1428:093B 75D0           JNZ    090D
1428:093D 8A4606         MOV    AL,[BP+06]
1428:0940 F6C680         TEST   DH,80
1428:0943 750E           JNZ    0953
1428:0945 D0D9           RCR    CL,1
1428:0947 D0D4           RCL    AH,1
1428:0949 D1D3           RCL    BX,1
1428:094B D1D2           RCL    DX,1
1428:094D 0AC0           OR     AL,AL
1428:094F 7402           JZ     0953
1428:0951 FEC8           DEC    AL
1428:0953 327600         XOR    DH,[BP+00]
1428:0956 83C408         ADD    SP,+08
1428:0959 5D             POP    BP
1428:095A 0AC0           OR     AL,AL
1428:095C 7506           JNZ    0964
1428:095E 33C0           XOR    AX,AX
1428:0960 33DB           XOR    BX,BX
1428:0962 33D2           XOR    DX,DX
1428:0964 C3             RET


1428:0965 0AC0           OR     AL,AL
1428:0967 743F           JZ     09A8
1428:0969 2AC1           SUB    AL,CL
1428:096B F5             CMC
1428:096C E87F00         CALL   09EE
1428:096F 7637           JBE    09A8
1428:0971 55             PUSH   BP
1428:0972 51             PUSH   CX
1428:0973 83EC04         SUB    SP,+04
1428:0976 50             PUSH   AX
1428:0977 8BEC           MOV    BP,SP
1428:0979 83C505         ADD    BP,+05
1428:097C B108           MOV    CL,08
1428:097E 3BD7           CMP    DX,DI
1428:0980 7506           JNZ    0988
1428:0982 3BDE           CMP    BX,SI
1428:0984 7502           JNZ    0988
1428:0986 3AE5           CMP    AH,CH
1428:0988 7206           JB     0990
1428:098A 2AE5           SUB    AH,CH
1428:098C 1BDE           SBB    BX,SI
1428:098E 1BD7           SBB    DX,DI
1428:0990 F5             CMC
1428:0991 D0D0           RCL    AL,1
1428:0993 FEC9           DEC    CL
1428:0995 7412           JZ     09A9
1428:0997 D0E4           SHL    AH,1
1428:0999 D1D3           RCL    BX,1
1428:099B D1D2           RCL    DX,1
1428:099D 73DF           JNB    097E
1428:099F 2AE5           SUB    AH,CH
1428:09A1 1BDE           SBB    BX,SI
1428:09A3 1BD7           SBB    DX,DI
1428:09A5 F9             STC
1428:09A6 EBE9           JMP    0991
1428:09A8 C3             RET


1428:09A9 884600         MOV    [BP+00],AL
1428:09AC B108           MOV    CL,08
1428:09AE 4D             DEC    BP
1428:09AF 3BEC           CMP    BP,SP
1428:09B1 75E4           JNZ    0997
1428:09B3 D0E4           SHL    AH,1
1428:09B5 D1D3           RCL    BX,1
1428:09B7 D1D2           RCL    DX,1
1428:09B9 720B           JB     09C6
1428:09BB 3BD7           CMP    DX,DI
1428:09BD 7506           JNZ    09C5
1428:09BF 3BDE           CMP    BX,SI
1428:09C1 7502           JNZ    09C5
1428:09C3 3AE5           CMP    AH,CH
1428:09C5 F5             CMC
1428:09C6 D1D6           RCL    SI,1
1428:09C8 58             POP    AX
1428:09C9 5B             POP    BX
1428:09CA 5A             POP    DX
1428:09CB 59             POP    CX
1428:09CC 5D             POP    BP
1428:09CD F6C680         TEST   DH,80
1428:09D0 750A           JNZ    09DC
1428:09D2 D1DE           RCR    SI,1
1428:09D4 D0D4           RCL    AH,1
1428:09D6 D1D3           RCL    BX,1
1428:09D8 D1D2           RCL    DX,1
1428:09DA EB05           JMP    09E1
1428:09DC FEC0           INC    AL
1428:09DE F9             STC
1428:09DF 740C           JZ     09ED
1428:09E1 32F1           XOR    DH,CL
1428:09E3 0AC0           OR     AL,AL
1428:09E5 7506           JNZ    09ED
1428:09E7 33C0           XOR    AX,AX
1428:09E9 33DB           XOR    BX,BX
1428:09EB 33D2           XOR    DX,DX
1428:09ED C3             RET


1428:09EE 720B           JB     09FB
1428:09F0 0480           ADD    AL,80
1428:09F2 720B           JB     09FF
1428:09F4 33C0           XOR    AX,AX
1428:09F6 33DB           XOR    BX,BX
1428:09F8 33D2           XOR    DX,DX
1428:09FA C3             RET


1428:09FB 0480           ADD    AL,80
1428:09FD 7211           JB     0A10
1428:09FF 97             XCHG   AX,DI
1428:0A00 8ACC           MOV    CL,AH
1428:0A02 32CE           XOR    CL,DH
1428:0A04 F6D1           NOT    CL
1428:0A06 80E180         AND    CL,80
1428:0A09 80CC80         OR     AH,80
1428:0A0C 80CE80         OR     DH,80
1428:0A0F 97             XCHG   AX,DI
1428:0A10 C3             RET


1428:0A11 52             PUSH   DX
1428:0A12 33D7           XOR    DX,DI
1428:0A14 5A             POP    DX
1428:0A15 7905           JNS    0A1C
1428:0A17 52             PUSH   DX
1428:0A18 D1D2           RCL    DX,1
1428:0A1A 5A             POP    DX
1428:0A1B C3             RET


1428:0A1C F6C680         TEST   DH,80
1428:0A1F 7407           JZ     0A28
1428:0A21 E80400         CALL   0A28
1428:0A24 7414           JZ     0A3A
1428:0A26 F5             CMC
1428:0A27 C3             RET


1428:0A28 3AC1           CMP    AL,CL
1428:0A2A 750E           JNZ    0A3A
1428:0A2C 0AC0           OR     AL,AL
1428:0A2E 740A           JZ     0A3A
1428:0A30 3BD7           CMP    DX,DI
1428:0A32 7506           JNZ    0A3A
1428:0A34 3BDE           CMP    BX,SI
1428:0A36 7502           JNZ    0A3A
1428:0A38 3AE5           CMP    AH,CH
1428:0A3A C3             RET


1428:0A3B 8BD8           MOV    BX,AX
1428:0A3D 0BDA           OR     BX,DX
1428:0A3F 7438           JZ     0A79
1428:0A41 8AEE           MOV    CH,DH
1428:0A43 0BD2           OR     DX,DX
1428:0A45 790A           JNS    0A51
1428:0A47 F7D0           NOT    AX
1428:0A49 F7D2           NOT    DX
1428:0A4B 050100         ADD    AX,0001
1428:0A4E 83D200         ADC    DX,+00
1428:0A51 8BD8           MOV    BX,AX
1428:0A53 B8A000         MOV    AX,00A0
1428:0A56 0BD2           OR     DX,DX
1428:0A58 750C           JNZ    0A66
1428:0A5A 87D3           XCHG   DX,BX
1428:0A5C B090           MOV    AL,90
1428:0A5E 0AF6           OR     DH,DH
1428:0A60 7504           JNZ    0A66
1428:0A62 86F2           XCHG   DH,DL
1428:0A64 B088           MOV    AL,88
1428:0A66 0BD2           OR     DX,DX
1428:0A68 7808           JS     0A72
1428:0A6A FEC8           DEC    AL
1428:0A6C 03DB           ADD    BX,BX
1428:0A6E 13D2           ADC    DX,DX
1428:0A70 79F8           JNS    0A6A
1428:0A72 0AED           OR     CH,CH
1428:0A74 7803           JS     0A79
1428:0A76 80E67F         AND    DH,7F
1428:0A79 C3             RET


1428:0A7A 93             XCHG   AX,BX
1428:0A7B B19F           MOV    CL,9F
1428:0A7D 2ACB           SUB    CL,BL
1428:0A7F 724E           JB     0ACF
1428:0A81 80F91F         CMP    CL,1F
1428:0A84 774B           JA     0AD1
1428:0A86 FEC1           INC    CL
1428:0A88 8AFE           MOV    BH,DH
1428:0A8A 80CE80         OR     DH,80
1428:0A8D 80F911         CMP    CL,11
1428:0A90 7207           JB     0A99
1428:0A92 8BC2           MOV    AX,DX
1428:0A94 33D2           XOR    DX,DX
1428:0A96 80E910         SUB    CL,10
1428:0A99 80F909         CMP    CL,09
1428:0A9C 720B           JB     0AA9
1428:0A9E 8AC4           MOV    AL,AH
1428:0AA0 8AE2           MOV    AH,DL
1428:0AA2 8AD6           MOV    DL,DH
1428:0AA4 32F6           XOR    DH,DH
1428:0AA6 80E908         SUB    CL,08
1428:0AA9 D1EA           SHR    DX,1
1428:0AAB D1D8           RCR    AX,1
1428:0AAD FEC9           DEC    CL
1428:0AAF 75F8           JNZ    0AA9
1428:0AB1 730C           JNB    0ABF
1428:0AB3 0AED           OR     CH,CH
1428:0AB5 7408           JZ     0ABF
1428:0AB7 050100         ADD    AX,0001
1428:0ABA 83D200         ADC    DX,+00
1428:0ABD 7810           JS     0ACF
1428:0ABF 0AFF           OR     BH,BH
1428:0AC1 790A           JNS    0ACD
1428:0AC3 F7D0           NOT    AX
1428:0AC5 F7D2           NOT    DX
1428:0AC7 050100         ADD    AX,0001
1428:0ACA 83D200         ADC    DX,+00
1428:0ACD F8             CLC
1428:0ACE C3             RET


1428:0ACF F9             STC
1428:0AD0 C3             RET


1428:0AD1 33C0           XOR    AX,AX
1428:0AD3 33D2           XOR    DX,DX
1428:0AD5 C3             RET


1428:0AD6 E839FD         CALL   0812
1428:0AD9 723B           JB     0B16
1428:0ADB CB             RETF

; -----------------------------------------------------------------------------
;
; -----------------------------------------------------------------------------

1428:0ADC E82FFD       * CALL   080E
1428:0ADF 7235           JB     0B16
1428:0AE1 CB             RETF


1428:0AE2 8BC8           MOV    CX,AX
1428:0AE4 8BF3           MOV    SI,BX
1428:0AE6 8BFA           MOV    DI,DX

; -----------------------------------------------------------------------------
;
; -----------------------------------------------------------------------------

1428:0AE8 E8FDFD       * CALL   08E8
1428:0AEB 7229           JB     0B16
1428:0AED CB             RETF

; -----------------------------------------------------------------------------
;
; -----------------------------------------------------------------------------

1428:0AEE 0AC9         * OR     CL,CL
1428:0AF0 742A           JZ     0B1C
1428:0AF2 E870FE         CALL   0965
1428:0AF5 721F           JB     0B16
1428:0AF7 CB             RETF


1428:0AF8 E816FF         CALL   0A11
1428:0AFB CB             RETF

; -----------------------------------------------------------------------------
;
; -----------------------------------------------------------------------------

1428:0AFC E83CFF       * CALL   0A3B
1428:0AFF CB             RETF


1428:0B00 B500           MOV    CH,00
1428:0B02 E875FF         CALL   0A7A
1428:0B05 7209           JB     0B10
1428:0B07 CB             RETF


1428:0B08 B501           MOV    CH,01
1428:0B0A E86DFF         CALL   0A7A
1428:0B0D 7201           JB     0B10
1428:0B0F CB             RETF


1428:0B10 B8CF00         MOV    AX,00CF
1428:0B13 E9BBF5         JMP    00D1
1428:0B16 B8CD00         MOV    AX,00CD
1428:0B19 E9B5F5         JMP    00D1
1428:0B1C B8C800         MOV    AX,00C8
1428:0B1F E9AFF5         JMP    00D1
1428:0B22 57             PUSH   DI
1428:0B23 FC             CLD
1428:0B24 8BD8           MOV    BX,AX
1428:0B26 0BD2           OR     DX,DX
1428:0B28 7D0D           JGE    0B37
1428:0B2A F7D3           NOT    BX
1428:0B2C F7D2           NOT    DX
1428:0B2E 83C301         ADD    BX,+01
1428:0B31 83D200         ADC    DX,+00
1428:0B34 B02D           MOV    AL,2D                         ;'-'
1428:0B36 AA             STOSB
1428:0B37 BE740B         MOV    SI,0B74
1428:0B3A B109           MOV    CL,09
1428:0B3C 2E3B5402       CMP    DX,CS:[SI+02]
1428:0B40 7207           JB     0B49
1428:0B42 770C           JA     0B50
1428:0B44 2E3B1C         CMP    BX,CS:[SI]
1428:0B47 7307           JNB    0B50
1428:0B49 83C604         ADD    SI,+04
1428:0B4C FEC9           DEC    CL
1428:0B4E 75EC           JNZ    0B3C
1428:0B50 FEC1           INC    CL
1428:0B52 B02F           MOV    AL,2F                         ;'/'
1428:0B54 FEC0           INC    AL
1428:0B56 2E2B1C         SUB    BX,CS:[SI]
1428:0B59 2E1B5402       SBB    DX,CS:[SI+02]
1428:0B5D 73F5           JNB    0B54
1428:0B5F 2E031C         ADD    BX,CS:[SI]
1428:0B62 2E135402       ADC    DX,CS:[SI+02]
1428:0B66 83C604         ADD    SI,+04
1428:0B69 AA             STOSB
1428:0B6A FEC9           DEC    CL
1428:0B6C 75E4           JNZ    0B52
1428:0B6E 8BCF           MOV    CX,DI
1428:0B70 5F             POP    DI
1428:0B71 2BCF           SUB    CX,DI
1428:0B73 C3             RET


1428:0B74 00CA           ADD    DL,CL
1428:0B76 9A3B00E1F5     CALL   F5E1:003B
1428:0B7B 058096         ADD    AX,9680
1428:0B7E 98             CBW
1428:0B7F 004042         ADD    [BX+SI+42],AL
1428:0B82 0F00           CTS    00
1428:0B84 A08601         MOV    AL,[0186]
1428:0B87 0010           ADD    [BX+SI],DL
1428:0B89 27             DAA
1428:0B8A 0000           ADD    [BX+SI],AL
1428:0B8C E80300         CALL   0B92
1428:0B8F 006400         ADD    [SI+00],AH
1428:0B92 0000           ADD    [BX+SI],AL
1428:0B94 0A00           OR     AL,[BX+SI]
1428:0B96 0000           ADD    [BX+SI],AL
1428:0B98 0100           ADD    [BX+SI],AX
1428:0B9A 0000           ADD    [BX+SI],AL
1428:0B9C 33C0           XOR    AX,AX
1428:0B9E 33D2           XOR    DX,DX
1428:0BA0 33F6           XOR    SI,SI
1428:0BA2 E359           JCXZ   0BFD
1428:0BA4 26803D2B       CMP    Byte Ptr ES:[DI],2B           ;'+'
1428:0BA8 7407           JZ     0BB1
1428:0BAA 26803D2D       CMP    Byte Ptr ES:[DI],2D           ;'-'
1428:0BAE 7505           JNZ    0BB5
1428:0BB0 46             INC    SI
1428:0BB1 47             INC    DI
1428:0BB2 49             DEC    CX
1428:0BB3 E348           JCXZ   0BFD
1428:0BB5 26803D24       CMP    Byte Ptr ES:[DI],24           ;'$'
1428:0BB9 7444           JZ     0BFF
1428:0BBB 268A1D         MOV    BL,ES:[DI]
1428:0BBE 80EB3A         SUB    BL,3A                         ;':'
1428:0BC1 80C30A         ADD    BL,0A
1428:0BC4 7328           JNB    0BEE
1428:0BC6 F7C200F0       TEST   DX,F000
1428:0BCA 7531           JNZ    0BFD
1428:0BCC 53             PUSH   BX
1428:0BCD D1E0           SHL    AX,1
1428:0BCF D1D2           RCL    DX,1
1428:0BD1 52             PUSH   DX
1428:0BD2 50             PUSH   AX
1428:0BD3 D1E0           SHL    AX,1
1428:0BD5 D1D2           RCL    DX,1
1428:0BD7 D1E0           SHL    AX,1
1428:0BD9 D1D2           RCL    DX,1
1428:0BDB 5B             POP    BX
1428:0BDC 03C3           ADD    AX,BX
1428:0BDE 5B             POP    BX
1428:0BDF 13D3           ADC    DX,BX
1428:0BE1 5B             POP    BX
1428:0BE2 32FF           XOR    BH,BH
1428:0BE4 03C3           ADD    AX,BX
1428:0BE6 83D200         ADC    DX,+00
1428:0BE9 7812           JS     0BFD
1428:0BEB 47             INC    DI
1428:0BEC E2CD           LOOP   0BBB
1428:0BEE 4E             DEC    SI
1428:0BEF 750A           JNZ    0BFB
1428:0BF1 F7D0           NOT    AX
1428:0BF3 F7D2           NOT    DX
1428:0BF5 050100         ADD    AX,0001
1428:0BF8 83D200         ADC    DX,+00
1428:0BFB F8             CLC
1428:0BFC C3             RET


1428:0BFD F9             STC
1428:0BFE C3             RET


1428:0BFF 47             INC    DI
1428:0C00 49             DEC    CX
1428:0C01 E3FA           JCXZ   0BFD
1428:0C03 268A1D         MOV    BL,ES:[DI]
1428:0C06 80FB61         CMP    BL,61                         ;'a'
1428:0C09 7203           JB     0C0E
1428:0C0B 80EB20         SUB    BL,20                         ;' '
1428:0C0E 80EB3A         SUB    BL,3A                         ;':'
1428:0C11 80C30A         ADD    BL,0A
1428:0C14 720B           JB     0C21
1428:0C16 80EB17         SUB    BL,17
1428:0C19 80C306         ADD    BL,06
1428:0C1C 73D0           JNB    0BEE
1428:0C1E 80C30A         ADD    BL,0A
1428:0C21 B704           MOV    BH,04
1428:0C23 D1E0           SHL    AX,1
1428:0C25 D1D2           RCL    DX,1
1428:0C27 72D4           JB     0BFD
1428:0C29 FECF           DEC    BH
1428:0C2B 75F6           JNZ    0C23
1428:0C2D 0AC3           OR     AL,BL
1428:0C2F 47             INC    DI
1428:0C30 E2D1           LOOP   0C03
1428:0C32 EBBA           JMP    0BEE
1428:0C34 55             PUSH   BP
1428:0C35 8BEC           MOV    BP,SP
1428:0C37 83EC14         SUB    SP,+14
1428:0C3A 57             PUSH   DI
1428:0C3B 83F90B         CMP    CX,+0B
1428:0C3E 7E03           JLE    0C43
1428:0C40 B90B00         MOV    CX,000B
1428:0C43 83F9F5         CMP    CX,-0B
1428:0C46 7D03           JGE    0C4B
1428:0C48 B9F5FF         MOV    CX,FFF5
1428:0C4B 894EFE         MOV    [BP-02],CX
1428:0C4E 8876FC         MOV    [BP-04],DH
1428:0C51 06             PUSH   ES
1428:0C52 57             PUSH   DI
1428:0C53 8D7EEC         LEA    DI,[BP-14]
1428:0C56 16             PUSH   SS
1428:0C57 07             POP    ES
1428:0C58 E8D100         CALL   0D2C
1428:0C5B 5F             POP    DI
1428:0C5C 07             POP    ES
1428:0C5D 894EFA         MOV    [BP-06],CX
1428:0C60 8B76FE         MOV    SI,[BP-02]
1428:0C63 0BF6           OR     SI,SI
1428:0C65 780C           JS     0C73
1428:0C67 0376FA         ADD    SI,[BP-06]
1428:0C6A 46             INC    SI
1428:0C6B 7908           JNS    0C75
1428:0C6D C646EC00       MOV    Byte Ptr [BP-14],00
1428:0C71 EB2E           JMP    0CA1
1428:0C73 F7DE           NEG    SI
1428:0C75 83FE0C         CMP    SI,+0C
1428:0C78 7203           JB     0C7D
1428:0C7A BE0B00         MOV    SI,000B
1428:0C7D 807AEC35       CMP    Byte Ptr [BP+SI-14],35        ;'5'
1428:0C81 C642EC00       MOV    Byte Ptr [BP+SI-14],00
1428:0C85 721A           JB     0CA1
1428:0C87 4E             DEC    SI
1428:0C88 780F           JS     0C99
1428:0C8A FE42EC         INC    Byte Ptr [BP+SI-14]
1428:0C8D 807AEC39       CMP    Byte Ptr [BP+SI-14],39        ;'9'
1428:0C91 760E           JBE    0CA1
1428:0C93 C642EC00       MOV    Byte Ptr [BP+SI-14],00
1428:0C97 EBEE           JMP    0C87
1428:0C99 C746EC3100     MOV    Word Ptr [BP-14],0031
1428:0C9E FF46FA         INC    Word Ptr [BP-06]
1428:0CA1 33F6           XOR    SI,SI
1428:0CA3 FC             CLD
1428:0CA4 8B56FE         MOV    DX,[BP-02]
1428:0CA7 0BD2           OR     DX,DX
1428:0CA9 7835           JS     0CE0
1428:0CAB F646FC80       TEST   Byte Ptr [BP-04],80
1428:0CAF 7403           JZ     0CB4
1428:0CB1 B02D           MOV    AL,2D                         ;'-'
1428:0CB3 AA             STOSB
1428:0CB4 8B4EFA         MOV    CX,[BP-06]
1428:0CB7 0BC9           OR     CX,CX
1428:0CB9 7905           JNS    0CC0
1428:0CBB B030           MOV    AL,30                         ;'0'
1428:0CBD AA             STOSB
1428:0CBE EB07           JMP    0CC7
1428:0CC0 E85D00         CALL   0D20
1428:0CC3 AA             STOSB
1428:0CC4 49             DEC    CX
1428:0CC5 79F9           JNS    0CC0
1428:0CC7 0BD2           OR     DX,DX
1428:0CC9 744C           JZ     0D17
1428:0CCB B02E           MOV    AL,2E                         ;'.'
1428:0CCD AA             STOSB
1428:0CCE 41             INC    CX
1428:0CCF 7406           JZ     0CD7
1428:0CD1 B030           MOV    AL,30                         ;'0'
1428:0CD3 AA             STOSB
1428:0CD4 4A             DEC    DX
1428:0CD5 75F7           JNZ    0CCE
1428:0CD7 4A             DEC    DX
1428:0CD8 783D           JS     0D17
1428:0CDA E84300         CALL   0D20
1428:0CDD AA             STOSB
1428:0CDE EBF7           JMP    0CD7
1428:0CE0 B020           MOV    AL,20                         ;' '
1428:0CE2 F646FC80       TEST   Byte Ptr [BP-04],80
1428:0CE6 7402           JZ     0CEA
1428:0CE8 B02D           MOV    AL,2D                         ;'-'
1428:0CEA AA             STOSB
1428:0CEB E83200         CALL   0D20
1428:0CEE AA             STOSB
1428:0CEF 42             INC    DX
1428:0CF0 740A           JZ     0CFC
1428:0CF2 B02E           MOV    AL,2E                         ;'.'
1428:0CF4 AA             STOSB
1428:0CF5 E82800         CALL   0D20
1428:0CF8 AA             STOSB
1428:0CF9 42             INC    DX
1428:0CFA 75F9           JNZ    0CF5
1428:0CFC B045           MOV    AL,45                         ;'E'
1428:0CFE AA             STOSB
1428:0CFF B02B           MOV    AL,2B                         ;'+'
1428:0D01 8B56FA         MOV    DX,[BP-06]
1428:0D04 0BD2           OR     DX,DX
1428:0D06 7904           JNS    0D0C
1428:0D08 B02D           MOV    AL,2D                         ;'-'
1428:0D0A F7DA           NEG    DX
1428:0D0C AA             STOSB
1428:0D0D 8BC2           MOV    AX,DX
1428:0D0F B20A           MOV    DL,0A
1428:0D11 F6FA           IDIV   DL
1428:0D13 053030         ADD    AX,3030
1428:0D16 AB             STOSW
1428:0D17 8BCF           MOV    CX,DI
1428:0D19 5F             POP    DI
1428:0D1A 2BCF           SUB    CX,DI
1428:0D1C 8BE5           MOV    SP,BP
1428:0D1E 5D             POP    BP
1428:0D1F C3             RET


1428:0D20 8A42EC         MOV    AL,[BP+SI-14]
1428:0D23 46             INC    SI
1428:0D24 0AC0           OR     AL,AL
1428:0D26 7503           JNZ    0D2B
1428:0D28 B030           MOV    AL,30                         ;'0'
1428:0D2A 4E             DEC    SI
1428:0D2B C3             RET


1428:0D2C 0AC0           OR     AL,AL
1428:0D2E 750D           JNZ    0D3D
1428:0D30 B90600         MOV    CX,0006
1428:0D33 B83030         MOV    AX,3030
1428:0D36 FC             CLD
1428:0D37 F3             REPZ
1428:0D38 AB             STOSW
1428:0D39 32C0           XOR    AL,AL
1428:0D3B AA             STOSB
1428:0D3C C3             RET


1428:0D3D 80E67F         AND    DH,7F
1428:0D40 50             PUSH   AX
1428:0D41 2C80           SUB    AL,80
1428:0D43 B44D           MOV    AH,4D                         ;'M'
1428:0D45 F6EC           IMUL   AH
1428:0D47 050500         ADD    AX,0005
1428:0D4A 8AC4           MOV    AL,AH
1428:0D4C 98             CBW
1428:0D4D 8BC8           MOV    CX,AX
1428:0D4F 58             POP    AX
1428:0D50 83F9D9         CMP    CX,-27
1428:0D53 7501           JNZ    0D56
1428:0D55 41             INC    CX
1428:0D56 51             PUSH   CX
1428:0D57 57             PUSH   DI
1428:0D58 F7D9           NEG    CX
1428:0D5A E83801         CALL   0E95
1428:0D5D 5F             POP    DI
1428:0D5E 59             POP    CX
1428:0D5F 3C81           CMP    AL,81
1428:0D61 7304           JNB    0D67
1428:0D63 E8BB01         CALL   0F21
1428:0D66 49             DEC    CX
1428:0D67 51             PUSH   CX
1428:0D68 80CE80         OR     DH,80
1428:0D6B B184           MOV    CL,84
1428:0D6D 2AC8           SUB    CL,AL
1428:0D6F B000           MOV    AL,00
1428:0D71 740A           JZ     0D7D
1428:0D73 D1EA           SHR    DX,1
1428:0D75 D1DB           RCR    BX,1
1428:0D77 D1D8           RCR    AX,1
1428:0D79 FEC9           DEC    CL
1428:0D7B 75F6           JNZ    0D73
1428:0D7D BE0C00         MOV    SI,000C
1428:0D80 8AEE           MOV    CH,DH
1428:0D82 B104           MOV    CL,04
1428:0D84 D2ED           SHR    CH,CL
1428:0D86 80C530         ADD    CH,30                         ;'0'
1428:0D89 26882D         MOV    ES:[DI],CH
1428:0D8C 80E60F         AND    DH,0F
1428:0D8F 52             PUSH   DX
1428:0D90 53             PUSH   BX
1428:0D91 50             PUSH   AX
1428:0D92 D1E0           SHL    AX,1
1428:0D94 D1D3           RCL    BX,1
1428:0D96 D1D2           RCL    DX,1
1428:0D98 D1E0           SHL    AX,1
1428:0D9A D1D3           RCL    BX,1
1428:0D9C D1D2           RCL    DX,1
1428:0D9E 59             POP    CX
1428:0D9F 03C1           ADD    AX,CX
1428:0DA1 59             POP    CX
1428:0DA2 13D9           ADC    BX,CX
1428:0DA4 59             POP    CX
1428:0DA5 13D1           ADC    DX,CX
1428:0DA7 D1E0           SHL    AX,1
1428:0DA9 D1D3           RCL    BX,1
1428:0DAB D1D2           RCL    DX,1
1428:0DAD 47             INC    DI
1428:0DAE 4E             DEC    SI
1428:0DAF 75CF           JNZ    0D80
1428:0DB1 26C60500       MOV    Byte Ptr ES:[DI],00
1428:0DB5 59             POP    CX
1428:0DB6 C3             RET


1428:0DB7 55             PUSH   BP
1428:0DB8 8BEC           MOV    BP,SP
1428:0DBA 83EC08         SUB    SP,+08
1428:0DBD 33C0           XOR    AX,AX
1428:0DBF 8946F8         MOV    [BP-08],AX
1428:0DC2 8946FA         MOV    [BP-06],AX
1428:0DC5 8946FC         MOV    [BP-04],AX
1428:0DC8 E357           JCXZ   0E21
1428:0DCA 268A05         MOV    AL,ES:[DI]
1428:0DCD 8846FE         MOV    [BP-02],AL
1428:0DD0 3C20           CMP    AL,20                         ;' '
1428:0DD2 7408           JZ     0DDC
1428:0DD4 3C2B           CMP    AL,2B                         ;'+'
1428:0DD6 7404           JZ     0DDC
1428:0DD8 3C2D           CMP    AL,2D                         ;'-'
1428:0DDA 7502           JNZ    0DDE
1428:0DDC 47             INC    DI
1428:0DDD 49             DEC    CX
1428:0DDE 51             PUSH   CX
1428:0DDF E87700         CALL   0E59
1428:0DE2 33DB           XOR    BX,BX
1428:0DE4 E30D           JCXZ   0DF3
1428:0DE6 26803D2E       CMP    Byte Ptr ES:[DI],2E           ;'.'
1428:0DEA 7507           JNZ    0DF3
1428:0DEC 47             INC    DI
1428:0DED 49             DEC    CX
1428:0DEE E86800         CALL   0E59
1428:0DF1 F7DB           NEG    BX
1428:0DF3 58             POP    AX
1428:0DF4 3BC1           CMP    AX,CX
1428:0DF6 7429           JZ     0E21
1428:0DF8 E32A           JCXZ   0E24
1428:0DFA 268A05         MOV    AL,ES:[DI]
1428:0DFD 3C45           CMP    AL,45                         ;'E'
1428:0DFF 7404           JZ     0E05
1428:0E01 3C65           CMP    AL,65                         ;'e'
1428:0E03 751F           JNZ    0E24
1428:0E05 47             INC    DI
1428:0E06 49             DEC    CX
1428:0E07 53             PUSH   BX
1428:0E08 E891FD         CALL   0B9C
1428:0E0B 5B             POP    BX
1428:0E0C 7213           JB     0E21
1428:0E0E 03D8           ADD    BX,AX
1428:0E10 8BF2           MOV    SI,DX
1428:0E12 99             CWD
1428:0E13 3BF2           CMP    SI,DX
1428:0E15 750A           JNZ    0E21
1428:0E17 3D4000         CMP    AX,0040
1428:0E1A 7D05           JGE    0E21
1428:0E1C 3DC0FF         CMP    AX,FFC0
1428:0E1F 7F03           JG     0E24
1428:0E21 F9             STC
1428:0E22 EB31           JMP    0E55
1428:0E24 51             PUSH   CX
1428:0E25 57             PUSH   DI
1428:0E26 8ACB           MOV    CL,BL
1428:0E28 8B46F8         MOV    AX,[BP-08]
1428:0E2B 8B5EFA         MOV    BX,[BP-06]
1428:0E2E 8B56FC         MOV    DX,[BP-04]
1428:0E31 80F9DC         CMP    CL,DC
1428:0E34 7D0A           JGE    0E40
1428:0E36 51             PUSH   CX
1428:0E37 B1DC           MOV    CL,DC
1428:0E39 E85900         CALL   0E95
1428:0E3C 59             POP    CX
1428:0E3D 80C124         ADD    CL,24                         ;'$'
1428:0E40 E85200         CALL   0E95
1428:0E43 5F             POP    DI
1428:0E44 59             POP    CX
1428:0E45 720E           JB     0E55
1428:0E47 0AC0           OR     AL,AL
1428:0E49 740A           JZ     0E55
1428:0E4B 807EFE2D       CMP    Byte Ptr [BP-02],2D           ;'-'
1428:0E4F F8             CLC
1428:0E50 7503           JNZ    0E55
1428:0E52 80CE80         OR     DH,80
1428:0E55 8BE5           MOV    SP,BP
1428:0E57 5D             POP    BP
1428:0E58 C3             RET


1428:0E59 33DB           XOR    BX,BX
1428:0E5B E337           JCXZ   0E94
1428:0E5D 268A05         MOV    AL,ES:[DI]
1428:0E60 2C3A           SUB    AL,3A                         ;':'
1428:0E62 040A           ADD    AL,0A
1428:0E64 732E           JNB    0E94
1428:0E66 43             INC    BX
1428:0E67 47             INC    DI
1428:0E68 49             DEC    CX
1428:0E69 53             PUSH   BX
1428:0E6A 51             PUSH   CX
1428:0E6B 57             PUSH   DI
1428:0E6C 98             CBW
1428:0E6D 99             CWD
1428:0E6E E8CAFB         CALL   0A3B
1428:0E71 8BC8           MOV    CX,AX
1428:0E73 8BF3           MOV    SI,BX
1428:0E75 8BFA           MOV    DI,DX
1428:0E77 8B46F8         MOV    AX,[BP-08]
1428:0E7A 8B5EFA         MOV    BX,[BP-06]
1428:0E7D 8B56FC         MOV    DX,[BP-04]
1428:0E80 E89E00         CALL   0F21
1428:0E83 E88CF9         CALL   0812
1428:0E86 8946F8         MOV    [BP-08],AX
1428:0E89 895EFA         MOV    [BP-06],BX
1428:0E8C 8956FC         MOV    [BP-04],DX
1428:0E8F 5F             POP    DI
1428:0E90 59             POP    CX
1428:0E91 5B             POP    BX
1428:0E92 EBC7           JMP    0E5B
1428:0E94 C3             RET


1428:0E95 80F9DA         CMP    CL,DA
1428:0E98 7C49           JL     0EE3
1428:0E9A 80F926         CMP    CL,26                         ;'&'
1428:0E9D 7F44           JG     0EE3
1428:0E9F 52             PUSH   DX
1428:0EA0 53             PUSH   BX
1428:0EA1 50             PUSH   AX
1428:0EA2 0AC9           OR     CL,CL
1428:0EA4 9C             PUSHF
1428:0EA5 7902           JNS    0EA9
1428:0EA7 F6D9           NEG    CL
1428:0EA9 8AD9           MOV    BL,CL
1428:0EAB 80E3FC         AND    BL,FC
1428:0EAE 8AFB           MOV    BH,BL
1428:0EB0 D0EB           SHR    BL,1
1428:0EB2 02DF           ADD    BL,BH
1428:0EB4 32FF           XOR    BH,BH
1428:0EB6 8DBFE50E       LEA    DI,[BX+0EE5]
1428:0EBA 2E8B05         MOV    AX,CS:[DI]
1428:0EBD 2E8B5D02       MOV    BX,CS:[DI+02]
1428:0EC1 2E8B5504       MOV    DX,CS:[DI+04]
1428:0EC5 80E103         AND    CL,03
1428:0EC8 7407           JZ     0ED1
1428:0ECA E85400         CALL   0F21
1428:0ECD FEC9           DEC    CL
1428:0ECF 75F9           JNZ    0ECA
1428:0ED1 8BC8           MOV    CX,AX
1428:0ED3 8BF3           MOV    SI,BX
1428:0ED5 8BFA           MOV    DI,DX
1428:0ED7 9D             POPF
1428:0ED8 58             POP    AX
1428:0ED9 5B             POP    BX
1428:0EDA 5A             POP    DX
1428:0EDB 7803           JS     0EE0
1428:0EDD E908FA         JMP    08E8
1428:0EE0 E982FA         JMP    0965
1428:0EE3 F9             STC
1428:0EE4 C3             RET


1428:0EE5 81000000       ADD    Word Ptr [BX+SI],0000
1428:0EE9 0000           ADD    [BX+SI],AL
1428:0EEB 8E00           MOV    ES,[BX+SI]
1428:0EED 0000           ADD    [BX+SI],AL
1428:0EEF 40             INC    AX
1428:0EF0 1C9B           SBB    AL,9B
1428:0EF2 0000           ADD    [BX+SI],AL
1428:0EF4 20BC3EA8       AND    [SI+A83E],BH
1428:0EF8 0010           ADD    [BX+SI],DL
1428:0EFA A5             MOVSW
1428:0EFB D468           AAM    68
1428:0EFD B604           MOV    DH,04
1428:0EFF BFC91B         MOV    DI,1BC9
1428:0F02 0E             PUSH   CS
1428:0F03 C3             RET


1428:0F04 AC             LODSB
1428:0F05 C5EB           LDS    BP,BX
1428:0F07 782D           JS     0F36
1428:0F09 D0CD           ROR    CH,1
1428:0F0B CE             INTO
1428:0F0C 1BC2           SBB    AX,DX
1428:0F0E 53             PUSH   BX
1428:0F0F DEF9           FDIVP  ST(1),ST
1428:0F11 7839           JS     0F4C
1428:0F13 3F             AAS
1428:0F14 01EB           ADD    BX,BP
1428:0F16 2BA8ADC5       SUB    BP,[BX+SI+C5AD]
1428:0F1A 1DF8C9         SBB    AX,C9F8
1428:0F1D 7BCE           JPO    0EED
1428:0F1F 97             XCHG   AX,DI
1428:0F20 40             INC    AX
1428:0F21 0AC0           OR     AL,AL
1428:0F23 742E           JZ     0F53
1428:0F25 80CE80         OR     DH,80
1428:0F28 51             PUSH   CX
1428:0F29 52             PUSH   DX
1428:0F2A 53             PUSH   BX
1428:0F2B 50             PUSH   AX
1428:0F2C D1EA           SHR    DX,1
1428:0F2E D1DB           RCR    BX,1
1428:0F30 D0DC           RCR    AH,1
1428:0F32 D1EA           SHR    DX,1
1428:0F34 D1DB           RCR    BX,1
1428:0F36 D0DC           RCR    AH,1
1428:0F38 59             POP    CX
1428:0F39 02E5           ADD    AH,CH
1428:0F3B 59             POP    CX
1428:0F3C 13D9           ADC    BX,CX
1428:0F3E 59             POP    CX
1428:0F3F 13D1           ADC    DX,CX
1428:0F41 59             POP    CX
1428:0F42 730A           JNB    0F4E
1428:0F44 D1DA           RCR    DX,1
1428:0F46 D1DB           RCR    BX,1
1428:0F48 D0DC           RCR    AH,1
1428:0F4A 0401           ADD    AL,01
1428:0F4C 7205           JB     0F53
1428:0F4E 80E67F         AND    DH,7F
1428:0F51 0403           ADD    AL,03
1428:0F53 C3             RET


1428:0F54 8BDC           MOV    BX,SP
1428:0F56 1E             PUSH   DS
1428:0F57 36C47F08       LES    DI,SS:[BX+08]
1428:0F5B 36C57704       LDS    SI,SS:[BX+04]
1428:0F5F FC             CLD
1428:0F60 33C0           XOR    AX,AX
1428:0F62 AB             STOSW
1428:0F63 B8B0D7         MOV    AX,D7B0
1428:0F66 AB             STOSW
1428:0F67 B88000         MOV    AX,0080
1428:0F6A AB             STOSW
1428:0F6B 33C0           XOR    AX,AX
1428:0F6D AB             STOSW
1428:0F6E AB             STOSW
1428:0F6F AB             STOSW
1428:0F70 8D4574         LEA    AX,[DI+74]
1428:0F73 AB             STOSW
1428:0F74 8CC0           MOV    AX,ES
1428:0F76 AB             STOSW
1428:0F77 B86910         MOV    AX,1069
1428:0F7A AB             STOSW
1428:0F7B 8CC8           MOV    AX,CS
1428:0F7D AB             STOSW
1428:0F7E 33C0           XOR    AX,AX
1428:0F80 B90E00         MOV    CX,000E
1428:0F83 F3             REPZ
1428:0F84 AB             STOSW
1428:0F85 AC             LODSB
1428:0F86 3C4F           CMP    AL,4F                         ;'O'
1428:0F88 7602           JBE    0F8C
1428:0F8A B04F           MOV    AL,4F                         ;'O'
1428:0F8C 8AC8           MOV    CL,AL
1428:0F8E 32ED           XOR    CH,CH
1428:0F90 F3             REPZ
1428:0F91 A4             MOVSB
1428:0F92 32C0           XOR    AL,AL
1428:0F94 AA             STOSB
1428:0F95 1F             POP    DS
1428:0F96 CA0800         RETF   0008


1428:0F99 8BDC           MOV    BX,SP
1428:0F9B 36C47F0A       LES    DI,SS:[BX+0A]
1428:0F9F 368B4704       MOV    AX,SS:[BX+04]
1428:0FA3 26894504       MOV    ES:[DI+04],AX
1428:0FA7 368B4706       MOV    AX,SS:[BX+06]
1428:0FAB 2689450C       MOV    ES:[DI+0C],AX
1428:0FAF 368B4708       MOV    AX,SS:[BX+08]
1428:0FB3 2689450E       MOV    ES:[DI+0E],AX
1428:0FB7 33C0           XOR    AX,AX
1428:0FB9 26894508       MOV    ES:[DI+08],AX
1428:0FBD 2689450A       MOV    ES:[DI+0A],AX
1428:0FC1 CA0A00         RETF   000A


1428:0FC4 BAB1D7         MOV    DX,D7B1
1428:0FC7 EB08           JMP    0FD1
1428:0FC9 BAB2D7         MOV    DX,D7B2
1428:0FCC EB03           JMP    0FD1
1428:0FCE BAB3D7         MOV    DX,D7B3
1428:0FD1 8BDC           MOV    BX,SP
1428:0FD3 36C47F04       LES    DI,SS:[BX+04]
1428:0FD7 268B4502       MOV    AX,ES:[DI+02]
1428:0FDB 3DB1D7         CMP    AX,D7B1
1428:0FDE 7412           JZ     0FF2
1428:0FE0 3DB2D7         CMP    AX,D7B2
1428:0FE3 740D           JZ     0FF2
1428:0FE5 3DB0D7         CMP    AX,D7B0
1428:0FE8 7410           JZ     0FFA
1428:0FEA C70634006600   MOV    Word Ptr [0034],0066 ; chybov˜ k¢d
1428:0FF0 EB24           JMP    1016
1428:0FF2 52             PUSH   DX
1428:0FF3 06             PUSH   ES
1428:0FF4 57             PUSH   DI
1428:0FF5 0E             PUSH   CS
1428:0FF6 E82400         CALL   101D
1428:0FF9 5A             POP    DX
1428:0FFA 33C0           XOR    AX,AX
1428:0FFC 26895502       MOV    ES:[DI+02],DX
1428:1000 26894508       MOV    ES:[DI+08],AX
1428:1004 2689450A       MOV    ES:[DI+0A],AX
1428:1008 BB1000         MOV    BX,0010
1428:100B E84A00         CALL   1058
1428:100E 7406           JZ     1016
1428:1010 26C74502B0D7   MOV    Word Ptr ES:[DI+02],D7B0
1428:1016 CA0400         RETF   0004


1428:1019 B000           MOV    AL,00
1428:101B EB02           JMP    101F
1428:101D B001           MOV    AL,01
1428:101F 8BDC           MOV    BX,SP
1428:1021 36C47F04       LES    DI,SS:[BX+04]
1428:1025 26817D02B1D7   CMP    Word Ptr ES:[DI+02],D7B1
1428:102B 7418           JZ     1045
1428:102D 26817D02B2D7   CMP    Word Ptr ES:[DI+02],D7B2
1428:1033 7408           JZ     103D
1428:1035 C70634006700   MOV    Word Ptr [0034],0067 ; chybov˜ k¢d
1428:103B EB18           JMP    1055
1428:103D 50             PUSH   AX
1428:103E BB1400         MOV    BX,0014
1428:1041 E81400         CALL   1058
1428:1044 58             POP    AX
1428:1045 0AC0           OR     AL,AL
1428:1047 740C           JZ     1055
1428:1049 BB1C00         MOV    BX,001C
1428:104C E80900         CALL   1058
1428:104F 26C74502B0D7   MOV    Word Ptr ES:[DI+02],D7B0
1428:1055 CA0400         RETF   0004


1428:1058 06             PUSH   ES
1428:1059 57             PUSH   DI
1428:105A 06             PUSH   ES
1428:105B 57             PUSH   DI
1428:105C 26FF19         CALL   FAR ES:[BX+DI]
1428:105F 0BC0           OR     AX,AX
1428:1061 7403           JZ     1066
1428:1063 A33400         MOV    [0034],AX   ; chybov˜ k¢d
1428:1066 5F             POP    DI
1428:1067 07             POP    ES
1428:1068 C3             RET


1428:1069 8BDC           MOV    BX,SP
1428:106B 1E             PUSH   DS
1428:106C 36C57F04       LDS    DI,SS:[BX+04]
1428:1070 33C9           XOR    CX,CX
1428:1072 890D           MOV    [DI],CX
1428:1074 B8003D         MOV    AX,3D00
1428:1077 817D02B1D7     CMP    Word Ptr [DI+02],D7B1
1428:107C 740D           JZ     108B
1428:107E B002           MOV    AL,02
1428:1080 FF05           INC    Word Ptr [DI]
1428:1082 817D02B3D7     CMP    Word Ptr [DI+02],D7B3
1428:1087 7402           JZ     108B
1428:1089 B43C           MOV    AH,3C                         ;'<'
1428:108B 807D3000       CMP    Byte Ptr [DI+30],00
1428:108F 7409           JZ     109A
1428:1091 8D5530         LEA    DX,[DI+30]
1428:1094 CD21           INT    21
1428:1096 724F           JB     10E7
1428:1098 8905           MOV    [DI],AX
1428:109A B84511         MOV    AX,1145
1428:109D 33C9           XOR    CX,CX
1428:109F 8BD9           MOV    BX,CX
1428:10A1 817D02B1D7     CMP    Word Ptr [DI+02],D7B1
1428:10A6 7429           JZ     10D1
1428:10A8 8B1D           MOV    BX,[DI]
1428:10AA B80044         MOV    AX,4400
1428:10AD CD21           INT    21
1428:10AF B89A11         MOV    AX,119A
1428:10B2 8BC8           MOV    CX,AX
1428:10B4 8CCB           MOV    BX,CS
1428:10B6 F6C280         TEST   DL,80
1428:10B9 7511           JNZ    10CC
1428:10BB 817D02B3D7     CMP    Word Ptr [DI+02],D7B3
1428:10C0 7503           JNZ    10C5
1428:10C2 E82600         CALL   10EB
1428:10C5 B87511         MOV    AX,1175
1428:10C8 33C9           XOR    CX,CX
1428:10CA 8BD9           MOV    BX,CX
1428:10CC C74502B2D7     MOV    Word Ptr [DI+02],D7B2
1428:10D1 894514         MOV    [DI+14],AX
1428:10D4 8C4D16         MOV    [DI+16],CS
1428:10D7 894D18         MOV    [DI+18],CX
1428:10DA 895D1A         MOV    [DI+1A],BX
1428:10DD C7451CBA11     MOV    Word Ptr [DI+1C],11BA
1428:10E2 8C4D1E         MOV    [DI+1E],CS
1428:10E5 33C0           XOR    AX,AX
1428:10E7 1F             POP    DS
1428:10E8 CA0400         RETF   0004


1428:10EB 33D2           XOR    DX,DX
1428:10ED 33C9           XOR    CX,CX
1428:10EF 8B1D           MOV    BX,[DI]
1428:10F1 B80242         MOV    AX,4202
1428:10F4 CD21           INT    21
1428:10F6 2D8000         SUB    AX,0080
1428:10F9 83DA00         SBB    DX,+00
1428:10FC 7304           JNB    1102
1428:10FE 33C0           XOR    AX,AX
1428:1100 33D2           XOR    DX,DX
1428:1102 8BCA           MOV    CX,DX
1428:1104 8BD0           MOV    DX,AX
1428:1106 8B1D           MOV    BX,[DI]
1428:1108 B80042         MOV    AX,4200
1428:110B CD21           INT    21
1428:110D 8D958000       LEA    DX,[DI+0080]
1428:1111 B98000         MOV    CX,0080
1428:1114 8B1D           MOV    BX,[DI]
1428:1116 B43F           MOV    AH,3F                         ;'?'
1428:1118 CD21           INT    21
1428:111A 7302           JNB    111E
1428:111C 33C0           XOR    AX,AX
1428:111E 33DB           XOR    BX,BX
1428:1120 3BD8           CMP    BX,AX
1428:1122 7420           JZ     1144
1428:1124 80B980001A     CMP    Byte Ptr [BX+DI+0080],1A
1428:1129 7403           JZ     112E
1428:112B 43             INC    BX
1428:112C EBF2           JMP    1120
1428:112E 8BD3           MOV    DX,BX
1428:1130 2BD0           SUB    DX,AX
1428:1132 B9FFFF         MOV    CX,FFFF
1428:1135 8B1D           MOV    BX,[DI]
1428:1137 B80242         MOV    AX,4202
1428:113A CD21           INT    21
1428:113C 33C9           XOR    CX,CX
1428:113E 8B1D           MOV    BX,[DI]
1428:1140 B440           MOV    AH,40                         ;'@'
1428:1142 CD21           INT    21
1428:1144 C3             RET


1428:1145 8BDC           MOV    BX,SP
1428:1147 1E             PUSH   DS
1428:1148 36C47F04       LES    DI,SS:[BX+04]
1428:114C 26C5550C       LDS    DX,ES:[DI+0C]
1428:1150 268B4D04       MOV    CX,ES:[DI+04]
1428:1154 268B1D         MOV    BX,ES:[DI]
1428:1157 B43F           MOV    AH,3F                         ;'?'
1428:1159 CD21           INT    21
1428:115B 7210           JB     116D
1428:115D 2689450A       MOV    ES:[DI+0A],AX
1428:1161 33C0           XOR    AX,AX
1428:1163 26C745080000   MOV    Word Ptr ES:[DI+08],0000
1428:1169 1F             POP    DS
1428:116A CA0400         RETF   0004


1428:116D 26C7450A0000   MOV    Word Ptr ES:[DI+0A],0000
1428:1173 EBEE           JMP    1163
1428:1175 8BDC           MOV    BX,SP
1428:1177 1E             PUSH   DS
1428:1178 36C47F04       LES    DI,SS:[BX+04]
1428:117C 26C5550C       LDS    DX,ES:[DI+0C]
1428:1180 33C9           XOR    CX,CX
1428:1182 26874D08       XCHG   CX,ES:[DI+08]
1428:1186 268B1D         MOV    BX,ES:[DI]
1428:1189 B440           MOV    AH,40                         ;'@'
1428:118B CD21           INT    21
1428:118D 7207           JB     1196
1428:118F 2BC1           SUB    AX,CX
1428:1191 7403           JZ     1196
1428:1193 B86500         MOV    AX,0065
1428:1196 1F             POP    DS
1428:1197 CA0400         RETF   0004


1428:119A 8BDC           MOV    BX,SP
1428:119C 1E             PUSH   DS
1428:119D 36C47F04       LES    DI,SS:[BX+04]
1428:11A1 26C5550C       LDS    DX,ES:[DI+0C]
1428:11A5 33C9           XOR    CX,CX
1428:11A7 26874D08       XCHG   CX,ES:[DI+08]
1428:11AB 268B1D         MOV    BX,ES:[DI]
1428:11AE B440           MOV    AH,40                         ;'@'
1428:11B0 CD21           INT    21
1428:11B2 7202           JB     11B6
1428:11B4 33C0           XOR    AX,AX
1428:11B6 1F             POP    DS
1428:11B7 CA0400         RETF   0004


1428:11BA 8BDC           MOV    BX,SP
1428:11BC 36C47F04       LES    DI,SS:[BX+04]
1428:11C0 268B1D         MOV    BX,ES:[DI]
1428:11C3 83FB04         CMP    BX,+04
1428:11C6 7606           JBE    11CE
1428:11C8 B43E           MOV    AH,3E                         ;'>'
1428:11CA CD21           INT    21
1428:11CC 7202           JB     11D0
1428:11CE 33C0           XOR    AX,AX
1428:11D0 CA0400         RETF   0004


1428:11D3 833E340000     CMP    Word Ptr [0034],+00 ; chybov˜ k¢d
1428:11D8 7508           JNZ    11E2
1428:11DA 26817D02B1D7   CMP    Word Ptr ES:[DI+02],D7B1
1428:11E0 750D           JNZ    11EF
1428:11E2 268B5D08       MOV    BX,ES:[DI+08]
1428:11E6 268B550A       MOV    DX,ES:[DI+0A]
1428:11EA 26C47D0C       LES    DI,ES:[DI+0C]
1428:11EE C3             RET


1428:11EF C70634006800   MOV    Word Ptr [0034],0068  ; chybov˜ k¢d
1428:11F5 EBEB           JMP    11E2
1428:11F7 3BDA           CMP    BX,DX
1428:11F9 7405           JZ     1200
1428:11FB 268A01         MOV    AL,ES:[BX+DI]
1428:11FE F8             CLC
1428:11FF C3             RET


1428:1200 8BFC           MOV    DI,SP
1428:1202 36C47D02       LES    DI,SS:[DI+02]
1428:1206 E83D00         CALL   1246
1428:1209 8BD0           MOV    DX,AX
1428:120B 3BDA           CMP    BX,DX
1428:120D 75EC           JNZ    11FB
1428:120F B01A           MOV    AL,1A
1428:1211 F9             STC
1428:1212 C3             RET


1428:1213 833E340000     CMP    Word Ptr [0034],+00 ; chybov˜ k¢d
1428:1218 7508           JNZ    1222
1428:121A 26817D02B2D7   CMP    Word Ptr ES:[DI+02],D7B2
1428:1220 750D           JNZ    122F
1428:1222 268B5D08       MOV    BX,ES:[DI+08]
1428:1226 268B5504       MOV    DX,ES:[DI+04]
1428:122A 26C47D0C       LES    DI,ES:[DI+0C]
1428:122E C3             RET


1428:122F C70634006900   MOV    Word Ptr [0034],0069 ; chybov˜ k¢d
1428:1235 EBEB           JMP    1222
1428:1237 268801         MOV    ES:[BX+DI],AL
1428:123A 43             INC    BX
1428:123B 3BDA           CMP    BX,DX
1428:123D 7401           JZ     1240
1428:123F C3             RET


1428:1240 8BFC           MOV    DI,SP
1428:1242 36C47D02       LES    DI,SS:[DI+02]
1428:1246 51             PUSH   CX
1428:1247 56             PUSH   SI
1428:1248 1E             PUSH   DS
1428:1249 BA8719         MOV    DX,1987
1428:124C 8EDA           MOV    DS,DX
1428:124E 26895D08       MOV    ES:[DI+08],BX
1428:1252 06             PUSH   ES
1428:1253 57             PUSH   DI
1428:1254 06             PUSH   ES
1428:1255 57             PUSH   DI
1428:1256 26FF5D14       CALL   FAR ES:[DI+14]
1428:125A 0BC0           OR     AX,AX
1428:125C 7403           JZ     1261
1428:125E A33400         MOV    [0034],AX ; chybov˜ k¢d
1428:1261 5F             POP    DI
1428:1262 07             POP    ES
1428:1263 268B450A       MOV    AX,ES:[DI+0A]
1428:1267 268B5D08       MOV    BX,ES:[DI+08]
1428:126B 268B5504       MOV    DX,ES:[DI+04]
1428:126F 26C47D0C       LES    DI,ES:[DI+0C]
1428:1273 1F             POP    DS
1428:1274 5E             POP    SI
1428:1275 59             POP    CX
1428:1276 C3             RET

; -----------------------------------------------------------------------------
;
; -----------------------------------------------------------------------------

1428:1277 8BDC         * MOV    BX,SP
1428:1279 36C47F04       LES    DI,SS:[BX+04]
1428:127D 06             PUSH   ES
1428:127E 57             PUSH   DI
1428:127F E851FF         CALL   11D3
1428:1282 7514           JNZ    1298
1428:1284 E870FF         CALL   11F7
1428:1287 3C1A           CMP    AL,1A
1428:1289 740D           JZ     1298
1428:128B 43             INC    BX
1428:128C 3C0D           CMP    AL,0D
1428:128E 75F4           JNZ    1284
1428:1290 E864FF         CALL   11F7
1428:1293 3C0A           CMP    AL,0A
1428:1295 7501           JNZ    1298
1428:1297 43             INC    BX
1428:1298 5F             POP    DI
1428:1299 07             POP    ES
1428:129A 26895D08       MOV    ES:[DI+08],BX
1428:129E EB25           JMP    12C5

; -----------------------------------------------------------------------------
;
; -----------------------------------------------------------------------------

1428:12A0 8BDC         * MOV    BX,SP
1428:12A2 36C47F04       LES    DI,SS:[BX+04]
1428:12A6 06             PUSH   ES
1428:12A7 57             PUSH   DI
1428:12A8 E868FF         CALL   1213
1428:12AB 750A           JNZ    12B7
1428:12AD B00D           MOV    AL,0D
1428:12AF E885FF         CALL   1237
1428:12B2 B00A           MOV    AL,0A
1428:12B4 E880FF         CALL   1237
1428:12B7 5F             POP    DI
1428:12B8 07             POP    ES
1428:12B9 26895D08       MOV    ES:[DI+08],BX
1428:12BD EB06           JMP    12C5

; -----------------------------------------------------------------------------
;
; -----------------------------------------------------------------------------

1428:12BF 8BDC         * MOV    BX,SP
1428:12C1 36C47F04       LES    DI,SS:[BX+04]
1428:12C5 26837D1A00     CMP    Word Ptr ES:[DI+1A],+00
1428:12CA 7503           JNZ    12CF
1428:12CC CA0400         RETF   0004


1428:12CF 833E340000     CMP    Word Ptr [0034],+00
1428:12D4 75F6           JNZ    12CC
1428:12D6 06             PUSH   ES
1428:12D7 57             PUSH   DI
1428:12D8 26FF5D18       CALL   FAR ES:[DI+18]
1428:12DC 0BC0           OR     AX,AX
1428:12DE 74EC           JZ     12CC
1428:12E0 A33400         MOV    [0034],AX
1428:12E3 EBE7           JMP    12CC

; -----------------------------------------------------------------------------
;
; -----------------------------------------------------------------------------

1428:12E5 8BDC         * MOV    BX,SP
1428:12E7 36C47F04       LES    DI,SS:[BX+04]
1428:12EB 06             PUSH   ES
1428:12EC 57             PUSH   DI
1428:12ED E8E3FE         CALL   11D3
1428:12F0 750D           JNZ    12FF
1428:12F2 E802FF         CALL   11F7
1428:12F5 7201           JB     12F8
1428:12F7 43             INC    BX
1428:12F8 5F             POP    DI
1428:12F9 07             POP    ES
1428:12FA 26895D08       MOV    ES:[DI+08],BX
1428:12FE CB             RETF


1428:12FF B01A           MOV    AL,1A
1428:1301 EBF5           JMP    12F8
1428:1303 8BDC           MOV    BX,SP
1428:1305 36C47F08       LES    DI,SS:[BX+08]
1428:1309 368A4706       MOV    AL,SS:[BX+06]
1428:130D 368B4F04       MOV    CX,SS:[BX+04]
1428:1311 06             PUSH   ES
1428:1312 57             PUSH   DI
1428:1313 E8FDFE         CALL   1213
1428:1316 750F           JNZ    1327
1428:1318 49             DEC    CX
1428:1319 7E09           JLE    1324
1428:131B 96             XCHG   AX,SI
1428:131C B020           MOV    AL,20                         ;' '
1428:131E E816FF         CALL   1237
1428:1321 E2F9           LOOP   131C
1428:1323 96             XCHG   AX,SI
1428:1324 E810FF         CALL   1237
1428:1327 5F             POP    DI
1428:1328 07             POP    ES
1428:1329 26895D08       MOV    ES:[DI+08],BX
1428:132D CA0400         RETF   0004


1428:1330 55             PUSH   BP
1428:1331 8BEC           MOV    BP,SP
1428:1333 1E             PUSH   DS
1428:1334 C47E0C         LES    DI,[BP+0C]
1428:1337 06             PUSH   ES
1428:1338 57             PUSH   DI
1428:1339 E897FE         CALL   11D3
1428:133C C57608         LDS    SI,[BP+08]
1428:133F B90000         MOV    CX,0000
1428:1342 7515           JNZ    1359
1428:1344 E8B0FE         CALL   11F7
1428:1347 3C0D           CMP    AL,0D
1428:1349 740E           JZ     1359
1428:134B 3C1A           CMP    AL,1A
1428:134D 740A           JZ     1359
1428:134F 43             INC    BX
1428:1350 41             INC    CX
1428:1351 46             INC    SI
1428:1352 8804           MOV    [SI],AL
1428:1354 3B4E06         CMP    CX,[BP+06]
1428:1357 75EB           JNZ    1344
1428:1359 2BF1           SUB    SI,CX
1428:135B 880C           MOV    [SI],CL
1428:135D 5F             POP    DI
1428:135E 07             POP    ES
1428:135F 26895D08       MOV    ES:[DI+08],BX
1428:1363 1F             POP    DS
1428:1364 5D             POP    BP
1428:1365 CA0600         RETF   0006

; -----------------------------------------------------------------------------
;
; -----------------------------------------------------------------------------

1428:1368 55           * PUSH   BP
1428:1369 8BEC           MOV    BP,SP
1428:136B 1E             PUSH   DS
1428:136C C47E0C         LES    DI,[BP+0C]
1428:136F 06             PUSH   ES
1428:1370 57             PUSH   DI
1428:1371 E89FFE         CALL   1213
1428:1374 7525           JNZ    139B
1428:1376 C57608         LDS    SI,[BP+08]
1428:1379 8B4E06         MOV    CX,[BP+06]
1428:137C FC             CLD
1428:137D AC             LODSB
1428:137E 32E4           XOR    AH,AH
1428:1380 2BC8           SUB    CX,AX
1428:1382 7E0C           JLE    1390
1428:1384 B020           MOV    AL,20                         ;' '
1428:1386 E8AEFE         CALL   1237
1428:1389 E2F9           LOOP   1384
1428:138B 8A44FF         MOV    AL,[SI-01]
1428:138E 32E4           XOR    AH,AH
1428:1390 8BC8           MOV    CX,AX
1428:1392 E307           JCXZ   139B
1428:1394 FC             CLD
1428:1395 AC             LODSB
1428:1396 E89EFE         CALL   1237
1428:1399 E2F9           LOOP   1394
1428:139B 5F             POP    DI
1428:139C 07             POP    ES
1428:139D 26895D08       MOV    ES:[DI+08],BX
1428:13A1 1F             POP    DS
1428:13A2 5D             POP    BP
1428:13A3 CA0600         RETF   0006


1428:13A6 55             PUSH   BP
1428:13A7 8BEC           MOV    BP,SP
1428:13A9 83EC20         SUB    SP,+20
1428:13AC C47E06         LES    DI,[BP+06]
1428:13AF 06             PUSH   ES
1428:13B0 57             PUSH   DI
1428:13B1 E81FFE         CALL   11D3
1428:13B4 BE0000         MOV    SI,0000
1428:13B7 7521           JNZ    13DA
1428:13B9 E83BFE         CALL   11F7
1428:13BC 3C1A           CMP    AL,1A
1428:13BE 741A           JZ     13DA
1428:13C0 3C20           CMP    AL,20                         ;' '
1428:13C2 7703           JA     13C7
1428:13C4 43             INC    BX
1428:13C5 EBF2           JMP    13B9
1428:13C7 E82DFE         CALL   11F7
1428:13CA 3C20           CMP    AL,20                         ;' '
1428:13CC 760C           JBE    13DA
1428:13CE 43             INC    BX
1428:13CF 83FE20         CMP    SI,+20
1428:13D2 74F3           JZ     13C7
1428:13D4 8842E0         MOV    [BP+SI-20],AL
1428:13D7 46             INC    SI
1428:13D8 EBED           JMP    13C7
1428:13DA 5F             POP    DI
1428:13DB 07             POP    ES
1428:13DC 26895D08       MOV    ES:[DI+08],BX
1428:13E0 8BCE           MOV    CX,SI
1428:13E2 E312           JCXZ   13F6
1428:13E4 8D7EE0         LEA    DI,[BP-20]
1428:13E7 16             PUSH   SS
1428:13E8 07             POP    ES
1428:13E9 E8B0F7         CALL   0B9C
1428:13EC 7202           JB     13F0
1428:13EE E30A           JCXZ   13FA
1428:13F0 C70634006A00   MOV    Word Ptr [0034],006A
1428:13F6 33C0           XOR    AX,AX
1428:13F8 8BD0           MOV    DX,AX
1428:13FA 8BE5           MOV    SP,BP
1428:13FC 5D             POP    BP
1428:13FD CB             RETF

; -----------------------------------------------------------------------------
;
; -----------------------------------------------------------------------------

1428:13FE 55           * PUSH   BP
1428:13FF 8BEC           MOV    BP,SP
1428:1401 83EC20         SUB    SP,+20
1428:1404 8B4608         MOV    AX,[BP+08]
1428:1407 8B560A         MOV    DX,[BP+0A]
1428:140A 8D7EE0         LEA    DI,[BP-20]
1428:140D 16             PUSH   SS
1428:140E 07             POP    ES
1428:140F E810F7         CALL   0B22
1428:1412 C47E0C         LES    DI,[BP+0C]
1428:1415 06             PUSH   ES
1428:1416 57             PUSH   DI
1428:1417 E8F9FD         CALL   1213
1428:141A 751F           JNZ    143B
1428:141C 8B4606         MOV    AX,[BP+06]
1428:141F 2BC1           SUB    AX,CX
1428:1421 7E0D           JLE    1430
1428:1423 8BF1           MOV    SI,CX
1428:1425 8BC8           MOV    CX,AX
1428:1427 B020           MOV    AL,20                         ;' '
1428:1429 E80BFE         CALL   1237
1428:142C E2F9           LOOP   1427
1428:142E 8BCE           MOV    CX,SI
1428:1430 8D76E0         LEA    SI,[BP-20]
1428:1433 FC             CLD
1428:1434 36AC           LODSB  SS:
1428:1436 E8FEFD         CALL   1237
1428:1439 E2F8           LOOP   1433
1428:143B 5F             POP    DI
1428:143C 07             POP    ES
1428:143D 26895D08       MOV    ES:[DI+08],BX
1428:1441 8BE5           MOV    SP,BP
1428:1443 5D             POP    BP
1428:1444 CA0600         RETF   0006


1428:1447 55             PUSH   BP
1428:1448 8BEC           MOV    BP,SP
1428:144A 83EC40         SUB    SP,+40
1428:144D C47E06         LES    DI,[BP+06]
1428:1450 06             PUSH   ES
1428:1451 57             PUSH   DI
1428:1452 E87EFD         CALL   11D3
1428:1455 BE0000         MOV    SI,0000
1428:1458 7521           JNZ    147B
1428:145A E89AFD         CALL   11F7
1428:145D 3C1A           CMP    AL,1A
1428:145F 741A           JZ     147B
1428:1461 3C20           CMP    AL,20                         ;' '
1428:1463 7703           JA     1468
1428:1465 43             INC    BX
1428:1466 EBF2           JMP    145A
1428:1468 E88CFD         CALL   11F7
1428:146B 3C20           CMP    AL,20                         ;' '
1428:146D 760C           JBE    147B
1428:146F 43             INC    BX
1428:1470 83FE40         CMP    SI,+40
1428:1473 74F3           JZ     1468
1428:1475 8842C0         MOV    [BP+SI-40],AL
1428:1478 46             INC    SI
1428:1479 EBED           JMP    1468
1428:147B 5F             POP    DI
1428:147C 07             POP    ES
1428:147D 26895D08       MOV    ES:[DI+08],BX
1428:1481 8BCE           MOV    CX,SI
1428:1483 E312           JCXZ   1497
1428:1485 8D7EC0         LEA    DI,[BP-40]
1428:1488 16             PUSH   SS
1428:1489 07             POP    ES
1428:148A E82AF9         CALL   0DB7
1428:148D 7202           JB     1491
1428:148F E30C           JCXZ   149D
1428:1491 C70634006A00   MOV    Word Ptr [0034],006A
1428:1497 33C0           XOR    AX,AX
1428:1499 8BD8           MOV    BX,AX
1428:149B 8BD0           MOV    DX,AX
1428:149D 8BE5           MOV    SP,BP
1428:149F 5D             POP    BP
1428:14A0 CB             RETF

; -----------------------------------------------------------------------------
;
; -----------------------------------------------------------------------------

1428:14A1 55           * PUSH   BP
1428:14A2 8BEC           MOV    BP,SP
1428:14A4 83EC40         SUB    SP,+40
1428:14A7 8B460A         MOV    AX,[BP+0A]
1428:14AA 8B5E0C         MOV    BX,[BP+0C]
1428:14AD 8B560E         MOV    DX,[BP+0E]
1428:14B0 8B4E06         MOV    CX,[BP+06]
1428:14B3 0BC9           OR     CX,CX
1428:14B5 790E           JNS    14C5
1428:14B7 B90600         MOV    CX,0006
1428:14BA 2B4E08         SUB    CX,[BP+08]
1428:14BD 83F9FE         CMP    CX,-02
1428:14C0 7E03           JLE    14C5
1428:14C2 B9FEFF         MOV    CX,FFFE
1428:14C5 8D7EC0         LEA    DI,[BP-40]
1428:14C8 16             PUSH   SS
1428:14C9 07             POP    ES
1428:14CA E867F7         CALL   0C34
1428:14CD C47E10         LES    DI,[BP+10]
1428:14D0 06             PUSH   ES
1428:14D1 57             PUSH   DI
1428:14D2 E83EFD         CALL   1213
1428:14D5 751F           JNZ    14F6
1428:14D7 8B4608         MOV    AX,[BP+08]
1428:14DA 2BC1           SUB    AX,CX
1428:14DC 7E0D           JLE    14EB
1428:14DE 8BF1           MOV    SI,CX
1428:14E0 8BC8           MOV    CX,AX
1428:14E2 B020           MOV    AL,20                         ;' '
1428:14E4 E850FD         CALL   1237
1428:14E7 E2F9           LOOP   14E2
1428:14E9 8BCE           MOV    CX,SI
1428:14EB 8D76C0         LEA    SI,[BP-40]
1428:14EE FC             CLD
1428:14EF 36AC           LODSB  SS:
1428:14F1 E843FD         CALL   1237
1428:14F4 E2F8           LOOP   14EE
1428:14F6 5F             POP    DI
1428:14F7 07             POP    ES
1428:14F8 26895D08       MOV    ES:[DI+08],BX
1428:14FC 8BE5           MOV    SP,BP
1428:14FE 5D             POP    BP
1428:14FF CA0A00         RETF   000A

; -----------------------------------------------------------------------------
;
; -----------------------------------------------------------------------------

1428:1502 8BDC         * MOV    BX,SP
1428:1504 1E             PUSH   DS
1428:1505 36C47F08       LES    DI,SS:[BX+08]
1428:1509 36C57704       LDS    SI,SS:[BX+04]
1428:150D FC             CLD
1428:150E 33C0           XOR    AX,AX
1428:1510 AB             STOSW
1428:1511 B8B0D7         MOV    AX,D7B0
1428:1514 AB             STOSW
1428:1515 33C0           XOR    AX,AX
1428:1517 B91600         MOV    CX,0016
1428:151A F3             REPZ
1428:151B AB             STOSW
1428:151C AC             LODSB
1428:151D 3C4F           CMP    AL,4F                         ;'O'
1428:151F 7602           JBE    1523
1428:1521 B04F           MOV    AL,4F                         ;'O'
1428:1523 8AC8           MOV    CL,AL
1428:1525 32ED           XOR    CH,CH
1428:1527 F3             REPZ
1428:1528 A4             MOVSB
1428:1529 32C0           XOR    AL,AL
1428:152B AA             STOSB
1428:152C 1F             POP    DS
1428:152D CA0800         RETF   0008

; -----------------------------------------------------------------------------
;
; -----------------------------------------------------------------------------

1428:1530 A03A00       * MOV    AL,[003A]
1428:1533 B43D           MOV    AH,3D                         ;'='
1428:1535 33D2           XOR    DX,DX
1428:1537 EB06           JMP    153F

; -----------------------------------------------------------------------------
;
; -----------------------------------------------------------------------------

1428:1539 B8003C       * MOV    AX,3C00
1428:153C BA0100         MOV    DX,0001
1428:153F 55             PUSH   BP
1428:1540 8BEC           MOV    BP,SP
1428:1542 C47E08         LES    DI,[BP+08]
1428:1545 26817D02B0D7   CMP    Word Ptr ES:[DI+02],D7B0
1428:154B 741A           JZ     1567
1428:154D 26817D02B3D7   CMP    Word Ptr ES:[DI+02],D7B3
1428:1553 7408           JZ     155D
1428:1555 C70634006600   MOV    Word Ptr [0034],0066
1428:155B EB34           JMP    1591
1428:155D 50             PUSH   AX
1428:155E 52             PUSH   DX
1428:155F 06             PUSH   ES
1428:1560 57             PUSH   DI
1428:1561 0E             PUSH   CS
1428:1562 E84C00         CALL   15B1
1428:1565 5A             POP    DX
1428:1566 58             POP    AX
1428:1567 26807D3000     CMP    Byte Ptr ES:[DI+30],00
1428:156C 7412           JZ     1580
1428:156E 1E             PUSH   DS
1428:156F 8D5530         LEA    DX,[DI+30]
1428:1572 06             PUSH   ES
1428:1573 1F             POP    DS
1428:1574 33C9           XOR    CX,CX
1428:1576 CD21           INT    21
1428:1578 1F             POP    DS
1428:1579 7306           JNB    1581
1428:157B A33400         MOV    [0034],AX
1428:157E EB11           JMP    1591
1428:1580 92             XCHG   AX,DX
1428:1581 26C74502B3D7   MOV    Word Ptr ES:[DI+02],D7B3
1428:1587 268905         MOV    ES:[DI],AX
1428:158A 8B4606         MOV    AX,[BP+06]
1428:158D 26894504       MOV    ES:[DI+04],AX
1428:1591 5D             POP    BP
1428:1592 CA0600         RETF   0006


1428:1595 8BDC           MOV    BX,SP
1428:1597 36C47F04       LES    DI,SS:[BX+04]
1428:159B E83800         CALL   15D6
1428:159E 750E           JNZ    15AE
1428:15A0 33C9           XOR    CX,CX
1428:15A2 268B1D         MOV    BX,ES:[DI]
1428:15A5 B440           MOV    AH,40                         ;'@'
1428:15A7 CD21           INT    21
1428:15A9 7303           JNB    15AE
1428:15AB A33400         MOV    [0034],AX
1428:15AE CA0400         RETF   0004

; -----------------------------------------------------------------------------
;
; -----------------------------------------------------------------------------

1428:15B1 8BDC         * MOV    BX,SP
1428:15B3 36C47F04       LES    DI,SS:[BX+04]
1428:15B7 E81C00         CALL   15D6
1428:15BA 7517           JNZ    15D3
1428:15BC 268B1D         MOV    BX,ES:[DI]
1428:15BF 83FB04         CMP    BX,+04
1428:15C2 7609           JBE    15CD
1428:15C4 B43E           MOV    AH,3E                         ;'>'
1428:15C6 CD21           INT    21
1428:15C8 7303           JNB    15CD
1428:15CA A33400         MOV    [0034],AX
1428:15CD 26C74502B0D7   MOV    Word Ptr ES:[DI+02],D7B0
1428:15D3 CA0400         RETF   0004


1428:15D6 26817D02B3D7   CMP    Word Ptr ES:[DI+02],D7B3
1428:15DC 7406           JZ     15E4
1428:15DE C70634006700   MOV    Word Ptr [0034],0067
1428:15E4 C3             RET


1428:15E5 B43F           MOV    AH,3F                         ;'?'
1428:15E7 BA6400         MOV    DX,0064
1428:15EA EB05           JMP    15F1
1428:15EC B440           MOV    AH,40                         ;'@'
1428:15EE BA6500         MOV    DX,0065
1428:15F1 55             PUSH   BP
1428:15F2 8BEC           MOV    BP,SP
1428:15F4 C47E0A         LES    DI,[BP+0A]
1428:15F7 E8DCFF         CALL   15D6
1428:15FA 751B           JNZ    1617
1428:15FC 1E             PUSH   DS
1428:15FD 52             PUSH   DX
1428:15FE C55606         LDS    DX,[BP+06]
1428:1601 268B4D04       MOV    CX,ES:[DI+04]
1428:1605 268B1D         MOV    BX,ES:[DI]
1428:1608 CD21           INT    21
1428:160A 5A             POP    DX
1428:160B 1F             POP    DS
1428:160C 7206           JB     1614
1428:160E 3BC1           CMP    AX,CX
1428:1610 7405           JZ     1617
1428:1612 8BC2           MOV    AX,DX
1428:1614 A33400         MOV    [0034],AX
1428:1617 5D             POP    BP
1428:1618 CA0400         RETF   0004

; -----------------------------------------------------------------------------
;
; -----------------------------------------------------------------------------

1428:161B B33F         * MOV    BL,3F                         ;'?'
1428:161D B96400         MOV    CX,0064
1428:1620 EB05           JMP    1627

; -----------------------------------------------------------------------------
;
; -----------------------------------------------------------------------------

1428:1622 B340         * MOV    BL,40                         ;'@'
1428:1624 B96500         MOV    CX,0065
1428:1627 55             PUSH   BP
1428:1628 8BEC           MOV    BP,SP
1428:162A C47E10         LES    DI,[BP+10]
1428:162D E8A6FF         CALL   15D6
1428:1630 753F           JNZ    1671
1428:1632 8B460A         MOV    AX,[BP+0A]
1428:1635 0BC0           OR     AX,AX
1428:1637 741C           JZ     1655
1428:1639 1E             PUSH   DS
1428:163A 51             PUSH   CX
1428:163B 26F76504       MUL    Word Ptr ES:[DI+04]
1428:163F 8BC8           MOV    CX,AX
1428:1641 C5560C         LDS    DX,[BP+0C]
1428:1644 8AE3           MOV    AH,BL
1428:1646 268B1D         MOV    BX,ES:[DI]
1428:1649 CD21           INT    21
1428:164B 59             POP    CX
1428:164C 1F             POP    DS
1428:164D 721F           JB     166E
1428:164F 33D2           XOR    DX,DX
1428:1651 26F77504       DIV    Word Ptr ES:[DI+04]
1428:1655 C47E06         LES    DI,[BP+06]
1428:1658 8CC2           MOV    DX,ES
1428:165A 0BD7           OR     DX,DI
1428:165C 7405           JZ     1663
1428:165E 268905         MOV    ES:[DI],AX
1428:1661 EB1C           JMP    167F
1428:1663 3B460A         CMP    AX,[BP+0A]
1428:1666 7417           JZ     167F
1428:1668 890E3400       MOV    [0034],CX
1428:166C EB11           JMP    167F
1428:166E A33400         MOV    [0034],AX
1428:1671 C47E06         LES    DI,[BP+06]
1428:1674 8CC2           MOV    DX,ES
1428:1676 0BD7           OR     DX,DI
1428:1678 7405           JZ     167F
1428:167A 33C0           XOR    AX,AX
1428:167C 268905         MOV    ES:[DI],AX
1428:167F 5D             POP    BP
1428:1680 CA0E00         RETF   000E

; -----------------------------------------------------------------------------
;
; -----------------------------------------------------------------------------

1428:1683 55           * PUSH   BP
1428:1684 8BEC           MOV    BP,SP
1428:1686 C47E0A         LES    DI,[BP+0A]
1428:1689 E84AFF         CALL   15D6
1428:168C 7521           JNZ    16AF
1428:168E 8B4608         MOV    AX,[BP+08]
1428:1691 26F76504       MUL    Word Ptr ES:[DI+04]
1428:1695 8BC8           MOV    CX,AX
1428:1697 8B4606         MOV    AX,[BP+06]
1428:169A 26F76504       MUL    Word Ptr ES:[DI+04]
1428:169E 03CA           ADD    CX,DX
1428:16A0 8BD0           MOV    DX,AX
1428:16A2 268B1D         MOV    BX,ES:[DI]
1428:16A5 B80042         MOV    AX,4200
1428:16A8 CD21           INT    21
1428:16AA 7303           JNB    16AF
1428:16AC A33400         MOV    [0034],AX
1428:16AF 5D             POP    BP
1428:16B0 CA0800         RETF   0008

; -----------------------------------------------------------------------------
;
; -----------------------------------------------------------------------------

1428:16B3 E84400       * CALL   16FA
1428:16B6 720F           JB     16C7
1428:16B8 268B4D04       MOV    CX,ES:[DI+04]
1428:16BC 83F901         CMP    CX,+01
1428:16BF 7406           JZ     16C7
1428:16C1 33DB           XOR    BX,BX
1428:16C3 0E             PUSH   CS
1428:16C4 E8B5EB         CALL   027C
1428:16C7 CA0400         RETF   0004

; -----------------------------------------------------------------------------
;
; -----------------------------------------------------------------------------

1428:16CA E82D00       * CALL   16FA
1428:16CD 7213           JB     16E2
1428:16CF 8BC1           MOV    AX,CX
1428:16D1 8BD3           MOV    DX,BX
1428:16D3 268B4D04       MOV    CX,ES:[DI+04]
1428:16D7 83F901         CMP    CX,+01
1428:16DA 7406           JZ     16E2
1428:16DC 33DB           XOR    BX,BX
1428:16DE 0E             PUSH   CS
1428:16DF E89AEB         CALL   027C
1428:16E2 CA0400         RETF   0004


1428:16E5 E81200         CALL   16FA
1428:16E8 720B           JB     16F5
1428:16EA 2BC1           SUB    AX,CX
1428:16EC 1BD3           SBB    DX,BX
1428:16EE 7205           JB     16F5
1428:16F0 B001           MOV    AL,01
1428:16F2 CA0400         RETF   0004


1428:16F5 32C0           XOR    AL,AL
1428:16F7 CA0400         RETF   0004


1428:16FA 8BDC           MOV    BX,SP
1428:16FC 36C47F06       LES    DI,SS:[BX+06]
1428:1700 26817D02B3D7   CMP    Word Ptr ES:[DI+02],D7B3
1428:1706 752B           JNZ    1733
1428:1708 33C9           XOR    CX,CX
1428:170A 33D2           XOR    DX,DX
1428:170C 268B1D         MOV    BX,ES:[DI]
1428:170F B80142         MOV    AX,4201
1428:1712 CD21           INT    21
1428:1714 52             PUSH   DX
1428:1715 50             PUSH   AX
1428:1716 33C9           XOR    CX,CX
1428:1718 33D2           XOR    DX,DX
1428:171A 268B1D         MOV    BX,ES:[DI]
1428:171D B80242         MOV    AX,4202
1428:1720 CD21           INT    21
1428:1722 5B             POP    BX
1428:1723 59             POP    CX
1428:1724 52             PUSH   DX
1428:1725 50             PUSH   AX
1428:1726 8BD3           MOV    DX,BX
1428:1728 268B1D         MOV    BX,ES:[DI]
1428:172B B80042         MOV    AX,4200
1428:172E CD21           INT    21
1428:1730 59             POP    CX
1428:1731 5B             POP    BX
1428:1732 C3             RET


1428:1733 C70634006700   MOV    Word Ptr [0034],0067
1428:1739 33C0           XOR    AX,AX
1428:173B 33D2           XOR    DX,DX
1428:173D F9             STC
1428:173E C3             RET

; -----------------------------------------------------------------------------
;
; -----------------------------------------------------------------------------

1428:173F 8BDC         * MOV    BX,SP
1428:1741 1E             PUSH   DS
1428:1742 36C55704       LDS    DX,SS:[BX+04]
1428:1746 83C230         ADD    DX,+30
1428:1749 B441           MOV    AH,41                         ;'A'
1428:174B CD21           INT    21
1428:174D 1F             POP    DS
1428:174E 7303           JNB    1753
1428:1750 A33400         MOV    [0034],AX
1428:1753 CA0400         RETF   0004

; -----------------------------------------------------------------------------
;
; -----------------------------------------------------------------------------

1428:1756 55           * PUSH   BP
1428:1757 8BEC           MOV    BP,SP
1428:1759 83EC50         SUB    SP,+50
1428:175C 1E             PUSH   DS
1428:175D C57606         LDS    SI,[BP+06]
1428:1760 8D7EB0         LEA    DI,[BP-50]
1428:1763 16             PUSH   SS
1428:1764 07             POP    ES
1428:1765 FC             CLD
1428:1766 AC             LODSB
1428:1767 3C4F           CMP    AL,4F                         ;'O'
1428:1769 7602           JBE    176D
1428:176B B04F           MOV    AL,4F                         ;'O'
1428:176D 8AC8           MOV    CL,AL
1428:176F 32ED           XOR    CH,CH
1428:1771 F3             REPZ
1428:1772 A4             MOVSB
1428:1773 32C0           XOR    AL,AL
1428:1775 AA             STOSB
1428:1776 C5560A         LDS    DX,[BP+0A]
1428:1779 83C230         ADD    DX,+30
1428:177C 8D7EB0         LEA    DI,[BP-50]
1428:177F B456           MOV    AH,56                         ;'V'
1428:1781 CD21           INT    21
1428:1783 1F             POP    DS
1428:1784 7305           JNB    178B
1428:1786 A33400         MOV    [0034],AX
1428:1789 EB14           JMP    179F
1428:178B 1E             PUSH   DS
1428:178C 8D76B0         LEA    SI,[BP-50]
1428:178F 16             PUSH   SS
1428:1790 1F             POP    DS
1428:1791 C47E0A         LES    DI,[BP+0A]
1428:1794 83C730         ADD    DI,+30
1428:1797 FC             CLD
1428:1798 AC             LODSB
1428:1799 AA             STOSB
1428:179A 0AC0           OR     AL,AL
1428:179C 75FA           JNZ    1798
1428:179E 1F             POP    DS
1428:179F 8BE5           MOV    SP,BP
1428:17A1 5D             POP    BP
1428:17A2 CA0800         RETF   0008

; -----------------------------------------------------------------------------
;
; -----------------------------------------------------------------------------

1428:17A5 8BDC         * MOV    BX,SP
1428:17A7 368A4704       MOV    AL,SS:[BX+04]
1428:17AB 3C61           CMP    AL,61                         ;'a'
1428:17AD 7206           JB     17B5
1428:17AF 3C7A           CMP    AL,7A                         ;'z'
1428:17B1 7702           JA     17B5
1428:17B3 2C20           SUB    AL,20                         ;' '
1428:17B5 CA0200         RETF   0002
